ARM GAS  C:\Users\mgnocco\AppData\Local\Temp\ccuUy6wY.s 			page 1


   1              		.syntax unified
   2              		.cpu cortex-m3
   3              		.fpu softvfp
   4              		.eabi_attribute 20, 1
   5              		.eabi_attribute 21, 1
   6              		.eabi_attribute 23, 3
   7              		.eabi_attribute 24, 1
   8              		.eabi_attribute 25, 1
   9              		.eabi_attribute 26, 1
  10              		.eabi_attribute 30, 6
  11              		.eabi_attribute 34, 1
  12              		.eabi_attribute 18, 4
  13              		.thumb
  14              		.syntax unified
  15              		.file	"main.c"
  16              		.text
  17              	.Ltext0:
  18              		.cfi_sections	.debug_frame
  19              		.section	.text.main,"ax",%progbits
  20              		.align	2
  21              		.global	main
  22              		.thumb
  23              		.thumb_func
  24              		.type	main, %function
  25              	main:
  26              	.LFB64:
  27              		.file 1 "..\\src\\main.c"
   1:..\src/main.c **** // ----------------------------------------------------------------------------
   2:..\src/main.c **** // BSD 3-Clause License
   3:..\src/main.c **** 
   4:..\src/main.c **** // Copyright (c) 2016, qbrobotics
   5:..\src/main.c **** // Copyright (c) 2017-2020, Centro "E.Piaggio"
   6:..\src/main.c **** // All rights reserved.
   7:..\src/main.c **** 
   8:..\src/main.c **** // Redistribution and use in source and binary forms, with or without
   9:..\src/main.c **** // modification, are permitted provided that the following conditions are met:
  10:..\src/main.c **** 
  11:..\src/main.c **** // * Redistributions of source code must retain the above copyright notice, this
  12:..\src/main.c **** //   list of conditions and the following disclaimer.
  13:..\src/main.c **** 
  14:..\src/main.c **** // * Redistributions in binary form must reproduce the above copyright notice,
  15:..\src/main.c **** //   this list of conditions and the following disclaimer in the documentation
  16:..\src/main.c **** //   and/or other materials provided with the distribution.
  17:..\src/main.c **** 
  18:..\src/main.c **** // * Neither the name of the copyright holder nor the names of its
  19:..\src/main.c **** //   contributors may be used to endorse or promote products derived from
  20:..\src/main.c **** //   this software without specific prior written permission.
  21:..\src/main.c **** 
  22:..\src/main.c **** // THIS SOFTWARE IS PROVIDED BY THE COPYRIGHT HOLDERS AND CONTRIBUTORS "AS IS"
  23:..\src/main.c **** // AND ANY EXPRESS OR IMPLIED WARRANTIES, INCLUDING, BUT NOT LIMITED TO, THE
  24:..\src/main.c **** // IMPLIED WARRANTIES OF MERCHANTABILITY AND FITNESS FOR A PARTICULAR PURPOSE ARE
  25:..\src/main.c **** // DISCLAIMED. IN NO EVENT SHALL THE COPYRIGHT HOLDER OR CONTRIBUTORS BE LIABLE
  26:..\src/main.c **** // FOR ANY DIRECT, INDIRECT, INCIDENTAL, SPECIAL, EXEMPLARY, OR CONSEQUENTIAL
  27:..\src/main.c **** // DAMAGES (INCLUDING, BUT NOT LIMITED TO, PROCUREMENT OF SUBSTITUTE GOODS OR
  28:..\src/main.c **** // SERVICES; LOSS OF USE, DATA, OR PROFITS; OR BUSINESS INTERRUPTION) HOWEVER
  29:..\src/main.c **** // CAUSED AND ON ANY THEORY OF LIABILITY, WHETHER IN CONTRACT, STRICT LIABILITY,
  30:..\src/main.c **** // OR TORT (INCLUDING NEGLIGENCE OR OTHERWISE) ARISING IN ANY WAY OUT OF THE USE
ARM GAS  C:\Users\mgnocco\AppData\Local\Temp\ccuUy6wY.s 			page 2


  31:..\src/main.c **** // OF THIS SOFTWARE, EVEN IF ADVISED OF THE POSSIBILITY OF SUCH DAMAGE.
  32:..\src/main.c **** // POSSIBILITY OF SUCH DAMAGE.
  33:..\src/main.c **** // ----------------------------------------------------------------------------
  34:..\src/main.c **** 
  35:..\src/main.c **** /**
  36:..\src/main.c **** * \file         main.c
  37:..\src/main.c **** *
  38:..\src/main.c **** * \brief        Firmware main file.
  39:..\src/main.c **** * \date         March 20th, 2020
  40:..\src/main.c **** * \author       _Centro "E.Piaggio"_
  41:..\src/main.c **** * \copyright    (C) 2020 Centro "E.Piaggio". All rights reserved.
  42:..\src/main.c **** * \mainpage     Firmware
  43:..\src/main.c **** * \brief        This is the firmware of PSoC5 logic board.
  44:..\src/main.c **** * \version      1.9.4
  45:..\src/main.c **** *
  46:..\src/main.c **** * \details      This is the firmware of PSoC5 logic board. Depending on the configuration, 
  47:..\src/main.c **** *               it can control up to two motors and read its encoders. Also can read and
  48:..\src/main.c **** *               convert analog measurements connected to the PSoC microcontroller.                
  49:..\src/main.c **** *
  50:..\src/main.c **** */
  51:..\src/main.c **** 
  52:..\src/main.c **** 
  53:..\src/main.c **** // ----------------------------------------------------------------------------
  54:..\src/main.c **** // This version changes:
  55:..\src/main.c **** //      - not reported
  56:..\src/main.c **** 
  57:..\src/main.c **** 
  58:..\src/main.c **** //=================================================================     includes
  59:..\src/main.c **** 
  60:..\src/main.c **** #include "device.h"
  61:..\src/main.c **** #include "globals.h"
  62:..\src/main.c **** #include "interruptions.h"
  63:..\src/main.c **** #include "command_processing.h"
  64:..\src/main.c **** #include "IMU_functions.h"
  65:..\src/main.c **** #include "Encoder_functions.h"
  66:..\src/main.c **** #include "SD_RTC_functions.h"
  67:..\src/main.c **** #include "utils.h"
  68:..\src/main.c **** #include "project.h"
  69:..\src/main.c **** #include "FS.h"
  70:..\src/main.c **** 
  71:..\src/main.c **** //==============================================================================
  72:..\src/main.c **** //                                                                 MAIN FUNCTION
  73:..\src/main.c **** //==============================================================================
  74:..\src/main.c **** 
  75:..\src/main.c **** int main()
  76:..\src/main.c **** {
  28              		.loc 1 76 0
  29              		.cfi_startproc
  30              		@ args = 0, pretend = 0, frame = 8
  31              		@ frame_needed = 1, uses_anonymous_args = 0
  32 0000 90B5     		push	{r4, r7, lr}
  33              		.cfi_def_cfa_offset 12
  34              		.cfi_offset 4, -12
  35              		.cfi_offset 7, -8
  36              		.cfi_offset 14, -4
  37 0002 83B0     		sub	sp, sp, #12
  38              		.cfi_def_cfa_offset 24
ARM GAS  C:\Users\mgnocco\AppData\Local\Temp\ccuUy6wY.s 			page 3


  39 0004 00AF     		add	r7, sp, #0
  40              		.cfi_def_cfa_register 7
  77:..\src/main.c ****     // Iterator    
  78:..\src/main.c ****     uint8 i, j;
  79:..\src/main.c ****     
  80:..\src/main.c ****     // Variable declarations for DMA     
  81:..\src/main.c ****     uint8 DMA_Chan;
  82:..\src/main.c ****     uint8 DMA_TD[1];
  83:..\src/main.c ****     
  84:..\src/main.c ****     //================================     initializations - psoc and components
  85:..\src/main.c **** 
  86:..\src/main.c ****     // EEPROM
  87:..\src/main.c ****     EEPROM_Start();
  41              		.loc 1 87 0
  42 0006 FFF7FEFF 		bl	EEPROM_Start
  88:..\src/main.c ****     memRecall();                                        // Recall configuration.  
  43              		.loc 1 88 0
  44 000a FFF7FEFF 		bl	memRecall
  89:..\src/main.c ****     
  90:..\src/main.c ****     // FTDI chip enable
  91:..\src/main.c ****     CyDelay(100);
  45              		.loc 1 91 0
  46 000e 6420     		movs	r0, #100
  47 0010 FFF7FEFF 		bl	CyDelay
  92:..\src/main.c ****     FTDI_ENABLE_Write(0x01);
  48              		.loc 1 92 0
  49 0014 0120     		movs	r0, #1
  50 0016 FFF7FEFF 		bl	FTDI_ENABLE_Write
  93:..\src/main.c ****     
  94:..\src/main.c **** 	// LED Enable   
  95:..\src/main.c ****     LED_control(1);     // Green fixed light
  51              		.loc 1 95 0
  52 001a 0120     		movs	r0, #1
  53 001c FFF7FEFF 		bl	LED_control
  96:..\src/main.c ****     BLINK_05HZ_Start();
  54              		.loc 1 96 0
  55 0020 FFF7FEFF 		bl	BLINK_05HZ_Start
  97:..\src/main.c ****     BLINK_25HZ_Start();
  56              		.loc 1 97 0
  57 0024 FFF7FEFF 		bl	BLINK_25HZ_Start
  98:..\src/main.c ****     BLINK_05HZ_WriteCompare(499);
  58              		.loc 1 98 0
  59 0028 40F2F310 		movw	r0, #499
  60 002c FFF7FEFF 		bl	BLINK_05HZ_WriteCompare
  99:..\src/main.c ****     BLINK_25HZ_WriteCompare(99);
  61              		.loc 1 99 0
  62 0030 6320     		movs	r0, #99
  63 0032 FFF7FEFF 		bl	BLINK_25HZ_WriteCompare
 100:..\src/main.c ****     
 101:..\src/main.c ****     // RS485
 102:..\src/main.c ****     UART_RS485_Stop();
  64              		.loc 1 102 0
  65 0036 FFF7FEFF 		bl	UART_RS485_Stop
 103:..\src/main.c ****     UART_RS485_Start();
  66              		.loc 1 103 0
  67 003a FFF7FEFF 		bl	UART_RS485_Start
 104:..\src/main.c ****     UART_RS485_Init();
ARM GAS  C:\Users\mgnocco\AppData\Local\Temp\ccuUy6wY.s 			page 4


  68              		.loc 1 104 0
  69 003e FFF7FEFF 		bl	UART_RS485_Init
 105:..\src/main.c ****     UART_RS485_ClearRxBuffer();
  70              		.loc 1 105 0
  71 0042 FFF7FEFF 		bl	UART_RS485_ClearRxBuffer
 106:..\src/main.c ****     UART_RS485_ClearTxBuffer();
  72              		.loc 1 106 0
  73 0046 FFF7FEFF 		bl	UART_RS485_ClearTxBuffer
 107:..\src/main.c ****     ISR_RS485_RX_StartEx(ISR_RS485_RX_ExInterrupt);
  74              		.loc 1 107 0
  75 004a A748     		ldr	r0, .L34
  76 004c FFF7FEFF 		bl	ISR_RS485_RX_StartEx
 108:..\src/main.c ****     
 109:..\src/main.c ****     // CYCLES TIMER   
 110:..\src/main.c ****     CYCLES_TIMER_Start();
  77              		.loc 1 110 0
  78 0050 FFF7FEFF 		bl	CYCLES_TIMER_Start
 111:..\src/main.c ****     ISR_CYCLES_StartEx(ISR_CYCLES_Handler);
  79              		.loc 1 111 0
  80 0054 A548     		ldr	r0, .L34+4
  81 0056 FFF7FEFF 		bl	ISR_CYCLES_StartEx
 112:..\src/main.c ****     
 113:..\src/main.c ****     // PWM
 114:..\src/main.c ****     PWM_MOTORS_Start();
  82              		.loc 1 114 0
  83 005a FFF7FEFF 		bl	PWM_MOTORS_Start
 115:..\src/main.c ****     PWM_MOTORS_WriteCompare1(0);
  84              		.loc 1 115 0
  85 005e 0020     		movs	r0, #0
  86 0060 FFF7FEFF 		bl	PWM_MOTORS_WriteCompare1
 116:..\src/main.c ****     enable_motor(0, 0x00);
  87              		.loc 1 116 0
  88 0064 0021     		movs	r1, #0
  89 0066 0020     		movs	r0, #0
  90 0068 FFF7FEFF 		bl	enable_motor
 117:..\src/main.c ****     enable_motor(1, 0x00);
  91              		.loc 1 117 0
  92 006c 0021     		movs	r1, #0
  93 006e 0120     		movs	r0, #1
  94 0070 FFF7FEFF 		bl	enable_motor
 118:..\src/main.c **** 
 119:..\src/main.c ****     // Init AS5045 devices  
 120:..\src/main.c ****     COUNTER_ENC_Start();
  95              		.loc 1 120 0
  96 0074 FFF7FEFF 		bl	COUNTER_ENC_Start
 121:..\src/main.c ****     SHIFTREG_ENC_1_Start();
  97              		.loc 1 121 0
  98 0078 FFF7FEFF 		bl	SHIFTREG_ENC_1_Start
 122:..\src/main.c ****     SHIFTREG_ENC_2_Start();
  99              		.loc 1 122 0
 100 007c FFF7FEFF 		bl	SHIFTREG_ENC_2_Start
 123:..\src/main.c ****     SHIFTREG_ENC_3_Start();
 101              		.loc 1 123 0
 102 0080 FFF7FEFF 		bl	SHIFTREG_ENC_3_Start
 124:..\src/main.c **** 
 125:..\src/main.c ****     // ADC
 126:..\src/main.c ****     ADC_Set_N_Channels();           // Set right number of ADC channels to sample
ARM GAS  C:\Users\mgnocco\AppData\Local\Temp\ccuUy6wY.s 			page 5


 103              		.loc 1 126 0
 104 0084 FFF7FEFF 		bl	ADC_Set_N_Channels
 127:..\src/main.c ****     ADC_Start();
 105              		.loc 1 127 0
 106 0088 FFF7FEFF 		bl	ADC_Start
 128:..\src/main.c ****     ADC_SOC_Write(0x01);            // Force first read cycle.
 107              		.loc 1 128 0
 108 008c 0120     		movs	r0, #1
 109 008e FFF7FEFF 		bl	ADC_SOC_Write
 129:..\src/main.c **** 
 130:..\src/main.c ****     // ADC DMA    
 131:..\src/main.c ****     DMA_Chan = DMA_DmaInitialize(DMA_BYTES_PER_BURST, DMA_REQUEST_PER_BURST, HI16(DMA_SRC_BASE), HI
 110              		.loc 1 131 0
 111 0092 41F6FF73 		movw	r3, #8191
 112 0096 4FF48042 		mov	r2, #16384
 113 009a 0121     		movs	r1, #1
 114 009c 0220     		movs	r0, #2
 115 009e FFF7FEFF 		bl	DMA_DmaInitialize
 116 00a2 0346     		mov	r3, r0
 117 00a4 FB70     		strb	r3, [r7, #3]
 132:..\src/main.c ****     DMA_TD[0] = CyDmaTdAllocate();                                                                 
 118              		.loc 1 132 0
 119 00a6 FFF7FEFF 		bl	CyDmaTdAllocate
 120 00aa 0346     		mov	r3, r0
 121 00ac 3B70     		strb	r3, [r7]
 133:..\src/main.c ****     CyDmaTdSetConfiguration(DMA_TD[0], 2 * NUM_OF_ANALOG_INPUTS, DMA_TD[0], DMA__TD_TERMOUT_EN | TD
 122              		.loc 1 133 0
 123 00ae 3878     		ldrb	r0, [r7]	@ zero_extendqisi2
 124 00b0 8F4B     		ldr	r3, .L34+8
 125 00b2 1B78     		ldrb	r3, [r3]	@ zero_extendqisi2
 126 00b4 9BB2     		uxth	r3, r3
 127 00b6 5B00     		lsls	r3, r3, #1
 128 00b8 99B2     		uxth	r1, r3
 129 00ba 3A78     		ldrb	r2, [r7]	@ zero_extendqisi2
 130 00bc 0623     		movs	r3, #6
 131 00be FFF7FEFF 		bl	CyDmaTdSetConfiguration
 134:..\src/main.c ****     CyDmaTdSetAddress(DMA_TD[0], LO16((uint32)ADC_DEC_SAMP_PTR), LO16((uint32)ADC_buf));           
 132              		.loc 1 134 0
 133 00c2 3B78     		ldrb	r3, [r7]	@ zero_extendqisi2
 134 00c4 8B4A     		ldr	r2, .L34+12
 135 00c6 92B2     		uxth	r2, r2
 136 00c8 44F61061 		movw	r1, #19984
 137 00cc 1846     		mov	r0, r3
 138 00ce FFF7FEFF 		bl	CyDmaTdSetAddress
 135:..\src/main.c ****     CyDmaChSetInitialTd(DMA_Chan, DMA_TD[0]);                                                      
 139              		.loc 1 135 0
 140 00d2 3A78     		ldrb	r2, [r7]	@ zero_extendqisi2
 141 00d4 FB78     		ldrb	r3, [r7, #3]	@ zero_extendqisi2
 142 00d6 1146     		mov	r1, r2
 143 00d8 1846     		mov	r0, r3
 144 00da FFF7FEFF 		bl	CyDmaChSetInitialTd
 136:..\src/main.c ****     CyDmaChEnable(DMA_Chan, 1);                                                                    
 145              		.loc 1 136 0
 146 00de FB78     		ldrb	r3, [r7, #3]	@ zero_extendqisi2
 147 00e0 0121     		movs	r1, #1
 148 00e2 1846     		mov	r0, r3
 149 00e4 FFF7FEFF 		bl	CyDmaChEnable
ARM GAS  C:\Users\mgnocco\AppData\Local\Temp\ccuUy6wY.s 			page 6


 137:..\src/main.c ****     
 138:..\src/main.c ****     // TIMER
 139:..\src/main.c ****     MY_TIMER_Start();           
 150              		.loc 1 139 0
 151 00e8 FFF7FEFF 		bl	MY_TIMER_Start
 140:..\src/main.c ****     PACER_TIMER_Start();    
 152              		.loc 1 140 0
 153 00ec FFF7FEFF 		bl	PACER_TIMER_Start
 141:..\src/main.c ****     
 142:..\src/main.c ****     CYGlobalIntEnable;              // Enable interrupts.
 154              		.loc 1 142 0
 155              		.syntax unified
 156              	@ 142 "..\src\main.c" 1
 157 00f0 62B6     		CPSIE   i
 158              	@ 0 "" 2
 143:..\src/main.c **** 
 144:..\src/main.c ****     // Init AS5045 devices
 145:..\src/main.c ****     InitEncoderGeneral();
 159              		.loc 1 145 0
 160              		.thumb
 161              		.syntax unified
 162 00f2 FFF7FEFF 		bl	InitEncoderGeneral
 146:..\src/main.c **** 
 147:..\src/main.c ****     //SPI IMU module
 148:..\src/main.c ****     if (c_mem.imu.read_imu_flag) {
 163              		.loc 1 148 0
 164 00f6 804B     		ldr	r3, .L34+16
 165 00f8 93F80032 		ldrb	r3, [r3, #512]	@ zero_extendqisi2
 166 00fc 002B     		cmp	r3, #0
 167 00fe 34D0     		beq	.L2
 149:..\src/main.c **** 
 150:..\src/main.c ****     	SPI_IMU_Start();
 168              		.loc 1 150 0
 169 0100 FFF7FEFF 		bl	SPI_IMU_Start
 151:..\src/main.c ****     	SPI_IMU_Init();
 170              		.loc 1 151 0
 171 0104 FFF7FEFF 		bl	SPI_IMU_Init
 152:..\src/main.c ****     	SPI_IMU_Enable();
 172              		.loc 1 152 0
 173 0108 FFF7FEFF 		bl	SPI_IMU_Enable
 153:..\src/main.c ****     	SPI_IMU_ClearRxBuffer();
 174              		.loc 1 153 0
 175 010c FFF7FEFF 		bl	SPI_IMU_ClearRxBuffer
 154:..\src/main.c ****     	SPI_IMU_ClearTxBuffer();
 176              		.loc 1 154 0
 177 0110 FFF7FEFF 		bl	SPI_IMU_ClearTxBuffer
 155:..\src/main.c ****     	SPI_IMU_ClearFIFO();							
 178              		.loc 1 155 0
 179 0114 FFF7FEFF 		bl	SPI_IMU_ClearFIFO
 156:..\src/main.c ****         CyDelay(10);
 180              		.loc 1 156 0
 181 0118 0A20     		movs	r0, #10
 182 011a FFF7FEFF 		bl	CyDelay
 157:..\src/main.c ****         
 158:..\src/main.c ****         // Init MPU9250 devices
 159:..\src/main.c ****         InitIMUgeneral();
 183              		.loc 1 159 0
ARM GAS  C:\Users\mgnocco\AppData\Local\Temp\ccuUy6wY.s 			page 7


 184 011e FFF7FEFF 		bl	InitIMUgeneral
 160:..\src/main.c ****         
 161:..\src/main.c ****         // Initialize quaternion
 162:..\src/main.c ****         for (i = 0; i<N_IMU_MAX; i++) {
 185              		.loc 1 162 0
 186 0122 0023     		movs	r3, #0
 187 0124 FB71     		strb	r3, [r7, #7]
 188 0126 1DE0     		b	.L3
 189              	.L4:
 163:..\src/main.c ****             Quat[i][0] = 0.999;
 190              		.loc 1 163 0 discriminator 3
 191 0128 FB79     		ldrb	r3, [r7, #7]	@ zero_extendqisi2
 192 012a 744A     		ldr	r2, .L34+20
 193 012c 1B01     		lsls	r3, r3, #4
 194 012e 1344     		add	r3, r3, r2
 195 0130 734A     		ldr	r2, .L34+24
 196 0132 1A60     		str	r2, [r3]	@ float
 164:..\src/main.c ****             Quat[i][1] = 0.01;
 197              		.loc 1 164 0 discriminator 3
 198 0134 FB79     		ldrb	r3, [r7, #7]	@ zero_extendqisi2
 199 0136 714A     		ldr	r2, .L34+20
 200 0138 1B01     		lsls	r3, r3, #4
 201 013a 1344     		add	r3, r3, r2
 202 013c 0433     		adds	r3, r3, #4
 203 013e 714A     		ldr	r2, .L34+28
 204 0140 1A60     		str	r2, [r3]	@ float
 165:..\src/main.c ****             Quat[i][2] = 0.01;
 205              		.loc 1 165 0 discriminator 3
 206 0142 FB79     		ldrb	r3, [r7, #7]	@ zero_extendqisi2
 207 0144 6D4A     		ldr	r2, .L34+20
 208 0146 1B01     		lsls	r3, r3, #4
 209 0148 1344     		add	r3, r3, r2
 210 014a 0833     		adds	r3, r3, #8
 211 014c 6D4A     		ldr	r2, .L34+28
 212 014e 1A60     		str	r2, [r3]	@ float
 166:..\src/main.c ****             Quat[i][3] = 0.01;
 213              		.loc 1 166 0 discriminator 3
 214 0150 FB79     		ldrb	r3, [r7, #7]	@ zero_extendqisi2
 215 0152 6A4A     		ldr	r2, .L34+20
 216 0154 1B01     		lsls	r3, r3, #4
 217 0156 1344     		add	r3, r3, r2
 218 0158 0C33     		adds	r3, r3, #12
 219 015a 6A4A     		ldr	r2, .L34+28
 220 015c 1A60     		str	r2, [r3]	@ float
 162:..\src/main.c ****             Quat[i][0] = 0.999;
 221              		.loc 1 162 0 discriminator 3
 222 015e FB79     		ldrb	r3, [r7, #7]	@ zero_extendqisi2
 223 0160 0133     		adds	r3, r3, #1
 224 0162 FB71     		strb	r3, [r7, #7]
 225              	.L3:
 162:..\src/main.c ****             Quat[i][0] = 0.999;
 226              		.loc 1 162 0 is_stmt 0 discriminator 1
 227 0164 FB79     		ldrb	r3, [r7, #7]	@ zero_extendqisi2
 228 0166 042B     		cmp	r3, #4
 229 0168 DED9     		bls	.L4
 230              	.L2:
 167:..\src/main.c ****         }
ARM GAS  C:\Users\mgnocco\AppData\Local\Temp\ccuUy6wY.s 			page 8


 168:..\src/main.c ****     }
 169:..\src/main.c ****     
 170:..\src/main.c ****     //========================================     initializations - clean variables
 171:..\src/main.c ****     
 172:..\src/main.c ****     //---------------------------------------------------  Initialize filters structure 
 173:..\src/main.c ****     for(i=0;i<NUM_OF_MOTORS;i++) {
 231              		.loc 1 173 0 is_stmt 1
 232 016a 0023     		movs	r3, #0
 233 016c FB71     		strb	r3, [r7, #7]
 234 016e 1AE0     		b	.L5
 235              	.L6:
 174:..\src/main.c ****         filt_i[i].gain = 32;    // Current filter constant.
 236              		.loc 1 174 0 discriminator 3
 237 0170 FB79     		ldrb	r3, [r7, #7]	@ zero_extendqisi2
 238 0172 654A     		ldr	r2, .L34+32
 239 0174 DB00     		lsls	r3, r3, #3
 240 0176 1344     		add	r3, r3, r2
 241 0178 2022     		movs	r2, #32
 242 017a 5A60     		str	r2, [r3, #4]
 175:..\src/main.c ****         filt_curr_diff[i].gain = 16;   // Current residual filter constant.       
 243              		.loc 1 175 0 discriminator 3
 244 017c FB79     		ldrb	r3, [r7, #7]	@ zero_extendqisi2
 245 017e 634A     		ldr	r2, .L34+36
 246 0180 DB00     		lsls	r3, r3, #3
 247 0182 1344     		add	r3, r3, r2
 248 0184 1022     		movs	r2, #16
 249 0186 5A60     		str	r2, [r3, #4]
 176:..\src/main.c ****         filt_v[i].old_value    = 12000;// Initial voltage filter value.
 250              		.loc 1 176 0 discriminator 3
 251 0188 FB79     		ldrb	r3, [r7, #7]	@ zero_extendqisi2
 252 018a 614A     		ldr	r2, .L34+40
 253 018c 42F6E061 		movw	r1, #12000
 254 0190 42F83310 		str	r1, [r2, r3, lsl #3]
 177:..\src/main.c ****         filt_v[i].gain         = 2;    // Voltage filter constant.
 255              		.loc 1 177 0 discriminator 3
 256 0194 FB79     		ldrb	r3, [r7, #7]	@ zero_extendqisi2
 257 0196 5E4A     		ldr	r2, .L34+40
 258 0198 DB00     		lsls	r3, r3, #3
 259 019a 1344     		add	r3, r3, r2
 260 019c 0222     		movs	r2, #2
 261 019e 5A60     		str	r2, [r3, #4]
 173:..\src/main.c ****         filt_i[i].gain = 32;    // Current filter constant.
 262              		.loc 1 173 0 discriminator 3
 263 01a0 FB79     		ldrb	r3, [r7, #7]	@ zero_extendqisi2
 264 01a2 0133     		adds	r3, r3, #1
 265 01a4 FB71     		strb	r3, [r7, #7]
 266              	.L5:
 173:..\src/main.c ****         filt_i[i].gain = 32;    // Current filter constant.
 267              		.loc 1 173 0 is_stmt 0 discriminator 1
 268 01a6 FB79     		ldrb	r3, [r7, #7]	@ zero_extendqisi2
 269 01a8 012B     		cmp	r3, #1
 270 01aa E1D9     		bls	.L6
 178:..\src/main.c ****     }
 179:..\src/main.c ****     for(i=0;i<NUM_OF_SENSORS;i++) {
 271              		.loc 1 179 0 is_stmt 1
 272 01ac 0023     		movs	r3, #0
 273 01ae FB71     		strb	r3, [r7, #7]
ARM GAS  C:\Users\mgnocco\AppData\Local\Temp\ccuUy6wY.s 			page 9


 274 01b0 08E0     		b	.L7
 275              	.L8:
 180:..\src/main.c ****         filt_vel[i].gain = 128; // Velocity filters constant.
 276              		.loc 1 180 0 discriminator 3
 277 01b2 FB79     		ldrb	r3, [r7, #7]	@ zero_extendqisi2
 278 01b4 574A     		ldr	r2, .L34+44
 279 01b6 DB00     		lsls	r3, r3, #3
 280 01b8 1344     		add	r3, r3, r2
 281 01ba 8022     		movs	r2, #128
 282 01bc 5A60     		str	r2, [r3, #4]
 179:..\src/main.c ****         filt_vel[i].gain = 128; // Velocity filters constant.
 283              		.loc 1 179 0 discriminator 3
 284 01be FB79     		ldrb	r3, [r7, #7]	@ zero_extendqisi2
 285 01c0 0133     		adds	r3, r3, #1
 286 01c2 FB71     		strb	r3, [r7, #7]
 287              	.L7:
 179:..\src/main.c ****         filt_vel[i].gain = 128; // Velocity filters constant.
 288              		.loc 1 179 0 is_stmt 0 discriminator 1
 289 01c4 FB79     		ldrb	r3, [r7, #7]	@ zero_extendqisi2
 290 01c6 022B     		cmp	r3, #2
 291 01c8 F3D9     		bls	.L8
 181:..\src/main.c ****     }
 182:..\src/main.c ****     
 183:..\src/main.c ****     for(i=0;i<NUM_OF_INPUT_EMGS+NUM_OF_ADDITIONAL_EMGS;i++) {
 292              		.loc 1 183 0 is_stmt 1
 293 01ca 0023     		movs	r3, #0
 294 01cc FB71     		strb	r3, [r7, #7]
 295 01ce 08E0     		b	.L9
 296              	.L10:
 184:..\src/main.c ****         filt_emg[i].gain      = 50;   // Emg channels filter constant.
 297              		.loc 1 184 0 discriminator 3
 298 01d0 FB79     		ldrb	r3, [r7, #7]	@ zero_extendqisi2
 299 01d2 514A     		ldr	r2, .L34+48
 300 01d4 DB00     		lsls	r3, r3, #3
 301 01d6 1344     		add	r3, r3, r2
 302 01d8 3222     		movs	r2, #50
 303 01da 5A60     		str	r2, [r3, #4]
 183:..\src/main.c ****         filt_emg[i].gain      = 50;   // Emg channels filter constant.
 304              		.loc 1 183 0 discriminator 3
 305 01dc FB79     		ldrb	r3, [r7, #7]	@ zero_extendqisi2
 306 01de 0133     		adds	r3, r3, #1
 307 01e0 FB71     		strb	r3, [r7, #7]
 308              	.L9:
 183:..\src/main.c ****         filt_emg[i].gain      = 50;   // Emg channels filter constant.
 309              		.loc 1 183 0 is_stmt 0 discriminator 1
 310 01e2 FB79     		ldrb	r3, [r7, #7]	@ zero_extendqisi2
 311 01e4 072B     		cmp	r3, #7
 312 01e6 F3D9     		bls	.L10
 185:..\src/main.c ****     }
 186:..\src/main.c ****     filt_detect_pc.gain = 500;    
 313              		.loc 1 186 0 is_stmt 1
 314 01e8 4C4B     		ldr	r3, .L34+52
 315 01ea 4FF4FA72 		mov	r2, #500
 316 01ee 5A60     		str	r2, [r3, #4]
 187:..\src/main.c ****     
 188:..\src/main.c ****     //---------------------------------------------------  Initialize reference structure 
 189:..\src/main.c ****     for (i = 0; i< NUM_OF_MOTORS; i++) {
ARM GAS  C:\Users\mgnocco\AppData\Local\Temp\ccuUy6wY.s 			page 10


 317              		.loc 1 189 0
 318 01f0 0023     		movs	r3, #0
 319 01f2 FB71     		strb	r3, [r7, #7]
 320 01f4 08E0     		b	.L11
 321              	.L12:
 190:..\src/main.c ****         g_ref[i].pos = 0;
 322              		.loc 1 190 0 discriminator 3
 323 01f6 FB79     		ldrb	r3, [r7, #7]	@ zero_extendqisi2
 324 01f8 494A     		ldr	r2, .L34+56
 325 01fa 1B01     		lsls	r3, r3, #4
 326 01fc 1344     		add	r3, r3, r2
 327 01fe 0022     		movs	r2, #0
 328 0200 1A60     		str	r2, [r3]
 189:..\src/main.c ****         g_ref[i].pos = 0;
 329              		.loc 1 189 0 discriminator 3
 330 0202 FB79     		ldrb	r3, [r7, #7]	@ zero_extendqisi2
 331 0204 0133     		adds	r3, r3, #1
 332 0206 FB71     		strb	r3, [r7, #7]
 333              	.L11:
 189:..\src/main.c ****         g_ref[i].pos = 0;
 334              		.loc 1 189 0 is_stmt 0 discriminator 1
 335 0208 FB79     		ldrb	r3, [r7, #7]	@ zero_extendqisi2
 336 020a 012B     		cmp	r3, #1
 337 020c F3D9     		bls	.L12
 191:..\src/main.c ****     }
 192:..\src/main.c ****     
 193:..\src/main.c ****     //---------------------------------------------------  Initialize measurement structure
 194:..\src/main.c ****     for (j = 0; j< N_ENCODER_LINE_MAX; j++) { 
 338              		.loc 1 194 0 is_stmt 1
 339 020e 0023     		movs	r3, #0
 340 0210 BB71     		strb	r3, [r7, #6]
 341 0212 22E0     		b	.L13
 342              	.L16:
 195:..\src/main.c ****         for (i = 0; i < NUM_OF_SENSORS; i++) { 
 343              		.loc 1 195 0
 344 0214 0023     		movs	r3, #0
 345 0216 FB71     		strb	r3, [r7, #7]
 346 0218 19E0     		b	.L14
 347              	.L15:
 196:..\src/main.c ****             g_meas[j].pos[i] = 0;
 348              		.loc 1 196 0 discriminator 3
 349 021a BA79     		ldrb	r2, [r7, #6]	@ zero_extendqisi2
 350 021c F979     		ldrb	r1, [r7, #7]	@ zero_extendqisi2
 351 021e 4148     		ldr	r0, .L34+60
 352 0220 1346     		mov	r3, r2
 353 0222 5B00     		lsls	r3, r3, #1
 354 0224 1344     		add	r3, r3, r2
 355 0226 9B00     		lsls	r3, r3, #2
 356 0228 1344     		add	r3, r3, r2
 357 022a 0B44     		add	r3, r3, r1
 358 022c 0022     		movs	r2, #0
 359 022e 40F82320 		str	r2, [r0, r3, lsl #2]
 197:..\src/main.c ****             g_meas[j].rot[i] = (int8)0;
 360              		.loc 1 197 0 discriminator 3
 361 0232 BA79     		ldrb	r2, [r7, #6]	@ zero_extendqisi2
 362 0234 FB79     		ldrb	r3, [r7, #7]	@ zero_extendqisi2
 363 0236 3B49     		ldr	r1, .L34+60
ARM GAS  C:\Users\mgnocco\AppData\Local\Temp\ccuUy6wY.s 			page 11


 364 0238 3420     		movs	r0, #52
 365 023a 00FB02F2 		mul	r2, r0, r2
 366 023e 0A44     		add	r2, r2, r1
 367 0240 1344     		add	r3, r3, r2
 368 0242 1833     		adds	r3, r3, #24
 369 0244 0022     		movs	r2, #0
 370 0246 1A70     		strb	r2, [r3]
 195:..\src/main.c ****         for (i = 0; i < NUM_OF_SENSORS; i++) { 
 371              		.loc 1 195 0 discriminator 3
 372 0248 FB79     		ldrb	r3, [r7, #7]	@ zero_extendqisi2
 373 024a 0133     		adds	r3, r3, #1
 374 024c FB71     		strb	r3, [r7, #7]
 375              	.L14:
 195:..\src/main.c ****         for (i = 0; i < NUM_OF_SENSORS; i++) { 
 376              		.loc 1 195 0 is_stmt 0 discriminator 1
 377 024e FB79     		ldrb	r3, [r7, #7]	@ zero_extendqisi2
 378 0250 022B     		cmp	r3, #2
 379 0252 E2D9     		bls	.L15
 194:..\src/main.c ****         for (i = 0; i < NUM_OF_SENSORS; i++) { 
 380              		.loc 1 194 0 is_stmt 1 discriminator 2
 381 0254 BB79     		ldrb	r3, [r7, #6]	@ zero_extendqisi2
 382 0256 0133     		adds	r3, r3, #1
 383 0258 BB71     		strb	r3, [r7, #6]
 384              	.L13:
 194:..\src/main.c ****         for (i = 0; i < NUM_OF_SENSORS; i++) { 
 385              		.loc 1 194 0 is_stmt 0 discriminator 1
 386 025a BB79     		ldrb	r3, [r7, #6]	@ zero_extendqisi2
 387 025c 012B     		cmp	r3, #1
 388 025e D9D9     		bls	.L16
 198:..\src/main.c ****         }
 199:..\src/main.c ****     }
 200:..\src/main.c **** 
 201:..\src/main.c ****     for (i = 0; i< NUM_OF_MOTORS; i++) {
 389              		.loc 1 201 0 is_stmt 1
 390 0260 0023     		movs	r3, #0
 391 0262 FB71     		strb	r3, [r7, #7]
 392 0264 0EE0     		b	.L17
 393              	.L18:
 202:..\src/main.c ****         g_refNew[i] = g_ref[i];                         // Initialize k+1 reference structure.
 394              		.loc 1 202 0 discriminator 3
 395 0266 FA79     		ldrb	r2, [r7, #7]	@ zero_extendqisi2
 396 0268 FB79     		ldrb	r3, [r7, #7]	@ zero_extendqisi2
 397 026a 2F49     		ldr	r1, .L34+64
 398 026c 1201     		lsls	r2, r2, #4
 399 026e 1144     		add	r1, r1, r2
 400 0270 2B4A     		ldr	r2, .L34+56
 401 0272 1B01     		lsls	r3, r3, #4
 402 0274 1344     		add	r3, r3, r2
 403 0276 0C46     		mov	r4, r1
 404 0278 0FCB     		ldmia	r3, {r0, r1, r2, r3}
 405 027a 84E80F00 		stmia	r4, {r0, r1, r2, r3}
 201:..\src/main.c ****         g_refNew[i] = g_ref[i];                         // Initialize k+1 reference structure.
 406              		.loc 1 201 0 discriminator 3
 407 027e FB79     		ldrb	r3, [r7, #7]	@ zero_extendqisi2
 408 0280 0133     		adds	r3, r3, #1
 409 0282 FB71     		strb	r3, [r7, #7]
 410              	.L17:
ARM GAS  C:\Users\mgnocco\AppData\Local\Temp\ccuUy6wY.s 			page 12


 201:..\src/main.c ****         g_refNew[i] = g_ref[i];                         // Initialize k+1 reference structure.
 411              		.loc 1 201 0 is_stmt 0 discriminator 1
 412 0284 FB79     		ldrb	r3, [r7, #7]	@ zero_extendqisi2
 413 0286 012B     		cmp	r3, #1
 414 0288 EDD9     		bls	.L18
 203:..\src/main.c ****     }
 204:..\src/main.c ****     
 205:..\src/main.c ****     //---------------------------------------------------  Initialize emg structure
 206:..\src/main.c ****     g_adc_meas.emg[0] = 0;
 415              		.loc 1 206 0 is_stmt 1
 416 028a 284B     		ldr	r3, .L34+68
 417 028c 0022     		movs	r2, #0
 418 028e 1A60     		str	r2, [r3]
 207:..\src/main.c ****     g_adc_meas.emg[1] = 0;
 419              		.loc 1 207 0
 420 0290 264B     		ldr	r3, .L34+68
 421 0292 0022     		movs	r2, #0
 422 0294 5A60     		str	r2, [r3, #4]
 208:..\src/main.c ****     g_adc_meas.joystick[0] = 0;
 423              		.loc 1 208 0
 424 0296 254B     		ldr	r3, .L34+68
 425 0298 0022     		movs	r2, #0
 426 029a 1A62     		str	r2, [r3, #32]
 209:..\src/main.c ****     g_adc_meas.joystick[1] = 0;
 427              		.loc 1 209 0
 428 029c 234B     		ldr	r3, .L34+68
 429 029e 0022     		movs	r2, #0
 430 02a0 5A62     		str	r2, [r3, #36]
 431              	.LBB2:
 210:..\src/main.c ****     for (uint16 k = 0; k<SAMPLES_FOR_EMG_HISTORY; k++){
 432              		.loc 1 210 0
 433 02a2 0023     		movs	r3, #0
 434 02a4 BB80     		strh	r3, [r7, #4]	@ movhi
 435 02a6 13E0     		b	.L19
 436              	.L22:
 211:..\src/main.c ****         for (j = 0; j<NUM_OF_INPUT_EMGS; j++){
 437              		.loc 1 211 0
 438 02a8 0023     		movs	r3, #0
 439 02aa BB71     		strb	r3, [r7, #6]
 440 02ac 0AE0     		b	.L20
 441              	.L21:
 212:..\src/main.c ****             emg_history[k][j] = (uint16)0;
 442              		.loc 1 212 0 discriminator 3
 443 02ae BA88     		ldrh	r2, [r7, #4]
 444 02b0 BB79     		ldrb	r3, [r7, #6]	@ zero_extendqisi2
 445 02b2 1F49     		ldr	r1, .L34+72
 446 02b4 5200     		lsls	r2, r2, #1
 447 02b6 1344     		add	r3, r3, r2
 448 02b8 0022     		movs	r2, #0
 449 02ba 21F81320 		strh	r2, [r1, r3, lsl #1]	@ movhi
 211:..\src/main.c ****         for (j = 0; j<NUM_OF_INPUT_EMGS; j++){
 450              		.loc 1 211 0 discriminator 3
 451 02be BB79     		ldrb	r3, [r7, #6]	@ zero_extendqisi2
 452 02c0 0133     		adds	r3, r3, #1
 453 02c2 BB71     		strb	r3, [r7, #6]
 454              	.L20:
 211:..\src/main.c ****         for (j = 0; j<NUM_OF_INPUT_EMGS; j++){
ARM GAS  C:\Users\mgnocco\AppData\Local\Temp\ccuUy6wY.s 			page 13


 455              		.loc 1 211 0 is_stmt 0 discriminator 1
 456 02c4 BB79     		ldrb	r3, [r7, #6]	@ zero_extendqisi2
 457 02c6 012B     		cmp	r3, #1
 458 02c8 F1D9     		bls	.L21
 210:..\src/main.c ****     for (uint16 k = 0; k<SAMPLES_FOR_EMG_HISTORY; k++){
 459              		.loc 1 210 0 is_stmt 1 discriminator 2
 460 02ca BB88     		ldrh	r3, [r7, #4]
 461 02cc 0133     		adds	r3, r3, #1
 462 02ce BB80     		strh	r3, [r7, #4]	@ movhi
 463              	.L19:
 210:..\src/main.c ****     for (uint16 k = 0; k<SAMPLES_FOR_EMG_HISTORY; k++){
 464              		.loc 1 210 0 is_stmt 0 discriminator 1
 465 02d0 BB88     		ldrh	r3, [r7, #4]
 466 02d2 B3F5167F 		cmp	r3, #600
 467 02d6 E7D3     		bcc	.L22
 468              	.LBE2:
 213:..\src/main.c ****         }
 214:..\src/main.c ****     }
 215:..\src/main.c ****     emg_history_next_idx = 0;
 469              		.loc 1 215 0 is_stmt 1
 470 02d8 164B     		ldr	r3, .L34+76
 471 02da 0022     		movs	r2, #0
 472 02dc 1A60     		str	r2, [r3]
 216:..\src/main.c ****     
 217:..\src/main.c ****     set_pwm_frequency();            // Electrostimulation PWM frequency
 473              		.loc 1 217 0
 474 02de FFF7FEFF 		bl	set_pwm_frequency
 218:..\src/main.c ****     
 219:..\src/main.c ****     for (i = 0; i< NUM_OF_MOTORS; i++) {
 475              		.loc 1 219 0
 476 02e2 0023     		movs	r3, #0
 477 02e4 FB71     		strb	r3, [r7, #7]
 478 02e6 4BE0     		b	.L23
 479              	.L35:
 480              		.align	2
 481              	.L34:
 482 02e8 00000000 		.word	ISR_RS485_RX_ExInterrupt
 483 02ec 00000000 		.word	ISR_CYCLES_Handler
 484 02f0 00000000 		.word	NUM_OF_ANALOG_INPUTS
 485 02f4 00000000 		.word	ADC_buf
 486 02f8 00000000 		.word	c_mem
 487 02fc 00000000 		.word	Quat
 488 0300 77BE7F3F 		.word	1065336439
 489 0304 0AD7233C 		.word	1008981770
 490 0308 00000000 		.word	filt_i
 491 030c 00000000 		.word	filt_curr_diff
 492 0310 00000000 		.word	filt_v
 493 0314 00000000 		.word	filt_vel
 494 0318 00000000 		.word	filt_emg
 495 031c 00000000 		.word	filt_detect_pc
 496 0320 00000000 		.word	g_ref
 497 0324 00000000 		.word	g_meas
 498 0328 00000000 		.word	g_refNew
 499 032c 00000000 		.word	g_adc_meas
 500 0330 00000000 		.word	emg_history
 501 0334 00000000 		.word	emg_history_next_idx
 502              	.L24:
ARM GAS  C:\Users\mgnocco\AppData\Local\Temp\ccuUy6wY.s 			page 14


 220:..\src/main.c ****         
 221:..\src/main.c ****         g_ref[i].onoff = c_mem.motor[i].activ;
 503              		.loc 1 221 0 discriminator 3
 504 0338 F979     		ldrb	r1, [r7, #7]	@ zero_extendqisi2
 505 033a FA79     		ldrb	r2, [r7, #7]	@ zero_extendqisi2
 506 033c 4948     		ldr	r0, .L36
 507 033e 1346     		mov	r3, r2
 508 0340 DB00     		lsls	r3, r3, #3
 509 0342 9B1A     		subs	r3, r3, r2
 510 0344 1B01     		lsls	r3, r3, #4
 511 0346 0344     		add	r3, r3, r0
 512 0348 E033     		adds	r3, r3, #224
 513 034a 1878     		ldrb	r0, [r3]	@ zero_extendqisi2
 514 034c 464A     		ldr	r2, .L36+4
 515 034e 0B01     		lsls	r3, r1, #4
 516 0350 1344     		add	r3, r3, r2
 517 0352 0C33     		adds	r3, r3, #12
 518 0354 0246     		mov	r2, r0
 519 0356 1A70     		strb	r2, [r3]
 222:..\src/main.c **** 
 223:..\src/main.c ****         enable_motor(i, g_ref[i].onoff); 
 520              		.loc 1 223 0 discriminator 3
 521 0358 FB79     		ldrb	r3, [r7, #7]	@ zero_extendqisi2
 522 035a 434A     		ldr	r2, .L36+4
 523 035c 1B01     		lsls	r3, r3, #4
 524 035e 1344     		add	r3, r3, r2
 525 0360 0C33     		adds	r3, r3, #12
 526 0362 1A78     		ldrb	r2, [r3]	@ zero_extendqisi2
 527 0364 FB79     		ldrb	r3, [r7, #7]	@ zero_extendqisi2
 528 0366 1146     		mov	r1, r2
 529 0368 1846     		mov	r0, r3
 530 036a FFF7FEFF 		bl	enable_motor
 224:..\src/main.c ****         
 225:..\src/main.c ****     //    dev_pwm_limit[i] = dev_pwm_sat[i];              // Init PWM limit.
 226:..\src/main.c **** 	
 227:..\src/main.c ****         pow_tension[i] = 12000;                         // 12000 mV (12 V)
 531              		.loc 1 227 0 discriminator 3
 532 036e FB79     		ldrb	r3, [r7, #7]	@ zero_extendqisi2
 533 0370 3E4A     		ldr	r2, .L36+8
 534 0372 42F6E061 		movw	r1, #12000
 535 0376 42F82310 		str	r1, [r2, r3, lsl #2]
 219:..\src/main.c ****         
 536              		.loc 1 219 0 discriminator 3
 537 037a FB79     		ldrb	r3, [r7, #7]	@ zero_extendqisi2
 538 037c 0133     		adds	r3, r3, #1
 539 037e FB71     		strb	r3, [r7, #7]
 540              	.L23:
 219:..\src/main.c ****         
 541              		.loc 1 219 0 is_stmt 0 discriminator 1
 542 0380 FB79     		ldrb	r3, [r7, #7]	@ zero_extendqisi2
 543 0382 012B     		cmp	r3, #1
 544 0384 D8D9     		bls	.L24
 228:..\src/main.c ****     }
 229:..\src/main.c ****     
 230:..\src/main.c ****     tension_valid = FALSE;                              // Init tension_valid BIT.
 545              		.loc 1 230 0 is_stmt 1
 546 0386 3A4B     		ldr	r3, .L36+12
ARM GAS  C:\Users\mgnocco\AppData\Local\Temp\ccuUy6wY.s 			page 15


 547 0388 0022     		movs	r2, #0
 548 038a 1A70     		strb	r2, [r3]
 231:..\src/main.c **** 
 232:..\src/main.c ****     for (j = 0; j< N_ENCODER_LINE_MAX; j++) { 
 549              		.loc 1 232 0
 550 038c 0023     		movs	r3, #0
 551 038e BB71     		strb	r3, [r7, #6]
 552 0390 06E0     		b	.L25
 553              	.L26:
 233:..\src/main.c ****         reset_last_value_flag[j] = 0;                   // Do not reset encoder last value.
 554              		.loc 1 233 0 discriminator 3
 555 0392 BB79     		ldrb	r3, [r7, #6]	@ zero_extendqisi2
 556 0394 374A     		ldr	r2, .L36+16
 557 0396 0021     		movs	r1, #0
 558 0398 D154     		strb	r1, [r2, r3]
 232:..\src/main.c ****         reset_last_value_flag[j] = 0;                   // Do not reset encoder last value.
 559              		.loc 1 232 0 discriminator 3
 560 039a BB79     		ldrb	r3, [r7, #6]	@ zero_extendqisi2
 561 039c 0133     		adds	r3, r3, #1
 562 039e BB71     		strb	r3, [r7, #6]
 563              	.L25:
 232:..\src/main.c ****         reset_last_value_flag[j] = 0;                   // Do not reset encoder last value.
 564              		.loc 1 232 0 is_stmt 0 discriminator 1
 565 03a0 BB79     		ldrb	r3, [r7, #6]	@ zero_extendqisi2
 566 03a2 012B     		cmp	r3, #1
 567 03a4 F5D9     		bls	.L26
 234:..\src/main.c ****     }
 235:..\src/main.c **** 
 236:..\src/main.c ****     //------------------------------------------------- Initialize package on receive from RS485
 237:..\src/main.c ****     g_rx.length = 0;
 568              		.loc 1 237 0 is_stmt 1
 569 03a6 344B     		ldr	r3, .L36+20
 570 03a8 0022     		movs	r2, #0
 571 03aa A3F88020 		strh	r2, [r3, #128]	@ movhi
 238:..\src/main.c ****     g_rx.ready  = 0;
 572              		.loc 1 238 0
 573 03ae 324B     		ldr	r3, .L36+20
 574 03b0 0022     		movs	r2, #0
 575 03b2 83F88420 		strb	r2, [r3, #132]
 239:..\src/main.c ****     
 240:..\src/main.c ****     //------------------------------------------------- Initialize rest position variables    
 241:..\src/main.c **** 	rest_enabled = 0;
 576              		.loc 1 241 0
 577 03b6 314B     		ldr	r3, .L36+24
 578 03b8 0022     		movs	r2, #0
 579 03ba 1A70     		strb	r2, [r3]
 242:..\src/main.c ****     forced_open = 0;
 580              		.loc 1 242 0
 581 03bc 304B     		ldr	r3, .L36+28
 582 03be 0022     		movs	r2, #0
 583 03c0 1A70     		strb	r2, [r3]
 243:..\src/main.c ****     
 244:..\src/main.c ****     LED_control(5);     // Default - red light
 584              		.loc 1 244 0
 585 03c2 0520     		movs	r0, #5
 586 03c4 FFF7FEFF 		bl	LED_control
 245:..\src/main.c ****     
ARM GAS  C:\Users\mgnocco\AppData\Local\Temp\ccuUy6wY.s 			page 16


 246:..\src/main.c **** #ifdef MASTER_FW
 247:..\src/main.c ****     master_mode = 1;    // Default - activate master mode at startup
 248:..\src/main.c **** #endif
 249:..\src/main.c **** 
 250:..\src/main.c ****     //============================================================    check if maintenance is due
 251:..\src/main.c **** 
 252:..\src/main.c ****     if ( (g_mem.cnt.wire_disp/(((g_mem.motor[0].pos_lim_sup>>g_mem.enc[0].res[0]) - (g_mem.motor[0]
 587              		.loc 1 252 0
 588 03c8 2E4B     		ldr	r3, .L36+32
 589 03ca 5B6D     		ldr	r3, [r3, #84]
 590 03cc 2D4A     		ldr	r2, .L36+32
 591 03ce D2F8E820 		ldr	r2, [r2, #232]
 592 03d2 2C49     		ldr	r1, .L36+32
 593 03d4 91F89511 		ldrb	r1, [r1, #405]	@ zero_extendqisi2
 594 03d8 42FA01F1 		asr	r1, r2, r1
 595 03dc 294A     		ldr	r2, .L36+32
 596 03de D2F8E420 		ldr	r2, [r2, #228]
 597 03e2 2848     		ldr	r0, .L36+32
 598 03e4 90F89501 		ldrb	r0, [r0, #405]	@ zero_extendqisi2
 599 03e8 0241     		asrs	r2, r2, r0
 600 03ea 8A1A     		subs	r2, r1, r2
 601 03ec 5200     		lsls	r2, r2, #1
 602 03ee B3FBF2F3 		udiv	r3, r3, r2
 603 03f2 254A     		ldr	r2, .L36+36
 604 03f4 9342     		cmp	r3, r2
 605 03f6 02D9     		bls	.L27
 253:..\src/main.c ****         maintenance_flag = TRUE;    
 606              		.loc 1 253 0
 607 03f8 244B     		ldr	r3, .L36+40
 608 03fa 0122     		movs	r2, #1
 609 03fc 1A70     		strb	r2, [r3]
 610              	.L27:
 254:..\src/main.c **** 
 255:..\src/main.c ****     if (g_mem.exp.read_exp_port_flag == EXP_SD_RTC) {
 611              		.loc 1 255 0
 612 03fe 214B     		ldr	r3, .L36+32
 613 0400 93F82632 		ldrb	r3, [r3, #550]	@ zero_extendqisi2
 614 0404 012B     		cmp	r3, #1
 615 0406 03D1     		bne	.L28
 256:..\src/main.c ****         
 257:..\src/main.c ****         store_RTC_current_time();
 616              		.loc 1 257 0
 617 0408 FFF7FEFF 		bl	store_RTC_current_time
 258:..\src/main.c ****         
 259:..\src/main.c ****         // SD file
 260:..\src/main.c ****         InitSD_FS();
 618              		.loc 1 260 0
 619 040c FFF7FEFF 		bl	InitSD_FS
 620              	.L28:
 261:..\src/main.c ****     }
 262:..\src/main.c ****     
 263:..\src/main.c ****     //============================================================     main loop
 264:..\src/main.c ****     
 265:..\src/main.c ****     // All peripherals has started, now it is ok to start communication
 266:..\src/main.c ****     RS485_CTS_Write(0);             // Clear To Send on RS485.
 621              		.loc 1 266 0
 622 0410 0020     		movs	r0, #0
ARM GAS  C:\Users\mgnocco\AppData\Local\Temp\ccuUy6wY.s 			page 17


 623 0412 FFF7FEFF 		bl	RS485_CTS_Write
 624              	.L33:
 267:..\src/main.c **** 
 268:..\src/main.c ****     for(;;)
 269:..\src/main.c **** 
 270:..\src/main.c ****     {             
 271:..\src/main.c ****         // Put the FF reset pin to LOW
 272:..\src/main.c ****         RESET_FF_Write(0x00);
 625              		.loc 1 272 0
 626 0416 0020     		movs	r0, #0
 627 0418 FFF7FEFF 		bl	RESET_FF_Write
 273:..\src/main.c **** 
 274:..\src/main.c ****         // Call function scheduler
 275:..\src/main.c ****         function_scheduler(); 
 628              		.loc 1 275 0
 629 041c FFF7FEFF 		bl	function_scheduler
 276:..\src/main.c **** 
 277:..\src/main.c ****         //  Wait until the FF is set to 1
 278:..\src/main.c ****         while(FF_STATUS_Read() == 0){
 630              		.loc 1 278 0
 631 0420 08E0     		b	.L29
 632              	.L30:
 279:..\src/main.c ****             // On interrupt from RS485
 280:..\src/main.c ****             if (interrupt_flag){
 633              		.loc 1 280 0
 634 0422 1B4B     		ldr	r3, .L36+44
 635 0424 1B78     		ldrb	r3, [r3]	@ zero_extendqisi2
 636 0426 002B     		cmp	r3, #0
 637 0428 04D0     		beq	.L29
 281:..\src/main.c ****                 // Reset flags
 282:..\src/main.c ****                 interrupt_flag = FALSE;
 638              		.loc 1 282 0
 639 042a 194B     		ldr	r3, .L36+44
 640 042c 0022     		movs	r2, #0
 641 042e 1A70     		strb	r2, [r3]
 283:..\src/main.c ****                 
 284:..\src/main.c ****                 // Manage Interrupt on rs485
 285:..\src/main.c ****                 interrupt_manager();
 642              		.loc 1 285 0
 643 0430 FFF7FEFF 		bl	interrupt_manager
 644              	.L29:
 278:..\src/main.c ****             // On interrupt from RS485
 645              		.loc 1 278 0
 646 0434 FFF7FEFF 		bl	FF_STATUS_Read
 647 0438 0346     		mov	r3, r0
 648 043a 002B     		cmp	r3, #0
 649 043c F1D0     		beq	.L30
 286:..\src/main.c ****             }
 287:..\src/main.c ****         };
 288:..\src/main.c **** 
 289:..\src/main.c ****         // Command a FF reset
 290:..\src/main.c ****         RESET_FF_Write(0x01);
 650              		.loc 1 290 0
 651 043e 0120     		movs	r0, #1
 652 0440 FFF7FEFF 		bl	RESET_FF_Write
 291:..\src/main.c **** 
 292:..\src/main.c ****         // Wait for FF to be reset
ARM GAS  C:\Users\mgnocco\AppData\Local\Temp\ccuUy6wY.s 			page 18


 293:..\src/main.c ****         while(FF_STATUS_Read() == 1);
 653              		.loc 1 293 0
 654 0444 00BF     		nop
 655              	.L31:
 656              		.loc 1 293 0 is_stmt 0 discriminator 1
 657 0446 FFF7FEFF 		bl	FF_STATUS_Read
 658 044a 0346     		mov	r3, r0
 659 044c 012B     		cmp	r3, #1
 660 044e FAD0     		beq	.L31
 294:..\src/main.c **** 
 295:..\src/main.c ****         if(UART_RS485_ReadRxStatus() & UART_RS485_RX_STS_SOFT_BUFF_OVER)
 661              		.loc 1 295 0 is_stmt 1
 662 0450 FFF7FEFF 		bl	UART_RS485_ReadRxStatus
 663 0454 0346     		mov	r3, r0
 664 0456 5BB2     		sxtb	r3, r3
 665 0458 002B     		cmp	r3, #0
 666 045a DCDA     		bge	.L33
 296:..\src/main.c ****             UART_RS485_ClearRxBuffer();
 667              		.loc 1 296 0
 668 045c FFF7FEFF 		bl	UART_RS485_ClearRxBuffer
 297:..\src/main.c ****     }
 669              		.loc 1 297 0
 670 0460 D9E7     		b	.L33
 671              	.L37:
 672 0462 00BF     		.align	2
 673              	.L36:
 674 0464 00000000 		.word	c_mem
 675 0468 00000000 		.word	g_ref
 676 046c 00000000 		.word	pow_tension
 677 0470 00000000 		.word	tension_valid
 678 0474 00000000 		.word	reset_last_value_flag
 679 0478 00000000 		.word	g_rx
 680 047c 00000000 		.word	rest_enabled
 681 0480 00000000 		.word	forced_open
 682 0484 00000000 		.word	g_mem
 683 0488 400D0300 		.word	200000
 684 048c 00000000 		.word	maintenance_flag
 685 0490 00000000 		.word	interrupt_flag
 686              		.cfi_endproc
 687              	.LFE64:
 688              		.size	main, .-main
 689              		.text
 690              	.Letext0:
 691              		.file 2 "c:\\program files (x86)\\cypress\\psoc creator\\4.4\\psoc creator\\import\\gnu\\arm\\5.4.
 692              		.file 3 "c:\\program files (x86)\\cypress\\psoc creator\\4.4\\psoc creator\\import\\gnu\\arm\\5.4.
 693              		.file 4 "Generated_Source\\PSoC5/cytypes.h"
 694              		.file 5 "..\\src\\globals.h"
 695              		.file 6 "Generated_Source\\PSoC5/core_cm3.h"