ARM GAS  C:\Users\mgnocco\AppData\Local\Temp\ccMnT5Cc.s 			page 1


   1              		.syntax unified
   2              		.cpu cortex-m3
   3              		.fpu softvfp
   4              		.eabi_attribute 20, 1
   5              		.eabi_attribute 21, 1
   6              		.eabi_attribute 23, 3
   7              		.eabi_attribute 24, 1
   8              		.eabi_attribute 25, 1
   9              		.eabi_attribute 26, 1
  10              		.eabi_attribute 30, 6
  11              		.eabi_attribute 34, 1
  12              		.eabi_attribute 18, 4
  13              		.thumb
  14              		.syntax unified
  15              		.file	"Encoder_functions.c"
  16              		.text
  17              	.Ltext0:
  18              		.cfi_sections	.debug_frame
  19              		.section	.text.Change_CS_EncoderLine,"ax",%progbits
  20              		.align	2
  21              		.global	Change_CS_EncoderLine
  22              		.thumb
  23              		.thumb_func
  24              		.type	Change_CS_EncoderLine, %function
  25              	Change_CS_EncoderLine:
  26              	.LFB64:
  27              		.file 1 "..\\src\\Encoder_functions.c"
   1:..\src/Encoder_functions.c **** // ----------------------------------------------------------------------------
   2:..\src/Encoder_functions.c **** // BSD 3-Clause License
   3:..\src/Encoder_functions.c **** 
   4:..\src/Encoder_functions.c **** // Copyright (c) 2016, qbrobotics
   5:..\src/Encoder_functions.c **** // Copyright (c) 2017-2020, Centro "E.Piaggio"
   6:..\src/Encoder_functions.c **** // All rights reserved.
   7:..\src/Encoder_functions.c **** 
   8:..\src/Encoder_functions.c **** // Redistribution and use in source and binary forms, with or without
   9:..\src/Encoder_functions.c **** // modification, are permitted provided that the following conditions are met:
  10:..\src/Encoder_functions.c **** 
  11:..\src/Encoder_functions.c **** // * Redistributions of source code must retain the above copyright notice, this
  12:..\src/Encoder_functions.c **** //   list of conditions and the following disclaimer.
  13:..\src/Encoder_functions.c **** 
  14:..\src/Encoder_functions.c **** // * Redistributions in binary form must reproduce the above copyright notice,
  15:..\src/Encoder_functions.c **** //   this list of conditions and the following disclaimer in the documentation
  16:..\src/Encoder_functions.c **** //   and/or other materials provided with the distribution.
  17:..\src/Encoder_functions.c **** 
  18:..\src/Encoder_functions.c **** // * Neither the name of the copyright holder nor the names of its
  19:..\src/Encoder_functions.c **** //   contributors may be used to endorse or promote products derived from
  20:..\src/Encoder_functions.c **** //   this software without specific prior written permission.
  21:..\src/Encoder_functions.c **** 
  22:..\src/Encoder_functions.c **** // THIS SOFTWARE IS PROVIDED BY THE COPYRIGHT HOLDERS AND CONTRIBUTORS "AS IS"
  23:..\src/Encoder_functions.c **** // AND ANY EXPRESS OR IMPLIED WARRANTIES, INCLUDING, BUT NOT LIMITED TO, THE
  24:..\src/Encoder_functions.c **** // IMPLIED WARRANTIES OF MERCHANTABILITY AND FITNESS FOR A PARTICULAR PURPOSE ARE
  25:..\src/Encoder_functions.c **** // DISCLAIMED. IN NO EVENT SHALL THE COPYRIGHT HOLDER OR CONTRIBUTORS BE LIABLE
  26:..\src/Encoder_functions.c **** // FOR ANY DIRECT, INDIRECT, INCIDENTAL, SPECIAL, EXEMPLARY, OR CONSEQUENTIAL
  27:..\src/Encoder_functions.c **** // DAMAGES (INCLUDING, BUT NOT LIMITED TO, PROCUREMENT OF SUBSTITUTE GOODS OR
  28:..\src/Encoder_functions.c **** // SERVICES; LOSS OF USE, DATA, OR PROFITS; OR BUSINESS INTERRUPTION) HOWEVER
  29:..\src/Encoder_functions.c **** // CAUSED AND ON ANY THEORY OF LIABILITY, WHETHER IN CONTRACT, STRICT LIABILITY,
  30:..\src/Encoder_functions.c **** // OR TORT (INCLUDING NEGLIGENCE OR OTHERWISE) ARISING IN ANY WAY OUT OF THE USE
ARM GAS  C:\Users\mgnocco\AppData\Local\Temp\ccMnT5Cc.s 			page 2


  31:..\src/Encoder_functions.c **** // OF THIS SOFTWARE, EVEN IF ADVISED OF THE POSSIBILITY OF SUCH DAMAGE.
  32:..\src/Encoder_functions.c **** // POSSIBILITY OF SUCH DAMAGE.
  33:..\src/Encoder_functions.c **** // ----------------------------------------------------------------------------
  34:..\src/Encoder_functions.c **** 
  35:..\src/Encoder_functions.c **** /**
  36:..\src/Encoder_functions.c **** * \file         Encoder_functions.c
  37:..\src/Encoder_functions.c **** *
  38:..\src/Encoder_functions.c **** * \brief        Implementation of SPI module functions.
  39:..\src/Encoder_functions.c **** * \date         March 20th, 2020
  40:..\src/Encoder_functions.c **** * \author       _Centro "E.Piaggio"_
  41:..\src/Encoder_functions.c **** * \copyright    (C) 2012-2016 qbrobotics. All rights reserved.
  42:..\src/Encoder_functions.c **** * \copyright    (C) 2017-2020 Centro "E.Piaggio". All rights reserved.
  43:..\src/Encoder_functions.c **** */
  44:..\src/Encoder_functions.c **** 
  45:..\src/Encoder_functions.c **** #include "Encoder_functions.h"
  46:..\src/Encoder_functions.c **** 
  47:..\src/Encoder_functions.c **** /********************************************************************************
  48:..\src/Encoder_functions.c **** * Function Name: Change_CS_EncoderLine                                                   *
  49:..\src/Encoder_functions.c **** *********************************************************************************/
  50:..\src/Encoder_functions.c **** void Change_CS_EncoderLine(int n)
  51:..\src/Encoder_functions.c **** {        
  28              		.loc 1 51 0
  29              		.cfi_startproc
  30              		@ args = 0, pretend = 0, frame = 8
  31              		@ frame_needed = 1, uses_anonymous_args = 0
  32 0000 80B5     		push	{r7, lr}
  33              		.cfi_def_cfa_offset 8
  34              		.cfi_offset 7, -8
  35              		.cfi_offset 14, -4
  36 0002 82B0     		sub	sp, sp, #8
  37              		.cfi_def_cfa_offset 16
  38 0004 00AF     		add	r7, sp, #0
  39              		.cfi_def_cfa_register 7
  40 0006 7860     		str	r0, [r7, #4]
  41              	.LBB2:
  52:..\src/Encoder_functions.c ****     // Change CS (only if necessary)
  53:..\src/Encoder_functions.c ****     if (Chip_Select_ENCODER_LINE_Read() != n) {        
  42              		.loc 1 53 0
  43 0008 FFF7FEFF 		bl	Chip_Select_ENCODER_LINE_Read
  44 000c 0246     		mov	r2, r0
  45 000e 7B68     		ldr	r3, [r7, #4]
  46 0010 9A42     		cmp	r2, r3
  47 0012 0ED0     		beq	.L3
  48              	.LBB3:
  54:..\src/Encoder_functions.c ****         RESET_COUNTERS_Write(0x01);     // Stop COUNTER_ENC
  49              		.loc 1 54 0
  50 0014 0120     		movs	r0, #1
  51 0016 FFF7FEFF 		bl	RESET_COUNTERS_Write
  55:..\src/Encoder_functions.c ****         CyDelayUs(10);
  52              		.loc 1 55 0
  53 001a 0A20     		movs	r0, #10
  54 001c FFF7FEFF 		bl	CyDelayUs
  56:..\src/Encoder_functions.c ****         Chip_Select_ENCODER_LINE_Write(n);
  55              		.loc 1 56 0
  56 0020 7868     		ldr	r0, [r7, #4]
  57 0022 FFF7FEFF 		bl	Chip_Select_ENCODER_LINE_Write
  57:..\src/Encoder_functions.c ****         RESET_COUNTERS_Write(0x00);    // Activate encoder counters. Must be made before initializi
ARM GAS  C:\Users\mgnocco\AppData\Local\Temp\ccMnT5Cc.s 			page 3


  58              		.loc 1 57 0
  59 0026 0020     		movs	r0, #0
  60 0028 FFF7FEFF 		bl	RESET_COUNTERS_Write
  58:..\src/Encoder_functions.c ****         CyDelayUs(200);                // Wait for encoders to have a valid value.
  61              		.loc 1 58 0
  62 002c C820     		movs	r0, #200
  63 002e FFF7FEFF 		bl	CyDelayUs
  64              	.L3:
  65              	.LBE3:
  66              	.LBE2:
  59:..\src/Encoder_functions.c ****     }
  60:..\src/Encoder_functions.c **** }
  67              		.loc 1 60 0
  68 0032 00BF     		nop
  69 0034 0837     		adds	r7, r7, #8
  70              		.cfi_def_cfa_offset 8
  71 0036 BD46     		mov	sp, r7
  72              		.cfi_def_cfa_register 13
  73              		@ sp needed
  74 0038 80BD     		pop	{r7, pc}
  75              		.cfi_endproc
  76              	.LFE64:
  77              		.size	Change_CS_EncoderLine, .-Change_CS_EncoderLine
  78 003a 00BF     		.section	.text.EncoderReset,"ax",%progbits
  79              		.align	2
  80              		.global	EncoderReset
  81              		.thumb
  82              		.thumb_func
  83              		.type	EncoderReset, %function
  84              	EncoderReset:
  85              	.LFB65:
  61:..\src/Encoder_functions.c **** 
  62:..\src/Encoder_functions.c **** /*******************************************************************************
  63:..\src/Encoder_functions.c **** * Function Name: Encoder Reset
  64:..\src/Encoder_functions.c **** *********************************************************************************/
  65:..\src/Encoder_functions.c **** void EncoderReset() {
  86              		.loc 1 65 0
  87              		.cfi_startproc
  88              		@ args = 0, pretend = 0, frame = 0
  89              		@ frame_needed = 1, uses_anonymous_args = 0
  90 0000 80B5     		push	{r7, lr}
  91              		.cfi_def_cfa_offset 8
  92              		.cfi_offset 7, -8
  93              		.cfi_offset 14, -4
  94 0002 00AF     		add	r7, sp, #0
  95              		.cfi_def_cfa_register 7
  66:..\src/Encoder_functions.c **** 	    
  67:..\src/Encoder_functions.c ****     CyDelay(10);
  96              		.loc 1 67 0
  97 0004 0A20     		movs	r0, #10
  98 0006 FFF7FEFF 		bl	CyDelay
  68:..\src/Encoder_functions.c ****     InitEncoderGeneral();
  99              		.loc 1 68 0
 100 000a FFF7FEFF 		bl	InitEncoderGeneral
  69:..\src/Encoder_functions.c ****     CyDelay(10);
 101              		.loc 1 69 0
 102 000e 0A20     		movs	r0, #10
ARM GAS  C:\Users\mgnocco\AppData\Local\Temp\ccMnT5Cc.s 			page 4


 103 0010 FFF7FEFF 		bl	CyDelay
  70:..\src/Encoder_functions.c **** }
 104              		.loc 1 70 0
 105 0014 00BF     		nop
 106 0016 80BD     		pop	{r7, pc}
 107              		.cfi_endproc
 108              	.LFE65:
 109              		.size	EncoderReset, .-EncoderReset
 110              		.section	.text.InitEncoderGeneral,"ax",%progbits
 111              		.align	2
 112              		.global	InitEncoderGeneral
 113              		.thumb
 114              		.thumb_func
 115              		.type	InitEncoderGeneral, %function
 116              	InitEncoderGeneral:
 117              	.LFB66:
  71:..\src/Encoder_functions.c **** 
  72:..\src/Encoder_functions.c **** /********************************************************************************
  73:..\src/Encoder_functions.c **** * Function Name: InitEncoderGeneral                                                 *
  74:..\src/Encoder_functions.c **** *********************************************************************************/
  75:..\src/Encoder_functions.c **** void InitEncoderGeneral()
  76:..\src/Encoder_functions.c **** {
 118              		.loc 1 76 0
 119              		.cfi_startproc
 120              		@ args = 0, pretend = 0, frame = 0
 121              		@ frame_needed = 1, uses_anonymous_args = 0
 122              		@ link register save eliminated.
 123 0000 80B4     		push	{r7}
 124              		.cfi_def_cfa_offset 4
 125              		.cfi_offset 7, -4
 126 0002 00AF     		add	r7, sp, #0
 127              		.cfi_def_cfa_register 7
  77:..\src/Encoder_functions.c **** }
 128              		.loc 1 77 0
 129 0004 00BF     		nop
 130 0006 BD46     		mov	sp, r7
 131              		.cfi_def_cfa_register 13
 132              		@ sp needed
 133 0008 80BC     		pop	{r7}
 134              		.cfi_restore 7
 135              		.cfi_def_cfa_offset 0
 136 000a 7047     		bx	lr
 137              		.cfi_endproc
 138              	.LFE66:
 139              		.size	InitEncoderGeneral, .-InitEncoderGeneral
 140              		.section	.text.InitEncoderLine,"ax",%progbits
 141              		.align	2
 142              		.global	InitEncoderLine
 143              		.thumb
 144              		.thumb_func
 145              		.type	InitEncoderLine, %function
 146              	InitEncoderLine:
 147              	.LFB67:
  78:..\src/Encoder_functions.c **** 
  79:..\src/Encoder_functions.c **** /*******************************************************************************
  80:..\src/Encoder_functions.c **** * Function Name: Encoder Initialization
  81:..\src/Encoder_functions.c **** *********************************************************************************/
ARM GAS  C:\Users\mgnocco\AppData\Local\Temp\ccMnT5Cc.s 			page 5


  82:..\src/Encoder_functions.c **** void InitEncoderLine(uint8 n){
 148              		.loc 1 82 0
 149              		.cfi_startproc
 150              		@ args = 0, pretend = 0, frame = 8
 151              		@ frame_needed = 1, uses_anonymous_args = 0
 152              		@ link register save eliminated.
 153 0000 80B4     		push	{r7}
 154              		.cfi_def_cfa_offset 4
 155              		.cfi_offset 7, -4
 156 0002 83B0     		sub	sp, sp, #12
 157              		.cfi_def_cfa_offset 16
 158 0004 00AF     		add	r7, sp, #0
 159              		.cfi_def_cfa_register 7
 160 0006 0346     		mov	r3, r0
 161 0008 FB71     		strb	r3, [r7, #7]
  83:..\src/Encoder_functions.c ****    }
 162              		.loc 1 83 0
 163 000a 00BF     		nop
 164 000c 0C37     		adds	r7, r7, #12
 165              		.cfi_def_cfa_offset 4
 166 000e BD46     		mov	sp, r7
 167              		.cfi_def_cfa_register 13
 168              		@ sp needed
 169 0010 80BC     		pop	{r7}
 170              		.cfi_restore 7
 171              		.cfi_def_cfa_offset 0
 172 0012 7047     		bx	lr
 173              		.cfi_endproc
 174              	.LFE67:
 175              		.size	InitEncoderLine, .-InitEncoderLine
 176              		.section	.text.ReadEncoderLine,"ax",%progbits
 177              		.align	2
 178              		.global	ReadEncoderLine
 179              		.thumb
 180              		.thumb_func
 181              		.type	ReadEncoderLine, %function
 182              	ReadEncoderLine:
 183              	.LFB68:
  84:..\src/Encoder_functions.c **** 
  85:..\src/Encoder_functions.c **** /*******************************************************************************
  86:..\src/Encoder_functions.c **** * Function Name: Read Encoder
  87:..\src/Encoder_functions.c **** *********************************************************************************/
  88:..\src/Encoder_functions.c **** void ReadEncoderLine(int n_encoders, int n_line)
  89:..\src/Encoder_functions.c **** {   
 184              		.loc 1 89 0
 185              		.cfi_startproc
 186              		@ args = 0, pretend = 0, frame = 24
 187              		@ frame_needed = 1, uses_anonymous_args = 0
 188 0000 80B5     		push	{r7, lr}
 189              		.cfi_def_cfa_offset 8
 190              		.cfi_offset 7, -8
 191              		.cfi_offset 14, -4
 192 0002 86B0     		sub	sp, sp, #24
 193              		.cfi_def_cfa_offset 32
 194 0004 00AF     		add	r7, sp, #0
 195              		.cfi_def_cfa_register 7
 196 0006 7860     		str	r0, [r7, #4]
ARM GAS  C:\Users\mgnocco\AppData\Local\Temp\ccMnT5Cc.s 			page 6


 197 0008 3960     		str	r1, [r7]
  90:..\src/Encoder_functions.c **** 	uint32 enc_rx_buffer[3] = {0,0,0};    // One for each Shift register
 198              		.loc 1 90 0
 199 000a 0023     		movs	r3, #0
 200 000c BB60     		str	r3, [r7, #8]
 201 000e 0023     		movs	r3, #0
 202 0010 FB60     		str	r3, [r7, #12]
 203 0012 0023     		movs	r3, #0
 204 0014 3B61     		str	r3, [r7, #16]
  91:..\src/Encoder_functions.c ****     uint8 i = 0;
 205              		.loc 1 91 0
 206 0016 0023     		movs	r3, #0
 207 0018 FB75     		strb	r3, [r7, #23]
  92:..\src/Encoder_functions.c ****         
  93:..\src/Encoder_functions.c ****     enc_rx_buffer[0] = SHIFTREG_ENC_1_ReadData();
 208              		.loc 1 93 0
 209 001a FFF7FEFF 		bl	SHIFTREG_ENC_1_ReadData
 210 001e 0346     		mov	r3, r0
 211 0020 BB60     		str	r3, [r7, #8]
  94:..\src/Encoder_functions.c ****     enc_rx_buffer[1] = SHIFTREG_ENC_2_ReadData();
 212              		.loc 1 94 0
 213 0022 FFF7FEFF 		bl	SHIFTREG_ENC_2_ReadData
 214 0026 0346     		mov	r3, r0
 215 0028 FB60     		str	r3, [r7, #12]
  95:..\src/Encoder_functions.c ****     enc_rx_buffer[2] = SHIFTREG_ENC_3_ReadData();
 216              		.loc 1 95 0
 217 002a FFF7FEFF 		bl	SHIFTREG_ENC_3_ReadData
 218 002e 0346     		mov	r3, r0
 219 0030 3B61     		str	r3, [r7, #16]
  96:..\src/Encoder_functions.c **** 
  97:..\src/Encoder_functions.c ****     // Parse data into Encoder_Check and Encoder_Value vectors
  98:..\src/Encoder_functions.c ****     // Discard first bit of whole packet, parity bits and dummy bits between encoders data
  99:..\src/Encoder_functions.c ****     for (i = 0; i < n_encoders; i++) {
 220              		.loc 1 99 0
 221 0032 0023     		movs	r3, #0
 222 0034 FB75     		strb	r3, [r7, #23]
 223 0036 C9E0     		b	.L8
 224              	.L17:
 100:..\src/Encoder_functions.c ****         switch(i){
 225              		.loc 1 100 0
 226 0038 FB7D     		ldrb	r3, [r7, #23]	@ zero_extendqisi2
 227 003a 042B     		cmp	r3, #4
 228 003c 00F2C280 		bhi	.L18
 229 0040 01A2     		adr	r2, .L11
 230 0042 52F823F0 		ldr	pc, [r2, r3, lsl #2]
 231 0046 00BF     		.p2align 2
 232              	.L11:
 233 0048 5D000000 		.word	.L10+1
 234 004c 99000000 		.word	.L12+1
 235 0050 D1000000 		.word	.L13+1
 236 0054 11010000 		.word	.L14+1
 237 0058 85010000 		.word	.L15+1
 238              		.p2align 1
 239              	.L10:
 101:..\src/Encoder_functions.c ****             case 0:     // First encoder in the line
 102:..\src/Encoder_functions.c ****                 Encoder_Value[n_line][0] = (uint16)((enc_rx_buffer[0] & 0x7FFFF000) >> 19);
 240              		.loc 1 102 0
ARM GAS  C:\Users\mgnocco\AppData\Local\Temp\ccMnT5Cc.s 			page 7


 241 005c BB68     		ldr	r3, [r7, #8]
 242 005e DB0C     		lsrs	r3, r3, #19
 243 0060 9BB2     		uxth	r3, r3
 244 0062 C3F30B03 		ubfx	r3, r3, #0, #12
 245 0066 98B2     		uxth	r0, r3
 246 0068 5D49     		ldr	r1, .L19
 247 006a 3A68     		ldr	r2, [r7]
 248 006c 1346     		mov	r3, r2
 249 006e 9B00     		lsls	r3, r3, #2
 250 0070 1344     		add	r3, r3, r2
 251 0072 5B00     		lsls	r3, r3, #1
 252 0074 0B44     		add	r3, r3, r1
 253 0076 0246     		mov	r2, r0	@ movhi
 254 0078 1A80     		strh	r2, [r3]	@ movhi
 103:..\src/Encoder_functions.c ****                 Encoder_Check[n_line][0] = (uint8)((enc_rx_buffer[0] & 0x0007C000) >> 14);
 255              		.loc 1 103 0
 256 007a BB68     		ldr	r3, [r7, #8]
 257 007c 9B0B     		lsrs	r3, r3, #14
 258 007e DBB2     		uxtb	r3, r3
 259 0080 03F01F03 		and	r3, r3, #31
 260 0084 D8B2     		uxtb	r0, r3
 261 0086 5749     		ldr	r1, .L19+4
 262 0088 3A68     		ldr	r2, [r7]
 263 008a 1346     		mov	r3, r2
 264 008c 9B00     		lsls	r3, r3, #2
 265 008e 1344     		add	r3, r3, r2
 266 0090 0B44     		add	r3, r3, r1
 267 0092 0246     		mov	r2, r0
 268 0094 1A70     		strb	r2, [r3]
 104:..\src/Encoder_functions.c ****             break;
 269              		.loc 1 104 0
 270 0096 96E0     		b	.L16
 271              	.L12:
 105:..\src/Encoder_functions.c ****             case 1:     // Second encoder in the line
 106:..\src/Encoder_functions.c ****                 Encoder_Value[n_line][1] = (uint16)((enc_rx_buffer[0] & 0x00000FFF));
 272              		.loc 1 106 0
 273 0098 BB68     		ldr	r3, [r7, #8]
 274 009a 9BB2     		uxth	r3, r3
 275 009c C3F30B03 		ubfx	r3, r3, #0, #12
 276 00a0 98B2     		uxth	r0, r3
 277 00a2 4F49     		ldr	r1, .L19
 278 00a4 3A68     		ldr	r2, [r7]
 279 00a6 1346     		mov	r3, r2
 280 00a8 9B00     		lsls	r3, r3, #2
 281 00aa 1344     		add	r3, r3, r2
 282 00ac 5B00     		lsls	r3, r3, #1
 283 00ae 0B44     		add	r3, r3, r1
 284 00b0 0233     		adds	r3, r3, #2
 285 00b2 0246     		mov	r2, r0	@ movhi
 286 00b4 1A80     		strh	r2, [r3]	@ movhi
 107:..\src/Encoder_functions.c ****                 Encoder_Check[n_line][1] = (uint8)((enc_rx_buffer[1] & 0xF8000000) >> 27);
 287              		.loc 1 107 0
 288 00b6 FB68     		ldr	r3, [r7, #12]
 289 00b8 DB0E     		lsrs	r3, r3, #27
 290 00ba D8B2     		uxtb	r0, r3
 291 00bc 4949     		ldr	r1, .L19+4
 292 00be 3A68     		ldr	r2, [r7]
ARM GAS  C:\Users\mgnocco\AppData\Local\Temp\ccMnT5Cc.s 			page 8


 293 00c0 1346     		mov	r3, r2
 294 00c2 9B00     		lsls	r3, r3, #2
 295 00c4 1344     		add	r3, r3, r2
 296 00c6 0B44     		add	r3, r3, r1
 297 00c8 0133     		adds	r3, r3, #1
 298 00ca 0246     		mov	r2, r0
 299 00cc 1A70     		strb	r2, [r3]
 108:..\src/Encoder_functions.c ****             break;
 300              		.loc 1 108 0
 301 00ce 7AE0     		b	.L16
 302              	.L13:
 109:..\src/Encoder_functions.c ****             case 2:     // Third encoder in the line
 110:..\src/Encoder_functions.c ****                 Encoder_Value[n_line][2] = (uint16)((enc_rx_buffer[1] & 0x01FFE000) >> 13);
 303              		.loc 1 110 0
 304 00d0 FB68     		ldr	r3, [r7, #12]
 305 00d2 5B0B     		lsrs	r3, r3, #13
 306 00d4 9BB2     		uxth	r3, r3
 307 00d6 C3F30B03 		ubfx	r3, r3, #0, #12
 308 00da 98B2     		uxth	r0, r3
 309 00dc 4049     		ldr	r1, .L19
 310 00de 3A68     		ldr	r2, [r7]
 311 00e0 1346     		mov	r3, r2
 312 00e2 9B00     		lsls	r3, r3, #2
 313 00e4 1344     		add	r3, r3, r2
 314 00e6 5B00     		lsls	r3, r3, #1
 315 00e8 0B44     		add	r3, r3, r1
 316 00ea 0433     		adds	r3, r3, #4
 317 00ec 0246     		mov	r2, r0	@ movhi
 318 00ee 1A80     		strh	r2, [r3]	@ movhi
 111:..\src/Encoder_functions.c ****                 Encoder_Check[n_line][2] = (uint8)((enc_rx_buffer[1] & 0x00001F00) >> 8);
 319              		.loc 1 111 0
 320 00f0 FB68     		ldr	r3, [r7, #12]
 321 00f2 1B0A     		lsrs	r3, r3, #8
 322 00f4 DBB2     		uxtb	r3, r3
 323 00f6 03F01F03 		and	r3, r3, #31
 324 00fa D8B2     		uxtb	r0, r3
 325 00fc 3949     		ldr	r1, .L19+4
 326 00fe 3A68     		ldr	r2, [r7]
 327 0100 1346     		mov	r3, r2
 328 0102 9B00     		lsls	r3, r3, #2
 329 0104 1344     		add	r3, r3, r2
 330 0106 0B44     		add	r3, r3, r1
 331 0108 0233     		adds	r3, r3, #2
 332 010a 0246     		mov	r2, r0
 333 010c 1A70     		strb	r2, [r3]
 112:..\src/Encoder_functions.c ****             break;
 334              		.loc 1 112 0
 335 010e 5AE0     		b	.L16
 336              	.L14:
 113:..\src/Encoder_functions.c ****             case 3:     // Fourth encoder in the line
 114:..\src/Encoder_functions.c ****                 Encoder_Value[n_line][3] = (uint16)((enc_rx_buffer[1] & 0x0000003F));
 337              		.loc 1 114 0
 338 0110 FB68     		ldr	r3, [r7, #12]
 339 0112 9BB2     		uxth	r3, r3
 340 0114 03F03F03 		and	r3, r3, #63
 341 0118 98B2     		uxth	r0, r3
 342 011a 3149     		ldr	r1, .L19
ARM GAS  C:\Users\mgnocco\AppData\Local\Temp\ccMnT5Cc.s 			page 9


 343 011c 3A68     		ldr	r2, [r7]
 344 011e 1346     		mov	r3, r2
 345 0120 9B00     		lsls	r3, r3, #2
 346 0122 1344     		add	r3, r3, r2
 347 0124 5B00     		lsls	r3, r3, #1
 348 0126 0B44     		add	r3, r3, r1
 349 0128 0633     		adds	r3, r3, #6
 350 012a 0246     		mov	r2, r0	@ movhi
 351 012c 1A80     		strh	r2, [r3]	@ movhi
 115:..\src/Encoder_functions.c ****                 Encoder_Value[n_line][3] = (Encoder_Value[n_line][3] << 6) | (uint16)((enc_rx_buffe
 352              		.loc 1 115 0
 353 012e 2C49     		ldr	r1, .L19
 354 0130 3A68     		ldr	r2, [r7]
 355 0132 1346     		mov	r3, r2
 356 0134 9B00     		lsls	r3, r3, #2
 357 0136 1344     		add	r3, r3, r2
 358 0138 5B00     		lsls	r3, r3, #1
 359 013a 0B44     		add	r3, r3, r1
 360 013c 0633     		adds	r3, r3, #6
 361 013e 1B88     		ldrh	r3, [r3]
 362 0140 9B01     		lsls	r3, r3, #6
 363 0142 1AB2     		sxth	r2, r3
 364 0144 3B69     		ldr	r3, [r7, #16]
 365 0146 9B0E     		lsrs	r3, r3, #26
 366 0148 1BB2     		sxth	r3, r3
 367 014a 1343     		orrs	r3, r3, r2
 368 014c 1BB2     		sxth	r3, r3
 369 014e 98B2     		uxth	r0, r3
 370 0150 2349     		ldr	r1, .L19
 371 0152 3A68     		ldr	r2, [r7]
 372 0154 1346     		mov	r3, r2
 373 0156 9B00     		lsls	r3, r3, #2
 374 0158 1344     		add	r3, r3, r2
 375 015a 5B00     		lsls	r3, r3, #1
 376 015c 0B44     		add	r3, r3, r1
 377 015e 0633     		adds	r3, r3, #6
 378 0160 0246     		mov	r2, r0	@ movhi
 379 0162 1A80     		strh	r2, [r3]	@ movhi
 116:..\src/Encoder_functions.c ****                 Encoder_Check[n_line][3] = (uint8)((enc_rx_buffer[2] & 0x03E00000) >> 21);
 380              		.loc 1 116 0
 381 0164 3B69     		ldr	r3, [r7, #16]
 382 0166 5B0D     		lsrs	r3, r3, #21
 383 0168 DBB2     		uxtb	r3, r3
 384 016a 03F01F03 		and	r3, r3, #31
 385 016e D8B2     		uxtb	r0, r3
 386 0170 1C49     		ldr	r1, .L19+4
 387 0172 3A68     		ldr	r2, [r7]
 388 0174 1346     		mov	r3, r2
 389 0176 9B00     		lsls	r3, r3, #2
 390 0178 1344     		add	r3, r3, r2
 391 017a 0B44     		add	r3, r3, r1
 392 017c 0333     		adds	r3, r3, #3
 393 017e 0246     		mov	r2, r0
 394 0180 1A70     		strb	r2, [r3]
 117:..\src/Encoder_functions.c ****             break;
 395              		.loc 1 117 0
 396 0182 20E0     		b	.L16
ARM GAS  C:\Users\mgnocco\AppData\Local\Temp\ccMnT5Cc.s 			page 10


 397              	.L15:
 118:..\src/Encoder_functions.c ****             case 4:     // Fifth encoder in the line
 119:..\src/Encoder_functions.c ****                 Encoder_Value[n_line][4] = (uint16)((enc_rx_buffer[2] & 0x0007FF80) >> 7);
 398              		.loc 1 119 0
 399 0184 3B69     		ldr	r3, [r7, #16]
 400 0186 DB09     		lsrs	r3, r3, #7
 401 0188 9BB2     		uxth	r3, r3
 402 018a C3F30B03 		ubfx	r3, r3, #0, #12
 403 018e 98B2     		uxth	r0, r3
 404 0190 1349     		ldr	r1, .L19
 405 0192 3A68     		ldr	r2, [r7]
 406 0194 1346     		mov	r3, r2
 407 0196 9B00     		lsls	r3, r3, #2
 408 0198 1344     		add	r3, r3, r2
 409 019a 5B00     		lsls	r3, r3, #1
 410 019c 0B44     		add	r3, r3, r1
 411 019e 0833     		adds	r3, r3, #8
 412 01a0 0246     		mov	r2, r0	@ movhi
 413 01a2 1A80     		strh	r2, [r3]	@ movhi
 120:..\src/Encoder_functions.c ****                 Encoder_Check[n_line][4] = (uint8)((enc_rx_buffer[2] & 0x0000007C) >> 2);
 414              		.loc 1 120 0
 415 01a4 3B69     		ldr	r3, [r7, #16]
 416 01a6 9B08     		lsrs	r3, r3, #2
 417 01a8 DBB2     		uxtb	r3, r3
 418 01aa 03F01F03 		and	r3, r3, #31
 419 01ae D8B2     		uxtb	r0, r3
 420 01b0 0C49     		ldr	r1, .L19+4
 421 01b2 3A68     		ldr	r2, [r7]
 422 01b4 1346     		mov	r3, r2
 423 01b6 9B00     		lsls	r3, r3, #2
 424 01b8 1344     		add	r3, r3, r2
 425 01ba 0B44     		add	r3, r3, r1
 426 01bc 0433     		adds	r3, r3, #4
 427 01be 0246     		mov	r2, r0
 428 01c0 1A70     		strb	r2, [r3]
 121:..\src/Encoder_functions.c ****             break;
 429              		.loc 1 121 0
 430 01c2 00E0     		b	.L16
 431              	.L18:
 122:..\src/Encoder_functions.c ****             default:
 123:..\src/Encoder_functions.c ****             break;
 432              		.loc 1 123 0
 433 01c4 00BF     		nop
 434              	.L16:
  99:..\src/Encoder_functions.c ****         switch(i){
 435              		.loc 1 99 0 discriminator 2
 436 01c6 FB7D     		ldrb	r3, [r7, #23]	@ zero_extendqisi2
 437 01c8 0133     		adds	r3, r3, #1
 438 01ca FB75     		strb	r3, [r7, #23]
 439              	.L8:
  99:..\src/Encoder_functions.c ****         switch(i){
 440              		.loc 1 99 0 is_stmt 0 discriminator 1
 441 01cc FA7D     		ldrb	r2, [r7, #23]	@ zero_extendqisi2
 442 01ce 7B68     		ldr	r3, [r7, #4]
 443 01d0 9A42     		cmp	r2, r3
 444 01d2 FFF631AF 		blt	.L17
 124:..\src/Encoder_functions.c ****         }
ARM GAS  C:\Users\mgnocco\AppData\Local\Temp\ccMnT5Cc.s 			page 11


 125:..\src/Encoder_functions.c ****     }
 126:..\src/Encoder_functions.c **** }...
 445              		.loc 1 126 0 is_stmt 1
 446 01d6 00BF     		nop
 447 01d8 1837     		adds	r7, r7, #24
 448              		.cfi_def_cfa_offset 8
 449 01da BD46     		mov	sp, r7
 450              		.cfi_def_cfa_register 13
 451              		@ sp needed
 452 01dc 80BD     		pop	{r7, pc}
 453              	.L20:
 454 01de 00BF     		.align	2
 455              	.L19:
 456 01e0 00000000 		.word	Encoder_Value
 457 01e4 00000000 		.word	Encoder_Check
 458              		.cfi_endproc
 459              	.LFE68:
 460              		.size	ReadEncoderLine, .-ReadEncoderLine
 461              		.text
 462              	.Letext0:
 463              		.file 2 "c:\\program files (x86)\\cypress\\psoc creator\\4.4\\psoc creator\\import\\gnu\\arm\\5.4.
 464              		.file 3 "c:\\program files (x86)\\cypress\\psoc creator\\4.4\\psoc creator\\import\\gnu\\arm\\5.4.
 465              		.file 4 "Generated_Source\\PSoC5/cytypes.h"
 466              		.file 5 "Generated_Source\\PSoC5/core_cm3.h"
 467              		.file 6 "..\\src\\globals.h"