ARM GAS  C:\Users\mgnocco\AppData\Local\Temp\ccuVecaK.s 			page 1


   1              		.syntax unified
   2              		.cpu cortex-m3
   3              		.fpu softvfp
   4              		.eabi_attribute 20, 1
   5              		.eabi_attribute 21, 1
   6              		.eabi_attribute 23, 3
   7              		.eabi_attribute 24, 1
   8              		.eabi_attribute 25, 1
   9              		.eabi_attribute 26, 1
  10              		.eabi_attribute 30, 6
  11              		.eabi_attribute 34, 1
  12              		.eabi_attribute 18, 4
  13              		.thumb
  14              		.syntax unified
  15              		.file	"interruptions.c"
  16              		.text
  17              	.Ltext0:
  18              		.cfi_sections	.debug_frame
  19              		.section	.rodata
  20              		.align	2
  21              		.type	pwm_preload_values, %object
  22              		.size	pwm_preload_values, 29
  23              	pwm_preload_values:
  24 0000 64       		.byte	100
  25 0001 53       		.byte	83
  26 0002 4E       		.byte	78
  27 0003 4C       		.byte	76
  28 0004 4A       		.byte	74
  29 0005 48       		.byte	72
  30 0006 46       		.byte	70
  31 0007 44       		.byte	68
  32 0008 43       		.byte	67
  33 0009 41       		.byte	65
  34 000a 40       		.byte	64
  35 000b 3F       		.byte	63
  36 000c 3E       		.byte	62
  37 000d 3D       		.byte	61
  38 000e 3C       		.byte	60
  39 000f 3B       		.byte	59
  40 0010 3A       		.byte	58
  41 0011 39       		.byte	57
  42 0012 38       		.byte	56
  43 0013 38       		.byte	56
  44 0014 37       		.byte	55
  45 0015 36       		.byte	54
  46 0016 36       		.byte	54
  47 0017 35       		.byte	53
  48 0018 34       		.byte	52
  49 0019 34       		.byte	52
  50 001a 34       		.byte	52
  51 001b 33       		.byte	51
  52 001c 33       		.byte	51
  53              		.section	.text.ISR_RS485_RX_ExInterrupt,"ax",%progbits
  54              		.align	2
  55              		.global	ISR_RS485_RX_ExInterrupt
  56              		.thumb
  57              		.thumb_func
ARM GAS  C:\Users\mgnocco\AppData\Local\Temp\ccuVecaK.s 			page 2


  58              		.type	ISR_RS485_RX_ExInterrupt, %function
  59              	ISR_RS485_RX_ExInterrupt:
  60              	.LFB64:
  61              		.file 1 "..\\src\\interruptions.c"
   1:..\src/interruptions.c **** // ----------------------------------------------------------------------------
   2:..\src/interruptions.c **** // BSD 3-Clause License
   3:..\src/interruptions.c **** 
   4:..\src/interruptions.c **** // Copyright (c) 2016, qbrobotics
   5:..\src/interruptions.c **** // Copyright (c) 2017-2020, Centro "E.Piaggio"
   6:..\src/interruptions.c **** // All rights reserved.
   7:..\src/interruptions.c **** 
   8:..\src/interruptions.c **** // Redistribution and use in source and binary forms, with or without
   9:..\src/interruptions.c **** // modification, are permitted provided that the following conditions are met:
  10:..\src/interruptions.c **** 
  11:..\src/interruptions.c **** // * Redistributions of source code must retain the above copyright notice, this
  12:..\src/interruptions.c **** //   list of conditions and the following disclaimer.
  13:..\src/interruptions.c **** 
  14:..\src/interruptions.c **** // * Redistributions in binary form must reproduce the above copyright notice,
  15:..\src/interruptions.c **** //   this list of conditions and the following disclaimer in the documentation
  16:..\src/interruptions.c **** //   and/or other materials provided with the distribution.
  17:..\src/interruptions.c **** 
  18:..\src/interruptions.c **** // * Neither the name of the copyright holder nor the names of its
  19:..\src/interruptions.c **** //   contributors may be used to endorse or promote products derived from
  20:..\src/interruptions.c **** //   this software without specific prior written permission.
  21:..\src/interruptions.c **** 
  22:..\src/interruptions.c **** // THIS SOFTWARE IS PROVIDED BY THE COPYRIGHT HOLDERS AND CONTRIBUTORS "AS IS"
  23:..\src/interruptions.c **** // AND ANY EXPRESS OR IMPLIED WARRANTIES, INCLUDING, BUT NOT LIMITED TO, THE
  24:..\src/interruptions.c **** // IMPLIED WARRANTIES OF MERCHANTABILITY AND FITNESS FOR A PARTICULAR PURPOSE ARE
  25:..\src/interruptions.c **** // DISCLAIMED. IN NO EVENT SHALL THE COPYRIGHT HOLDER OR CONTRIBUTORS BE LIABLE
  26:..\src/interruptions.c **** // FOR ANY DIRECT, INDIRECT, INCIDENTAL, SPECIAL, EXEMPLARY, OR CONSEQUENTIAL
  27:..\src/interruptions.c **** // DAMAGES (INCLUDING, BUT NOT LIMITED TO, PROCUREMENT OF SUBSTITUTE GOODS OR
  28:..\src/interruptions.c **** // SERVICES; LOSS OF USE, DATA, OR PROFITS; OR BUSINESS INTERRUPTION) HOWEVER
  29:..\src/interruptions.c **** // CAUSED AND ON ANY THEORY OF LIABILITY, WHETHER IN CONTRACT, STRICT LIABILITY,
  30:..\src/interruptions.c **** // OR TORT (INCLUDING NEGLIGENCE OR OTHERWISE) ARISING IN ANY WAY OUT OF THE USE
  31:..\src/interruptions.c **** // OF THIS SOFTWARE, EVEN IF ADVISED OF THE POSSIBILITY OF SUCH DAMAGE.
  32:..\src/interruptions.c **** // POSSIBILITY OF SUCH DAMAGE.
  33:..\src/interruptions.c **** // ----------------------------------------------------------------------------
  34:..\src/interruptions.c **** 
  35:..\src/interruptions.c **** /**
  36:..\src/interruptions.c **** * \file         interruptions.c
  37:..\src/interruptions.c **** *
  38:..\src/interruptions.c **** * \brief        Interruption handling and firmware core functions
  39:..\src/interruptions.c **** * \date         March 20th, 2020
  40:..\src/interruptions.c **** * \author       _Centro "E.Piaggio"_
  41:..\src/interruptions.c **** * \copyright    (C) 2012-2016 qbrobotics. All rights reserved.
  42:..\src/interruptions.c **** * \copyright    (C) 2017-2020 Centro "E.Piaggio". All rights reserved.
  43:..\src/interruptions.c **** */
  44:..\src/interruptions.c **** 
  45:..\src/interruptions.c **** 
  46:..\src/interruptions.c **** //=================================================================     includes
  47:..\src/interruptions.c **** #include "interruptions.h"
  48:..\src/interruptions.c **** 
  49:..\src/interruptions.c **** //==============================================================================
  50:..\src/interruptions.c **** //                                                            RS485 RX INTERRUPT
  51:..\src/interruptions.c **** //==============================================================================
  52:..\src/interruptions.c **** // Processing RS-485 data frame:
  53:..\src/interruptions.c **** //
ARM GAS  C:\Users\mgnocco\AppData\Local\Temp\ccuVecaK.s 			page 3


  54:..\src/interruptions.c **** // - 0:     Waits for beginning characters
  55:..\src/interruptions.c **** // - 1:     Waits for ID;
  56:..\src/interruptions.c **** // - 2:     Data length;
  57:..\src/interruptions.c **** // - 3:     Receive all bytes;
  58:..\src/interruptions.c **** // - 4:     Wait for another device end of transmission;
  59:..\src/interruptions.c **** //
  60:..\src/interruptions.c **** //==============================================================================
  61:..\src/interruptions.c **** 
  62:..\src/interruptions.c **** // PWM values needed to obtain 11.5 V given a certain input tension
  63:..\src/interruptions.c **** // Numbers are sperimentally calculated //[index] (millivolts)
  64:..\src/interruptions.c **** static const uint8 pwm_preload_values[29] = {100,    //0 (11500)
  65:..\src/interruptions.c ****                                               83,
  66:..\src/interruptions.c ****                                               78,
  67:..\src/interruptions.c ****                                               76,
  68:..\src/interruptions.c ****                                               74,
  69:..\src/interruptions.c ****                                               72,    //5 (14000)
  70:..\src/interruptions.c ****                                               70,
  71:..\src/interruptions.c ****                                               68,
  72:..\src/interruptions.c ****                                               67,
  73:..\src/interruptions.c ****                                               65,
  74:..\src/interruptions.c ****                                               64,    //10 (16500)
  75:..\src/interruptions.c ****                                               63,
  76:..\src/interruptions.c ****                                               62,
  77:..\src/interruptions.c ****                                               61,
  78:..\src/interruptions.c ****                                               60,
  79:..\src/interruptions.c ****                                               59,    //15 (19000)
  80:..\src/interruptions.c ****                                               58,
  81:..\src/interruptions.c ****                                               57,
  82:..\src/interruptions.c ****                                               56,
  83:..\src/interruptions.c ****                                               56,
  84:..\src/interruptions.c ****                                               55,    //20 (21500)
  85:..\src/interruptions.c ****                                               54,
  86:..\src/interruptions.c ****                                               54,
  87:..\src/interruptions.c ****                                               53,
  88:..\src/interruptions.c ****                                               52,
  89:..\src/interruptions.c ****                                               52,    //25 (24000)
  90:..\src/interruptions.c ****                                               52,
  91:..\src/interruptions.c ****                                               51,
  92:..\src/interruptions.c ****                                               51};   //28 (25500)
  93:..\src/interruptions.c **** 
  94:..\src/interruptions.c **** //==============================================================================
  95:..\src/interruptions.c **** //                                                            RS485 RX INTERRUPT
  96:..\src/interruptions.c **** //==============================================================================
  97:..\src/interruptions.c **** 
  98:..\src/interruptions.c **** CY_ISR(ISR_RS485_RX_ExInterrupt) {
  62              		.loc 1 98 0
  63              		.cfi_startproc
  64              		@ args = 0, pretend = 0, frame = 0
  65              		@ frame_needed = 1, uses_anonymous_args = 0
  66              		@ link register save eliminated.
  67 0000 80B4     		push	{r7}
  68              		.cfi_def_cfa_offset 4
  69              		.cfi_offset 7, -4
  70 0002 00AF     		add	r7, sp, #0
  71              		.cfi_def_cfa_register 7
  99:..\src/interruptions.c **** 
 100:..\src/interruptions.c ****     // Set RS485 flag
ARM GAS  C:\Users\mgnocco\AppData\Local\Temp\ccuVecaK.s 			page 4


 101:..\src/interruptions.c ****     
 102:..\src/interruptions.c ****     interrupt_flag = TRUE;
  72              		.loc 1 102 0
  73 0004 034B     		ldr	r3, .L2
  74 0006 0122     		movs	r2, #1
  75 0008 1A70     		strb	r2, [r3]
 103:..\src/interruptions.c ****      
 104:..\src/interruptions.c **** }
  76              		.loc 1 104 0
  77 000a 00BF     		nop
  78 000c BD46     		mov	sp, r7
  79              		.cfi_def_cfa_register 13
  80              		@ sp needed
  81 000e 80BC     		pop	{r7}
  82              		.cfi_restore 7
  83              		.cfi_def_cfa_offset 0
  84 0010 7047     		bx	lr
  85              	.L3:
  86 0012 00BF     		.align	2
  87              	.L2:
  88 0014 00000000 		.word	interrupt_flag
  89              		.cfi_endproc
  90              	.LFE64:
  91              		.size	ISR_RS485_RX_ExInterrupt, .-ISR_RS485_RX_ExInterrupt
  92              		.section	.text.ISR_CYCLES_Handler,"ax",%progbits
  93              		.align	2
  94              		.global	ISR_CYCLES_Handler
  95              		.thumb
  96              		.thumb_func
  97              		.type	ISR_CYCLES_Handler, %function
  98              	ISR_CYCLES_Handler:
  99              	.LFB65:
 105:..\src/interruptions.c **** 
 106:..\src/interruptions.c **** //==============================================================================
 107:..\src/interruptions.c **** //                                                        CYCLES TIMER INTERRUPT
 108:..\src/interruptions.c **** //==============================================================================
 109:..\src/interruptions.c **** CY_ISR(ISR_CYCLES_Handler){
 100              		.loc 1 109 0
 101              		.cfi_startproc
 102              		@ args = 0, pretend = 0, frame = 0
 103              		@ frame_needed = 1, uses_anonymous_args = 0
 104              		@ link register save eliminated.
 105 0000 80B4     		push	{r7}
 106              		.cfi_def_cfa_offset 4
 107              		.cfi_offset 7, -4
 108 0002 00AF     		add	r7, sp, #0
 109              		.cfi_def_cfa_register 7
 110:..\src/interruptions.c **** 
 111:..\src/interruptions.c ****     // Set cycles interrupt flag
 112:..\src/interruptions.c ****     
 113:..\src/interruptions.c ****     cycles_interrupt_flag = TRUE;
 110              		.loc 1 113 0
 111 0004 044B     		ldr	r3, .L5
 112 0006 0122     		movs	r2, #1
 113 0008 1A70     		strb	r2, [r3]
 114:..\src/interruptions.c ****     
 115:..\src/interruptions.c ****     CYCLES_TIMER_STATUS;
ARM GAS  C:\Users\mgnocco\AppData\Local\Temp\ccuVecaK.s 			page 5


 114              		.loc 1 115 0
 115 000a 044B     		ldr	r3, .L5+4
 116 000c 1B78     		ldrb	r3, [r3]
 116:..\src/interruptions.c **** 
 117:..\src/interruptions.c **** }
 117              		.loc 1 117 0
 118 000e 00BF     		nop
 119 0010 BD46     		mov	sp, r7
 120              		.cfi_def_cfa_register 13
 121              		@ sp needed
 122 0012 80BC     		pop	{r7}
 123              		.cfi_restore 7
 124              		.cfi_def_cfa_offset 0
 125 0014 7047     		bx	lr
 126              	.L6:
 127 0016 00BF     		.align	2
 128              	.L5:
 129 0018 00000000 		.word	cycles_interrupt_flag
 130 001c 034F0040 		.word	1073762051
 131              		.cfi_endproc
 132              	.LFE65:
 133              		.size	ISR_CYCLES_Handler, .-ISR_CYCLES_Handler
 134              		.section	.text.interrupt_manager,"ax",%progbits
 135              		.align	2
 136              		.global	interrupt_manager
 137              		.thumb
 138              		.thumb_func
 139              		.type	interrupt_manager, %function
 140              	interrupt_manager:
 141              	.LFB66:
 118:..\src/interruptions.c **** 
 119:..\src/interruptions.c **** //==============================================================================
 120:..\src/interruptions.c **** //                                                             INTERRUPT MANAGER
 121:..\src/interruptions.c **** //==============================================================================
 122:..\src/interruptions.c **** // Manage interrupt from RS485 
 123:..\src/interruptions.c **** //==============================================================================
 124:..\src/interruptions.c **** // Processing RS-485 data frame:
 125:..\src/interruptions.c **** //
 126:..\src/interruptions.c **** // - WAIT_START:    Waits for beginning characters;
 127:..\src/interruptions.c **** // - WAIT_ID:       Waits for ID;
 128:..\src/interruptions.c **** // - WAIT_LENGTH:   Data length;
 129:..\src/interruptions.c **** // - RECEIVE:       Receive all bytes;
 130:..\src/interruptions.c **** // - UNLOAD:        Wait for another device end of transmission;
 131:..\src/interruptions.c **** //
 132:..\src/interruptions.c **** //==============================================================================
 133:..\src/interruptions.c **** 
 134:..\src/interruptions.c **** void interrupt_manager(){
 142              		.loc 1 134 0
 143              		.cfi_startproc
 144              		@ args = 0, pretend = 0, frame = 8
 145              		@ frame_needed = 1, uses_anonymous_args = 0
 146 0000 80B5     		push	{r7, lr}
 147              		.cfi_def_cfa_offset 8
 148              		.cfi_offset 7, -8
 149              		.cfi_offset 14, -4
 150 0002 82B0     		sub	sp, sp, #8
 151              		.cfi_def_cfa_offset 16
ARM GAS  C:\Users\mgnocco\AppData\Local\Temp\ccuVecaK.s 			page 6


 152 0004 00AF     		add	r7, sp, #0
 153              		.cfi_def_cfa_register 7
 135:..\src/interruptions.c **** 
 136:..\src/interruptions.c ****     
 137:..\src/interruptions.c ****     //===========================================     local variables definition
 138:..\src/interruptions.c **** 
 139:..\src/interruptions.c ****     static uint8 CYDATA state = WAIT_START;                      // state
 140:..\src/interruptions.c ****     
 141:..\src/interruptions.c ****     //------------------------------------------------- local data packet
 142:..\src/interruptions.c ****     static uint8 CYDATA data_packet_index;
 143:..\src/interruptions.c ****     static uint8 CYDATA data_packet_length;
 144:..\src/interruptions.c ****     static uint8 data_packet_buffer[128];                     
 145:..\src/interruptions.c ****     static uint8 CYDATA rx_queue[3];                    // last 2 bytes received
 146:..\src/interruptions.c ****     //-------------------------------------------------
 147:..\src/interruptions.c **** 
 148:..\src/interruptions.c ****     uint8 CYDATA    rx_data;                            // RS485 UART rx data
 149:..\src/interruptions.c ****     CYBIT           rx_data_type = TRUE;                       // my id?
 154              		.loc 1 149 0
 155 0006 0123     		movs	r3, #1
 156 0008 FB71     		strb	r3, [r7, #7]
 150:..\src/interruptions.c ****     uint8 CYDATA    package_count = 0;                     
 157              		.loc 1 150 0
 158 000a 0023     		movs	r3, #0
 159 000c BB71     		strb	r3, [r7, #6]
 151:..\src/interruptions.c **** 
 152:..\src/interruptions.c ****     //======================================================     receive routine
 153:..\src/interruptions.c ****     
 154:..\src/interruptions.c ****     while(UART_RS485_GetRxBufferSize() && (package_count < 100)){
 160              		.loc 1 154 0
 161 000e D6E0     		b	.L8
 162              	.L28:
 155:..\src/interruptions.c ****         // 100 - estimated maximum number of packets we can read without blocking firmware executio
 156:..\src/interruptions.c **** 
 157:..\src/interruptions.c ****         // Get next char
 158:..\src/interruptions.c ****         rx_data = UART_RS485_GetChar();
 163              		.loc 1 158 0
 164 0010 FFF7FEFF 		bl	UART_RS485_GetChar
 165 0014 0346     		mov	r3, r0
 166 0016 7B71     		strb	r3, [r7, #5]
 159:..\src/interruptions.c ****         
 160:..\src/interruptions.c ****         switch (state) {
 167              		.loc 1 160 0
 168 0018 6F4B     		ldr	r3, .L31
 169 001a 1B78     		ldrb	r3, [r3]	@ zero_extendqisi2
 170 001c 042B     		cmp	r3, #4
 171 001e 00F2CE80 		bhi	.L8
 172 0022 01A2     		adr	r2, .L10
 173 0024 52F823F0 		ldr	pc, [r2, r3, lsl #2]
 174              		.p2align 2
 175              	.L10:
 176 0028 3D000000 		.word	.L9+1
 177 002c A3000000 		.word	.L11+1
 178 0030 CD000000 		.word	.L12+1
 179 0034 1B010000 		.word	.L13+1
 180 0038 85010000 		.word	.L14+1
 181              		.p2align 1
 182              	.L9:
ARM GAS  C:\Users\mgnocco\AppData\Local\Temp\ccuVecaK.s 			page 7


 161:..\src/interruptions.c ****             //-----     wait for frame start     -------------------------------
 162:..\src/interruptions.c ****             case WAIT_START:
 163:..\src/interruptions.c ****             
 164:..\src/interruptions.c ****                 rx_queue[0] = rx_queue[1];
 183              		.loc 1 164 0
 184 003c 674B     		ldr	r3, .L31+4
 185 003e 5A78     		ldrb	r2, [r3, #1]	@ zero_extendqisi2
 186 0040 664B     		ldr	r3, .L31+4
 187 0042 1A70     		strb	r2, [r3]
 165:..\src/interruptions.c ****                 rx_queue[1] = rx_queue[2];
 188              		.loc 1 165 0
 189 0044 654B     		ldr	r3, .L31+4
 190 0046 9A78     		ldrb	r2, [r3, #2]	@ zero_extendqisi2
 191 0048 644B     		ldr	r3, .L31+4
 192 004a 5A70     		strb	r2, [r3, #1]
 166:..\src/interruptions.c ****                 rx_queue[2] = rx_data;
 193              		.loc 1 166 0
 194 004c 634A     		ldr	r2, .L31+4
 195 004e 7B79     		ldrb	r3, [r7, #5]
 196 0050 9370     		strb	r3, [r2, #2]
 167:..\src/interruptions.c ****                 
 168:..\src/interruptions.c ****                 // Check for header configuration package
 169:..\src/interruptions.c ****                 if ((rx_queue[1] == 58) && (rx_queue[2] == 58)) {
 197              		.loc 1 169 0
 198 0052 624B     		ldr	r3, .L31+4
 199 0054 5B78     		ldrb	r3, [r3, #1]	@ zero_extendqisi2
 200 0056 3A2B     		cmp	r3, #58
 201 0058 10D1     		bne	.L15
 202              		.loc 1 169 0 is_stmt 0 discriminator 1
 203 005a 604B     		ldr	r3, .L31+4
 204 005c 9B78     		ldrb	r3, [r3, #2]	@ zero_extendqisi2
 205 005e 3A2B     		cmp	r3, #58
 206 0060 0CD1     		bne	.L15
 170:..\src/interruptions.c ****                     rx_queue[0] = 0;
 207              		.loc 1 170 0 is_stmt 1
 208 0062 5E4B     		ldr	r3, .L31+4
 209 0064 0022     		movs	r2, #0
 210 0066 1A70     		strb	r2, [r3]
 171:..\src/interruptions.c ****                     rx_queue[1] = 0;
 211              		.loc 1 171 0
 212 0068 5C4B     		ldr	r3, .L31+4
 213 006a 0022     		movs	r2, #0
 214 006c 5A70     		strb	r2, [r3, #1]
 172:..\src/interruptions.c ****                     rx_queue[2] = 0;
 215              		.loc 1 172 0
 216 006e 5B4B     		ldr	r3, .L31+4
 217 0070 0022     		movs	r2, #0
 218 0072 9A70     		strb	r2, [r3, #2]
 173:..\src/interruptions.c ****                     state       = WAIT_ID;                    
 219              		.loc 1 173 0
 220 0074 584B     		ldr	r3, .L31
 221 0076 0122     		movs	r2, #1
 222 0078 1A70     		strb	r2, [r3]
 223 007a 11E0     		b	.L16
 224              	.L15:
 174:..\src/interruptions.c ****                 }else
 175:..\src/interruptions.c ****                     if ((rx_queue[0] == 63) &&      //ASCII - ?
ARM GAS  C:\Users\mgnocco\AppData\Local\Temp\ccuVecaK.s 			page 8


 225              		.loc 1 175 0
 226 007c 574B     		ldr	r3, .L31+4
 227 007e 1B78     		ldrb	r3, [r3]	@ zero_extendqisi2
 228 0080 3F2B     		cmp	r3, #63
 229 0082 40F09C80 		bne	.L8
 176:..\src/interruptions.c ****                         (rx_queue[1] == 13) &&      //ASCII - CR
 230              		.loc 1 176 0 discriminator 1
 231 0086 554B     		ldr	r3, .L31+4
 232 0088 5B78     		ldrb	r3, [r3, #1]	@ zero_extendqisi2
 175:..\src/interruptions.c ****                         (rx_queue[1] == 13) &&      //ASCII - CR
 233              		.loc 1 175 0 discriminator 1
 234 008a 0D2B     		cmp	r3, #13
 235 008c 40F09780 		bne	.L8
 177:..\src/interruptions.c ****                         (rx_queue[2] == 10))        //ASCII - LF)
 236              		.loc 1 177 0
 237 0090 524B     		ldr	r3, .L31+4
 238 0092 9B78     		ldrb	r3, [r3, #2]	@ zero_extendqisi2
 176:..\src/interruptions.c ****                         (rx_queue[1] == 13) &&      //ASCII - CR
 239              		.loc 1 176 0
 240 0094 0A2B     		cmp	r3, #10
 241 0096 40F09280 		bne	.L8
 178:..\src/interruptions.c ****                         infoGet(INFO_ALL);
 242              		.loc 1 178 0
 243 009a 0020     		movs	r0, #0
 244 009c FFF7FEFF 		bl	infoGet
 245              	.L16:
 179:..\src/interruptions.c ****                 break;
 246              		.loc 1 179 0
 247 00a0 8DE0     		b	.L8
 248              	.L11:
 180:..\src/interruptions.c **** 
 181:..\src/interruptions.c ****             //-----     wait for id     ----------------------------------------
 182:..\src/interruptions.c ****             case  WAIT_ID:
 183:..\src/interruptions.c **** 
 184:..\src/interruptions.c ****                 // packet is for my ID or is broadcast
 185:..\src/interruptions.c **** #ifdef MASTER_FW
 186:..\src/interruptions.c ****                 if (rx_data == c_mem.dev.id || rx_data == 0 || (c_mem.MS.slave_comm_active && rx_da
 187:..\src/interruptions.c ****                    rx_data_type = FALSE;
 188:..\src/interruptions.c ****                 else                //packet is for others
 189:..\src/interruptions.c ****                     rx_data_type = TRUE;
 190:..\src/interruptions.c **** #else
 191:..\src/interruptions.c ****                 if (rx_data == c_mem.dev.id || rx_data == 0)
 249              		.loc 1 191 0
 250 00a2 4F4B     		ldr	r3, .L31+8
 251 00a4 93F8A030 		ldrb	r3, [r3, #160]	@ zero_extendqisi2
 252 00a8 7A79     		ldrb	r2, [r7, #5]	@ zero_extendqisi2
 253 00aa 9A42     		cmp	r2, r3
 254 00ac 02D0     		beq	.L17
 255              		.loc 1 191 0 is_stmt 0 discriminator 1
 256 00ae 7B79     		ldrb	r3, [r7, #5]	@ zero_extendqisi2
 257 00b0 002B     		cmp	r3, #0
 258 00b2 02D1     		bne	.L18
 259              	.L17:
 192:..\src/interruptions.c ****                     rx_data_type = FALSE;
 260              		.loc 1 192 0 is_stmt 1
 261 00b4 0023     		movs	r3, #0
 262 00b6 FB71     		strb	r3, [r7, #7]
ARM GAS  C:\Users\mgnocco\AppData\Local\Temp\ccuVecaK.s 			page 9


 263 00b8 01E0     		b	.L19
 264              	.L18:
 193:..\src/interruptions.c ****                 else                //packet is for others
 194:..\src/interruptions.c ****                     rx_data_type = TRUE;
 265              		.loc 1 194 0
 266 00ba 0123     		movs	r3, #1
 267 00bc FB71     		strb	r3, [r7, #7]
 268              	.L19:
 195:..\src/interruptions.c **** #endif                
 196:..\src/interruptions.c ****                 data_packet_length = 0;
 269              		.loc 1 196 0
 270 00be 494B     		ldr	r3, .L31+12
 271 00c0 0022     		movs	r2, #0
 272 00c2 1A70     		strb	r2, [r3]
 197:..\src/interruptions.c ****                 state = WAIT_LENGTH;
 273              		.loc 1 197 0
 274 00c4 444B     		ldr	r3, .L31
 275 00c6 0222     		movs	r2, #2
 276 00c8 1A70     		strb	r2, [r3]
 198:..\src/interruptions.c ****                 break;
 277              		.loc 1 198 0
 278 00ca 78E0     		b	.L8
 279              	.L12:
 199:..\src/interruptions.c **** 
 200:..\src/interruptions.c ****             //-----     wait for length     ------------------------------------
 201:..\src/interruptions.c ****             case  WAIT_LENGTH:
 202:..\src/interruptions.c **** 
 203:..\src/interruptions.c ****                 data_packet_length = rx_data;
 280              		.loc 1 203 0
 281 00cc 454A     		ldr	r2, .L31+12
 282 00ce 7B79     		ldrb	r3, [r7, #5]
 283 00d0 1370     		strb	r3, [r2]
 204:..\src/interruptions.c ****                 // check validity of pack length
 205:..\src/interruptions.c ****                 if (data_packet_length <= 1) {
 284              		.loc 1 205 0
 285 00d2 444B     		ldr	r3, .L31+12
 286 00d4 1B78     		ldrb	r3, [r3]	@ zero_extendqisi2
 287 00d6 012B     		cmp	r3, #1
 288 00d8 06D8     		bhi	.L20
 206:..\src/interruptions.c ****                     data_packet_length = 0;
 289              		.loc 1 206 0
 290 00da 424B     		ldr	r3, .L31+12
 291 00dc 0022     		movs	r2, #0
 292 00de 1A70     		strb	r2, [r3]
 207:..\src/interruptions.c ****                     state = WAIT_START;
 293              		.loc 1 207 0
 294 00e0 3D4B     		ldr	r3, .L31
 295 00e2 0022     		movs	r2, #0
 296 00e4 1A70     		strb	r2, [r3]
 297 00e6 6AE0     		b	.L8
 298              	.L20:
 208:..\src/interruptions.c ****                 } else if (data_packet_length > 128) {
 299              		.loc 1 208 0
 300 00e8 3E4B     		ldr	r3, .L31+12
 301 00ea 1B78     		ldrb	r3, [r3]	@ zero_extendqisi2
 302 00ec 802B     		cmp	r3, #128
 303 00ee 06D9     		bls	.L22
ARM GAS  C:\Users\mgnocco\AppData\Local\Temp\ccuVecaK.s 			page 10


 209:..\src/interruptions.c ****                     data_packet_length = 0;
 304              		.loc 1 209 0
 305 00f0 3C4B     		ldr	r3, .L31+12
 306 00f2 0022     		movs	r2, #0
 307 00f4 1A70     		strb	r2, [r3]
 210:..\src/interruptions.c ****                     state = WAIT_START;
 308              		.loc 1 210 0
 309 00f6 384B     		ldr	r3, .L31
 310 00f8 0022     		movs	r2, #0
 311 00fa 1A70     		strb	r2, [r3]
 312 00fc 5FE0     		b	.L8
 313              	.L22:
 211:..\src/interruptions.c ****                 } else {
 212:..\src/interruptions.c ****                     data_packet_index = 0;
 314              		.loc 1 212 0
 315 00fe 3A4B     		ldr	r3, .L31+16
 316 0100 0022     		movs	r2, #0
 317 0102 1A70     		strb	r2, [r3]
 213:..\src/interruptions.c ****                     
 214:..\src/interruptions.c ****                     if(rx_data_type == FALSE)
 318              		.loc 1 214 0
 319 0104 FB79     		ldrb	r3, [r7, #7]	@ zero_extendqisi2
 320 0106 002B     		cmp	r3, #0
 321 0108 03D1     		bne	.L23
 215:..\src/interruptions.c ****                         state = RECEIVE;          // packet for me or broadcast
 322              		.loc 1 215 0
 323 010a 334B     		ldr	r3, .L31
 324 010c 0322     		movs	r2, #3
 325 010e 1A70     		strb	r2, [r3]
 326 0110 55E0     		b	.L8
 327              	.L23:
 216:..\src/interruptions.c ****                     else
 217:..\src/interruptions.c ****                         state = UNLOAD;           // packet for others
 328              		.loc 1 217 0
 329 0112 314B     		ldr	r3, .L31
 330 0114 0422     		movs	r2, #4
 331 0116 1A70     		strb	r2, [r3]
 218:..\src/interruptions.c ****                 }
 219:..\src/interruptions.c ****                 break;
 332              		.loc 1 219 0
 333 0118 51E0     		b	.L8
 334              	.L13:
 220:..\src/interruptions.c **** 
 221:..\src/interruptions.c ****             //-----     receiving     -------------------------------------------
 222:..\src/interruptions.c ****             case RECEIVE:
 223:..\src/interruptions.c **** 
 224:..\src/interruptions.c ****                 data_packet_buffer[data_packet_index] = rx_data;
 335              		.loc 1 224 0
 336 011a 334B     		ldr	r3, .L31+16
 337 011c 1B78     		ldrb	r3, [r3]	@ zero_extendqisi2
 338 011e 1946     		mov	r1, r3
 339 0120 324A     		ldr	r2, .L31+20
 340 0122 7B79     		ldrb	r3, [r7, #5]
 341 0124 5354     		strb	r3, [r2, r1]
 225:..\src/interruptions.c ****                 data_packet_index++;
 342              		.loc 1 225 0
 343 0126 304B     		ldr	r3, .L31+16
ARM GAS  C:\Users\mgnocco\AppData\Local\Temp\ccuVecaK.s 			page 11


 344 0128 1B78     		ldrb	r3, [r3]	@ zero_extendqisi2
 345 012a 0133     		adds	r3, r3, #1
 346 012c DAB2     		uxtb	r2, r3
 347 012e 2E4B     		ldr	r3, .L31+16
 348 0130 1A70     		strb	r2, [r3]
 226:..\src/interruptions.c ****                 
 227:..\src/interruptions.c ****                 // check end of transmission
 228:..\src/interruptions.c ****                 if (data_packet_index >= data_packet_length) {
 349              		.loc 1 228 0
 350 0132 2D4B     		ldr	r3, .L31+16
 351 0134 1A78     		ldrb	r2, [r3]	@ zero_extendqisi2
 352 0136 2B4B     		ldr	r3, .L31+12
 353 0138 1B78     		ldrb	r3, [r3]	@ zero_extendqisi2
 354 013a 9A42     		cmp	r2, r3
 355 013c 3FD3     		bcc	.L8
 229:..\src/interruptions.c ****                     // verify if frame ID corresponded to the device ID
 230:..\src/interruptions.c ****                     if (rx_data_type == FALSE) {
 356              		.loc 1 230 0
 357 013e FB79     		ldrb	r3, [r7, #7]	@ zero_extendqisi2
 358 0140 002B     		cmp	r3, #0
 359 0142 12D1     		bne	.L25
 231:..\src/interruptions.c ****                         // copying data from buffer to global packet
 232:..\src/interruptions.c ****                         memcpy(g_rx.buffer, data_packet_buffer, data_packet_length);
 360              		.loc 1 232 0
 361 0144 274B     		ldr	r3, .L31+12
 362 0146 1B78     		ldrb	r3, [r3]	@ zero_extendqisi2
 363 0148 1A46     		mov	r2, r3
 364 014a 2849     		ldr	r1, .L31+20
 365 014c 2848     		ldr	r0, .L31+24
 366 014e FFF7FEFF 		bl	memcpy
 233:..\src/interruptions.c ****                         g_rx.length = data_packet_length;
 367              		.loc 1 233 0
 368 0152 244B     		ldr	r3, .L31+12
 369 0154 1B78     		ldrb	r3, [r3]	@ zero_extendqisi2
 370 0156 1AB2     		sxth	r2, r3
 371 0158 254B     		ldr	r3, .L31+24
 372 015a A3F88020 		strh	r2, [r3, #128]	@ movhi
 234:..\src/interruptions.c ****                         g_rx.ready  = 1;
 373              		.loc 1 234 0
 374 015e 244B     		ldr	r3, .L31+24
 375 0160 0122     		movs	r2, #1
 376 0162 83F88420 		strb	r2, [r3, #132]
 235:..\src/interruptions.c ****                         commProcess();
 377              		.loc 1 235 0
 378 0166 FFF7FEFF 		bl	commProcess
 379              	.L25:
 236:..\src/interruptions.c ****                     }
 237:..\src/interruptions.c ****                     
 238:..\src/interruptions.c ****                     data_packet_index  = 0;
 380              		.loc 1 238 0
 381 016a 1F4B     		ldr	r3, .L31+16
 382 016c 0022     		movs	r2, #0
 383 016e 1A70     		strb	r2, [r3]
 239:..\src/interruptions.c ****                     data_packet_length = 0;
 384              		.loc 1 239 0
 385 0170 1C4B     		ldr	r3, .L31+12
 386 0172 0022     		movs	r2, #0
ARM GAS  C:\Users\mgnocco\AppData\Local\Temp\ccuVecaK.s 			page 12


 387 0174 1A70     		strb	r2, [r3]
 240:..\src/interruptions.c ****                     state              = WAIT_START;
 388              		.loc 1 240 0
 389 0176 184B     		ldr	r3, .L31
 390 0178 0022     		movs	r2, #0
 391 017a 1A70     		strb	r2, [r3]
 241:..\src/interruptions.c ****                     package_count++;
 392              		.loc 1 241 0
 393 017c BB79     		ldrb	r3, [r7, #6]	@ zero_extendqisi2
 394 017e 0133     		adds	r3, r3, #1
 395 0180 BB71     		strb	r3, [r7, #6]
 242:..\src/interruptions.c ****                 
 243:..\src/interruptions.c ****                 }
 244:..\src/interruptions.c ****                 break;
 396              		.loc 1 244 0
 397 0182 1CE0     		b	.L8
 398              	.L14:
 245:..\src/interruptions.c **** 
 246:..\src/interruptions.c ****             //-----     other device is receving     ---------------------------
 247:..\src/interruptions.c ****             case UNLOAD:
 248:..\src/interruptions.c ****                 if (!(--data_packet_length)) {
 399              		.loc 1 248 0
 400 0184 174B     		ldr	r3, .L31+12
 401 0186 1B78     		ldrb	r3, [r3]	@ zero_extendqisi2
 402 0188 013B     		subs	r3, r3, #1
 403 018a DAB2     		uxtb	r2, r3
 404 018c 154B     		ldr	r3, .L31+12
 405 018e 1A70     		strb	r2, [r3]
 406 0190 144B     		ldr	r3, .L31+12
 407 0192 1B78     		ldrb	r3, [r3]	@ zero_extendqisi2
 408 0194 002B     		cmp	r3, #0
 409 0196 11D1     		bne	.L30
 249:..\src/interruptions.c ****                     data_packet_index  = 0;
 410              		.loc 1 249 0
 411 0198 134B     		ldr	r3, .L31+16
 412 019a 0022     		movs	r2, #0
 413 019c 1A70     		strb	r2, [r3]
 250:..\src/interruptions.c ****                     data_packet_length = 0;
 414              		.loc 1 250 0
 415 019e 114B     		ldr	r3, .L31+12
 416 01a0 0022     		movs	r2, #0
 417 01a2 1A70     		strb	r2, [r3]
 251:..\src/interruptions.c ****                     RS485_CTS_Write(1);
 418              		.loc 1 251 0
 419 01a4 0120     		movs	r0, #1
 420 01a6 FFF7FEFF 		bl	RS485_CTS_Write
 252:..\src/interruptions.c ****                     RS485_CTS_Write(0);
 421              		.loc 1 252 0
 422 01aa 0020     		movs	r0, #0
 423 01ac FFF7FEFF 		bl	RS485_CTS_Write
 253:..\src/interruptions.c ****                     state              = WAIT_START;
 424              		.loc 1 253 0
 425 01b0 094B     		ldr	r3, .L31
 426 01b2 0022     		movs	r2, #0
 427 01b4 1A70     		strb	r2, [r3]
 254:..\src/interruptions.c ****                     package_count++;
 428              		.loc 1 254 0
ARM GAS  C:\Users\mgnocco\AppData\Local\Temp\ccuVecaK.s 			page 13


 429 01b6 BB79     		ldrb	r3, [r7, #6]	@ zero_extendqisi2
 430 01b8 0133     		adds	r3, r3, #1
 431 01ba BB71     		strb	r3, [r7, #6]
 432              	.L30:
 255:..\src/interruptions.c ****                 }
 256:..\src/interruptions.c ****                 break;
 433              		.loc 1 256 0
 434 01bc 00BF     		nop
 435              	.L8:
 154:..\src/interruptions.c ****         // 100 - estimated maximum number of packets we can read without blocking firmware executio
 436              		.loc 1 154 0
 437 01be FFF7FEFF 		bl	UART_RS485_GetRxBufferSize
 438 01c2 0346     		mov	r3, r0
 439 01c4 002B     		cmp	r3, #0
 440 01c6 03D0     		beq	.L29
 154:..\src/interruptions.c ****         // 100 - estimated maximum number of packets we can read without blocking firmware executio
 441              		.loc 1 154 0 is_stmt 0 discriminator 1
 442 01c8 BB79     		ldrb	r3, [r7, #6]	@ zero_extendqisi2
 443 01ca 632B     		cmp	r3, #99
 444 01cc 7FF620AF 		bls	.L28
 445              	.L29:
 257:..\src/interruptions.c ****         }
 258:..\src/interruptions.c ****     }
 259:..\src/interruptions.c **** }
 446              		.loc 1 259 0 is_stmt 1
 447 01d0 00BF     		nop
 448 01d2 0837     		adds	r7, r7, #8
 449              		.cfi_def_cfa_offset 8
 450 01d4 BD46     		mov	sp, r7
 451              		.cfi_def_cfa_register 13
 452              		@ sp needed
 453 01d6 80BD     		pop	{r7, pc}
 454              	.L32:
 455              		.align	2
 456              	.L31:
 457 01d8 00000000 		.word	state.9705
 458 01dc 04000000 		.word	rx_queue.9709
 459 01e0 00000000 		.word	c_mem
 460 01e4 07000000 		.word	data_packet_length.9707
 461 01e8 08000000 		.word	data_packet_index.9706
 462 01ec 0C000000 		.word	data_packet_buffer.9708
 463 01f0 00000000 		.word	g_rx
 464              		.cfi_endproc
 465              	.LFE66:
 466              		.size	interrupt_manager, .-interrupt_manager
 467              		.section	.text.function_scheduler,"ax",%progbits
 468              		.align	2
 469              		.global	function_scheduler
 470              		.thumb
 471              		.thumb_func
 472              		.type	function_scheduler, %function
 473              	function_scheduler:
 474              	.LFB67:
 260:..\src/interruptions.c **** //==============================================================================
 261:..\src/interruptions.c **** //                                                            FUNCTION SCHEDULER
 262:..\src/interruptions.c **** //==============================================================================
 263:..\src/interruptions.c **** // Call all the function with the right frequency
ARM GAS  C:\Users\mgnocco\AppData\Local\Temp\ccuVecaK.s 			page 14


 264:..\src/interruptions.c **** //==============================================================================
 265:..\src/interruptions.c **** // Base frequency 5000 Hz (110 us - max. 200 us cycle time)
 266:..\src/interruptions.c **** //==============================================================================
 267:..\src/interruptions.c **** 
 268:..\src/interruptions.c **** void function_scheduler(void) {
 475              		.loc 1 268 0
 476              		.cfi_startproc
 477              		@ args = 0, pretend = 0, frame = 0
 478              		@ frame_needed = 1, uses_anonymous_args = 0
 479 0000 80B5     		push	{r7, lr}
 480              		.cfi_def_cfa_offset 8
 481              		.cfi_offset 7, -8
 482              		.cfi_offset 14, -4
 483 0002 00AF     		add	r7, sp, #0
 484              		.cfi_def_cfa_register 7
 269:..\src/interruptions.c ****  
 270:..\src/interruptions.c **** 
 271:..\src/interruptions.c ****     MY_TIMER_REG_Write(0x00);
 485              		.loc 1 271 0
 486 0004 0020     		movs	r0, #0
 487 0006 FFF7FEFF 		bl	MY_TIMER_REG_Write
 272:..\src/interruptions.c ****     timer_value0 = (uint32)MY_TIMER_ReadCounter();
 488              		.loc 1 272 0
 489 000a FFF7FEFF 		bl	MY_TIMER_ReadCounter
 490 000e 0346     		mov	r3, r0
 491 0010 1A46     		mov	r2, r3
 492 0012 064B     		ldr	r3, .L36
 493 0014 1A80     		strh	r2, [r3]	@ movhi
 273:..\src/interruptions.c ****         
 274:..\src/interruptions.c ****     if (interrupt_flag){
 494              		.loc 1 274 0
 495 0016 064B     		ldr	r3, .L36+4
 496 0018 1B78     		ldrb	r3, [r3]	@ zero_extendqisi2
 497 001a 002B     		cmp	r3, #0
 498 001c 04D0     		beq	.L35
 275:..\src/interruptions.c ****         interrupt_flag = FALSE;
 499              		.loc 1 275 0
 500 001e 044B     		ldr	r3, .L36+4
 501 0020 0022     		movs	r2, #0
 502 0022 1A70     		strb	r2, [r3]
 276:..\src/interruptions.c ****         interrupt_manager();
 503              		.loc 1 276 0
 504 0024 FFF7FEFF 		bl	interrupt_manager
 505              	.L35:
 277:..\src/interruptions.c ****     }
 278:..\src/interruptions.c ****          
 279:..\src/interruptions.c ****     }
 506              		.loc 1 279 0
 507 0028 00BF     		nop
 508 002a 80BD     		pop	{r7, pc}
 509              	.L37:
 510              		.align	2
 511              	.L36:
 512 002c 00000000 		.word	timer_value0
 513 0030 00000000 		.word	interrupt_flag
 514              		.cfi_endproc
 515              	.LFE67:
ARM GAS  C:\Users\mgnocco\AppData\Local\Temp\ccuVecaK.s 			page 15


 516              		.size	function_scheduler, .-function_scheduler
 517              		.section	.text.motor_control_SH,"ax",%progbits
 518              		.align	2
 519              		.global	motor_control_SH
 520              		.thumb
 521              		.thumb_func
 522              		.type	motor_control_SH, %function
 523              	motor_control_SH:
 524              	.LFB68:
 280:..\src/interruptions.c ****     
 281:..\src/interruptions.c ****      
 282:..\src/interruptions.c ****    
 283:..\src/interruptions.c **** 
 284:..\src/interruptions.c **** void motor_control_SH() {
 525              		.loc 1 284 0
 526              		.cfi_startproc
 527              		@ args = 0, pretend = 0, frame = 16
 528              		@ frame_needed = 1, uses_anonymous_args = 0
 529 0000 80B5     		push	{r7, lr}
 530              		.cfi_def_cfa_offset 8
 531              		.cfi_offset 7, -8
 532              		.cfi_offset 14, -4
 533 0002 84B0     		sub	sp, sp, #16
 534              		.cfi_def_cfa_offset 24
 535 0004 00AF     		add	r7, sp, #0
 536              		.cfi_def_cfa_register 7
 285:..\src/interruptions.c **** 
 286:..\src/interruptions.c ****     int32 CYDATA pwm_input = 0;
 537              		.loc 1 286 0
 538 0006 0023     		movs	r3, #0
 539 0008 FB60     		str	r3, [r7, #12]
 287:..\src/interruptions.c ****     
 288:..\src/interruptions.c ****     uint8 MOTOR_IDX = 0;
 540              		.loc 1 288 0
 541 000a 0023     		movs	r3, #0
 542 000c FB72     		strb	r3, [r7, #11]
 289:..\src/interruptions.c ****     
 290:..\src/interruptions.c ****     struct st_motor* SH_MOT = &c_mem.motor[MOTOR_IDX];      // SoftHand default motor
 543              		.loc 1 290 0
 544 000e FA7A     		ldrb	r2, [r7, #11]	@ zero_extendqisi2
 545 0010 1346     		mov	r3, r2
 546 0012 DB00     		lsls	r3, r3, #3
 547 0014 9B1A     		subs	r3, r3, r2
 548 0016 1B01     		lsls	r3, r3, #4
 549 0018 B033     		adds	r3, r3, #176
 550 001a 374A     		ldr	r2, .L54
 551 001c 1344     		add	r3, r3, r2
 552 001e 7B60     		str	r3, [r7, #4]
 291:..\src/interruptions.c ****     uint8 SH_ENC_L = SH_MOT->encoder_line;          // Associated encoder line
 553              		.loc 1 291 0
 554 0020 7B68     		ldr	r3, [r7, #4]
 555 0022 93F86030 		ldrb	r3, [r3, #96]
 556 0026 FB70     		strb	r3, [r7, #3]
 292:..\src/interruptions.c ****     
 293:..\src/interruptions.c ****     
 294:..\src/interruptions.c **** 
 295:..\src/interruptions.c ****     // Static Variables
ARM GAS  C:\Users\mgnocco\AppData\Local\Temp\ccuVecaK.s 			page 16


 296:..\src/interruptions.c ****     static int32 prev_pwm;
 297:..\src/interruptions.c **** 
 298:..\src/interruptions.c ****    
 299:..\src/interruptions.c ****     static uint32 position_counter = 0;
 300:..\src/interruptions.c ****   
 301:..\src/interruptions.c ****     // ======================= UPDATE MOTOR REFERENCE ==========================            
 302:..\src/interruptions.c ****    
 303:..\src/interruptions.c ****      
 304:..\src/interruptions.c ****     switch(SH_MOT->control_mode) {
 557              		.loc 1 304 0
 558 0028 7B68     		ldr	r3, [r7, #4]
 559 002a 93F85F30 		ldrb	r3, [r3, #95]	@ zero_extendqisi2
 560 002e 032B     		cmp	r3, #3
 561 0030 1BD8     		bhi	.L39
 562 0032 01A2     		adr	r2, .L41
 563 0034 52F823F0 		ldr	pc, [r2, r3, lsl #2]
 564              		.p2align 2
 565              	.L41:
 566 0038 6B000000 		.word	.L39+1
 567 003c 49000000 		.word	.L42+1
 568 0040 6B000000 		.word	.L39+1
 569 0044 6B000000 		.word	.L39+1
 570              		.p2align 1
 571              	.L42:
 305:..\src/interruptions.c ****         // ======================= CURRENT AND POSITION CONTROL =======================
 306:..\src/interruptions.c ****         case CURR_AND_POS_CONTROL:
 307:..\src/interruptions.c ****         break;
 308:..\src/interruptions.c **** 
 309:..\src/interruptions.c ****         // ============================== POSITION CONTROL =====================
 310:..\src/interruptions.c ****         case CONTROL_ANGLE:
 311:..\src/interruptions.c ****         break;
 312:..\src/interruptions.c **** 
 313:..\src/interruptions.c ****         // ========================== CURRENT CONTROL ==========================
 314:..\src/interruptions.c ****         case CONTROL_CURRENT:
 315:..\src/interruptions.c ****         break;
 316:..\src/interruptions.c ****         
 317:..\src/interruptions.c ****         // ================= DIRECT PWM CONTROL ================================
 318:..\src/interruptions.c ****         case CONTROL_PWM:
 319:..\src/interruptions.c **** 
 320:..\src/interruptions.c ****             pwm_input = g_ref[0].pwm;
 572              		.loc 1 320 0
 573 0048 2C4B     		ldr	r3, .L54+4
 574 004a 9B68     		ldr	r3, [r3, #8]
 575 004c FB60     		str	r3, [r7, #12]
 321:..\src/interruptions.c **** 
 322:..\src/interruptions.c ****          
 323:..\src/interruptions.c **** 
 324:..\src/interruptions.c ****             // pwm_input saturation
 325:..\src/interruptions.c ****             if (pwm_input < -PWM_MAX_VALUE_DC) 
 576              		.loc 1 325 0
 577 004e FB68     		ldr	r3, [r7, #12]
 578 0050 13F1640F 		cmn	r3, #100
 579 0054 03DA     		bge	.L45
 326:..\src/interruptions.c ****                 pwm_input = -PWM_MAX_VALUE_DC;
 580              		.loc 1 326 0
 581 0056 6FF06303 		mvn	r3, #99
 582 005a FB60     		str	r3, [r7, #12]
ARM GAS  C:\Users\mgnocco\AppData\Local\Temp\ccuVecaK.s 			page 17


 327:..\src/interruptions.c ****             else {
 328:..\src/interruptions.c **** 				if (pwm_input > PWM_MAX_VALUE_DC) 
 329:..\src/interruptions.c ****                 	pwm_input = PWM_MAX_VALUE_DC;
 330:..\src/interruptions.c ****         	}
 331:..\src/interruptions.c **** 
 332:..\src/interruptions.c ****         break;
 583              		.loc 1 332 0
 584 005c 04E0     		b	.L53
 585              	.L45:
 328:..\src/interruptions.c ****                 	pwm_input = PWM_MAX_VALUE_DC;
 586              		.loc 1 328 0
 587 005e FB68     		ldr	r3, [r7, #12]
 588 0060 642B     		cmp	r3, #100
 589 0062 01DD     		ble	.L53
 329:..\src/interruptions.c ****         	}
 590              		.loc 1 329 0
 591 0064 6423     		movs	r3, #100
 592 0066 FB60     		str	r3, [r7, #12]
 593              	.L53:
 594              		.loc 1 332 0
 595 0068 00BF     		nop
 596              	.L39:
 333:..\src/interruptions.c ****             
 334:..\src/interruptions.c ****     }
 335:..\src/interruptions.c **** 
 336:..\src/interruptions.c ****     ////////////////////////////////////////////////////////////////////////////
 337:..\src/interruptions.c **** 
 338:..\src/interruptions.c **** 
 339:..\src/interruptions.c ****    
 340:..\src/interruptions.c ****     //// RATE LIMITER ////
 341:..\src/interruptions.c ****     if((pwm_input-prev_pwm) > SH_MOT->pwm_rate_limiter){
 597              		.loc 1 341 0
 598 006a 254B     		ldr	r3, .L54+8
 599 006c 1B68     		ldr	r3, [r3]
 600 006e FA68     		ldr	r2, [r7, #12]
 601 0070 D31A     		subs	r3, r2, r3
 602 0072 7A68     		ldr	r2, [r7, #4]
 603 0074 92F86120 		ldrb	r2, [r2, #97]	@ zero_extendqisi2
 604 0078 9342     		cmp	r3, r2
 605 007a 08DD     		ble	.L47
 342:..\src/interruptions.c ****         pwm_input =  prev_pwm + SH_MOT->pwm_rate_limiter;
 606              		.loc 1 342 0
 607 007c 7B68     		ldr	r3, [r7, #4]
 608 007e 93F86130 		ldrb	r3, [r3, #97]	@ zero_extendqisi2
 609 0082 1A46     		mov	r2, r3
 610 0084 1E4B     		ldr	r3, .L54+8
 611 0086 1B68     		ldr	r3, [r3]
 612 0088 1344     		add	r3, r3, r2
 613 008a FB60     		str	r3, [r7, #12]
 614 008c 10E0     		b	.L48
 615              	.L47:
 343:..\src/interruptions.c ****     }
 344:..\src/interruptions.c ****     else {
 345:..\src/interruptions.c ****         if((pwm_input-prev_pwm) < -SH_MOT->pwm_rate_limiter)
 616              		.loc 1 345 0
 617 008e 1C4B     		ldr	r3, .L54+8
 618 0090 1B68     		ldr	r3, [r3]
ARM GAS  C:\Users\mgnocco\AppData\Local\Temp\ccuVecaK.s 			page 18


 619 0092 FA68     		ldr	r2, [r7, #12]
 620 0094 D21A     		subs	r2, r2, r3
 621 0096 7B68     		ldr	r3, [r7, #4]
 622 0098 93F86130 		ldrb	r3, [r3, #97]	@ zero_extendqisi2
 623 009c 5B42     		negs	r3, r3
 624 009e 9A42     		cmp	r2, r3
 625 00a0 06DA     		bge	.L48
 346:..\src/interruptions.c ****             pwm_input =  prev_pwm - SH_MOT->pwm_rate_limiter;
 626              		.loc 1 346 0
 627 00a2 174B     		ldr	r3, .L54+8
 628 00a4 1B68     		ldr	r3, [r3]
 629 00a6 7A68     		ldr	r2, [r7, #4]
 630 00a8 92F86120 		ldrb	r2, [r2, #97]	@ zero_extendqisi2
 631 00ac 9B1A     		subs	r3, r3, r2
 632 00ae FB60     		str	r3, [r7, #12]
 633              	.L48:
 347:..\src/interruptions.c ****     }
 348:..\src/interruptions.c ****     
 349:..\src/interruptions.c ****     if(pwm_input >  PWM_MAX_VALUE_DC) 
 634              		.loc 1 349 0
 635 00b0 FB68     		ldr	r3, [r7, #12]
 636 00b2 642B     		cmp	r3, #100
 637 00b4 01DD     		ble	.L49
 350:..\src/interruptions.c ****         pwm_input =  PWM_MAX_VALUE_DC;
 638              		.loc 1 350 0
 639 00b6 6423     		movs	r3, #100
 640 00b8 FB60     		str	r3, [r7, #12]
 641              	.L49:
 351:..\src/interruptions.c ****     if(pwm_input < -PWM_MAX_VALUE_DC) 
 642              		.loc 1 351 0
 643 00ba FB68     		ldr	r3, [r7, #12]
 644 00bc 13F1640F 		cmn	r3, #100
 645 00c0 02DA     		bge	.L50
 352:..\src/interruptions.c ****         pwm_input = -PWM_MAX_VALUE_DC;
 646              		.loc 1 352 0
 647 00c2 6FF06303 		mvn	r3, #99
 648 00c6 FB60     		str	r3, [r7, #12]
 649              	.L50:
 353:..\src/interruptions.c ****     
 354:..\src/interruptions.c ****     prev_pwm = pwm_input;
 650              		.loc 1 354 0
 651 00c8 0D4A     		ldr	r2, .L54+8
 652 00ca FB68     		ldr	r3, [r7, #12]
 653 00cc 1360     		str	r3, [r2]
 355:..\src/interruptions.c **** 	
 356:..\src/interruptions.c ****     pwm_sign[0] = SIGN(pwm_input);   
 654              		.loc 1 356 0
 655 00ce FB68     		ldr	r3, [r7, #12]
 656 00d0 002B     		cmp	r3, #0
 657 00d2 01DB     		blt	.L51
 658              		.loc 1 356 0 is_stmt 0 discriminator 1
 659 00d4 0122     		movs	r2, #1
 660 00d6 01E0     		b	.L52
 661              	.L51:
 662              		.loc 1 356 0 discriminator 2
 663 00d8 4FF0FF32 		mov	r2, #-1
 664              	.L52:
ARM GAS  C:\Users\mgnocco\AppData\Local\Temp\ccuVecaK.s 			page 19


 665              		.loc 1 356 0 discriminator 4
 666 00dc 094B     		ldr	r3, .L54+12
 667 00de 1A70     		strb	r2, [r3]
 357:..\src/interruptions.c ****     
 358:..\src/interruptions.c ****         PWM_MOTORS_WriteCompare1(abs(pwm_input));
 668              		.loc 1 358 0 is_stmt 1 discriminator 4
 669 00e0 FB68     		ldr	r3, [r7, #12]
 670 00e2 002B     		cmp	r3, #0
 671 00e4 B8BF     		it	lt
 672 00e6 5B42     		rsblt	r3, r3, #0
 673 00e8 DBB2     		uxtb	r3, r3
 674 00ea 1846     		mov	r0, r3
 675 00ec FFF7FEFF 		bl	PWM_MOTORS_WriteCompare1
 359:..\src/interruptions.c ****   
 360:..\src/interruptions.c ****         
 361:..\src/interruptions.c **** 
 362:..\src/interruptions.c ****    
 363:..\src/interruptions.c **** }
 676              		.loc 1 363 0 discriminator 4
 677 00f0 00BF     		nop
 678 00f2 1037     		adds	r7, r7, #16
 679              		.cfi_def_cfa_offset 8
 680 00f4 BD46     		mov	sp, r7
 681              		.cfi_def_cfa_register 13
 682              		@ sp needed
 683 00f6 80BD     		pop	{r7, pc}
 684              	.L55:
 685              		.align	2
 686              	.L54:
 687 00f8 00000000 		.word	c_mem
 688 00fc 00000000 		.word	g_ref
 689 0100 8C000000 		.word	prev_pwm.9731
 690 0104 00000000 		.word	pwm_sign
 691              		.cfi_endproc
 692              	.LFE68:
 693              		.size	motor_control_SH, .-motor_control_SH
 694              		.section	.text.encoder_reading_SPI,"ax",%progbits
 695              		.align	2
 696              		.global	encoder_reading_SPI
 697              		.thumb
 698              		.thumb_func
 699              		.type	encoder_reading_SPI, %function
 700              	encoder_reading_SPI:
 701              	.LFB69:
 364:..\src/interruptions.c **** 
 365:..\src/interruptions.c **** //==============================================================================
 366:..\src/interruptions.c **** //                                                         MOTOR CONTROL GENERIC
 367:..\src/interruptions.c **** 
 368:..\src/interruptions.c **** //==============================================================================
 369:..\src/interruptions.c **** //                                                           ENCODER READING SPI
 370:..\src/interruptions.c **** //==============================================================================
 371:..\src/interruptions.c **** 
 372:..\src/interruptions.c **** void encoder_reading_SPI(uint8 n_line, uint8 assoc_motor) {
 702              		.loc 1 372 0
 703              		.cfi_startproc
 704              		@ args = 0, pretend = 0, frame = 8
 705              		@ frame_needed = 1, uses_anonymous_args = 0
ARM GAS  C:\Users\mgnocco\AppData\Local\Temp\ccuVecaK.s 			page 20


 706              		@ link register save eliminated.
 707 0000 80B4     		push	{r7}
 708              		.cfi_def_cfa_offset 4
 709              		.cfi_offset 7, -4
 710 0002 83B0     		sub	sp, sp, #12
 711              		.cfi_def_cfa_offset 16
 712 0004 00AF     		add	r7, sp, #0
 713              		.cfi_def_cfa_register 7
 714 0006 0346     		mov	r3, r0
 715 0008 0A46     		mov	r2, r1
 716 000a FB71     		strb	r3, [r7, #7]
 717 000c 1346     		mov	r3, r2
 718 000e BB71     		strb	r3, [r7, #6]
 373:..\src/interruptions.c ****  
 374:..\src/interruptions.c **** }
 719              		.loc 1 374 0
 720 0010 00BF     		nop
 721 0012 0C37     		adds	r7, r7, #12
 722              		.cfi_def_cfa_offset 4
 723 0014 BD46     		mov	sp, r7
 724              		.cfi_def_cfa_register 13
 725              		@ sp needed
 726 0016 80BC     		pop	{r7}
 727              		.cfi_restore 7
 728              		.cfi_def_cfa_offset 0
 729 0018 7047     		bx	lr
 730              		.cfi_endproc
 731              	.LFE69:
 732              		.size	encoder_reading_SPI, .-encoder_reading_SPI
 733 001a 00BF     		.section	.text.analog_read_end,"ax",%progbits
 734              		.align	2
 735              		.global	analog_read_end
 736              		.thumb
 737              		.thumb_func
 738              		.type	analog_read_end, %function
 739              	analog_read_end:
 740              	.LFB70:
 375:..\src/interruptions.c **** 
 376:..\src/interruptions.c **** //==============================================================================
 377:..\src/interruptions.c **** //                                                           ANALOG MEASUREMENTS
 378:..\src/interruptions.c **** //==============================================================================
 379:..\src/interruptions.c **** 
 380:..\src/interruptions.c **** void analog_read_end() {   
 741              		.loc 1 380 0
 742              		.cfi_startproc
 743              		@ args = 0, pretend = 0, frame = 0
 744              		@ frame_needed = 1, uses_anonymous_args = 0
 745              		@ link register save eliminated.
 746 0000 80B4     		push	{r7}
 747              		.cfi_def_cfa_offset 4
 748              		.cfi_offset 7, -4
 749 0002 00AF     		add	r7, sp, #0
 750              		.cfi_def_cfa_register 7
 381:..\src/interruptions.c **** }
 751              		.loc 1 381 0
 752 0004 00BF     		nop
 753 0006 BD46     		mov	sp, r7
ARM GAS  C:\Users\mgnocco\AppData\Local\Temp\ccuVecaK.s 			page 21


 754              		.cfi_def_cfa_register 13
 755              		@ sp needed
 756 0008 80BC     		pop	{r7}
 757              		.cfi_restore 7
 758              		.cfi_def_cfa_offset 0
 759 000a 7047     		bx	lr
 760              		.cfi_endproc
 761              	.LFE70:
 762              		.size	analog_read_end, .-analog_read_end
 763              		.section	.text.overcurrent_control,"ax",%progbits
 764              		.align	2
 765              		.global	overcurrent_control
 766              		.thumb
 767              		.thumb_func
 768              		.type	overcurrent_control, %function
 769              	overcurrent_control:
 770              	.LFB71:
 382:..\src/interruptions.c **** 
 383:..\src/interruptions.c **** //==============================================================================
 384:..\src/interruptions.c **** //                                                           OVERCURRENT CONTROL
 385:..\src/interruptions.c **** //==============================================================================
 386:..\src/interruptions.c **** 
 387:..\src/interruptions.c **** void overcurrent_control() {
 771              		.loc 1 387 0
 772              		.cfi_startproc
 773              		@ args = 0, pretend = 0, frame = 8
 774              		@ frame_needed = 1, uses_anonymous_args = 0
 775              		@ link register save eliminated.
 776 0000 80B4     		push	{r7}
 777              		.cfi_def_cfa_offset 4
 778              		.cfi_offset 7, -4
 779 0002 83B0     		sub	sp, sp, #12
 780              		.cfi_def_cfa_offset 16
 781 0004 00AF     		add	r7, sp, #0
 782              		.cfi_def_cfa_register 7
 783              	.LBB2:
 388:..\src/interruptions.c ****     
 389:..\src/interruptions.c ****     for (uint8 i = 0; i <NUM_OF_MOTORS; i++) {
 784              		.loc 1 389 0
 785 0006 0023     		movs	r3, #0
 786 0008 FB71     		strb	r3, [r7, #7]
 787 000a 6CE0     		b	.L59
 788              	.L64:
 390:..\src/interruptions.c ****         if (c_mem.motor[i].current_limit != 0) {
 789              		.loc 1 390 0
 790 000c FA79     		ldrb	r2, [r7, #7]	@ zero_extendqisi2
 791 000e 3A49     		ldr	r1, .L66
 792 0010 1346     		mov	r3, r2
 793 0012 DB00     		lsls	r3, r3, #3
 794 0014 9B1A     		subs	r3, r3, r2
 795 0016 1B01     		lsls	r3, r3, #4
 796 0018 0B44     		add	r3, r3, r1
 797 001a 03F58673 		add	r3, r3, #268
 798 001e B3F90030 		ldrsh	r3, [r3]
 799 0022 002B     		cmp	r3, #0
 800 0024 5CD0     		beq	.L60
 801              	.LBB3:
ARM GAS  C:\Users\mgnocco\AppData\Local\Temp\ccuVecaK.s 			page 22


 391:..\src/interruptions.c ****             int32 curr = g_meas[g_mem.motor[i].encoder_line].curr;
 802              		.loc 1 391 0
 803 0026 FA79     		ldrb	r2, [r7, #7]	@ zero_extendqisi2
 804 0028 3449     		ldr	r1, .L66+4
 805 002a 1346     		mov	r3, r2
 806 002c DB00     		lsls	r3, r3, #3
 807 002e 9B1A     		subs	r3, r3, r2
 808 0030 1B01     		lsls	r3, r3, #4
 809 0032 0B44     		add	r3, r3, r1
 810 0034 03F58873 		add	r3, r3, #272
 811 0038 1B78     		ldrb	r3, [r3]	@ zero_extendqisi2
 812 003a 1946     		mov	r1, r3
 813 003c 304A     		ldr	r2, .L66+8
 814 003e 3423     		movs	r3, #52
 815 0040 03FB01F3 		mul	r3, r3, r1
 816 0044 1344     		add	r3, r3, r2
 817 0046 0C33     		adds	r3, r3, #12
 818 0048 1B68     		ldr	r3, [r3]
 819 004a 3B60     		str	r3, [r7]
 392:..\src/interruptions.c ****             // check if the current is over the limit
 393:..\src/interruptions.c ****           //  if (c_mem.dev.dev_type == SOFTHAND_2_MOTORS){
 394:..\src/interruptions.c ****                 if (curr < 0){
 820              		.loc 1 394 0
 821 004c 3B68     		ldr	r3, [r7]
 822 004e 002B     		cmp	r3, #0
 823 0050 02DA     		bge	.L61
 395:..\src/interruptions.c ****                     curr = -curr;       // Invert sign to have a positive current reading in this f
 824              		.loc 1 395 0
 825 0052 3B68     		ldr	r3, [r7]
 826 0054 5B42     		negs	r3, r3
 827 0056 3B60     		str	r3, [r7]
 828              	.L61:
 396:..\src/interruptions.c ****                 }
 397:..\src/interruptions.c ****          //   }
 398:..\src/interruptions.c ****             if (curr > c_mem.motor[i].current_limit) {
 829              		.loc 1 398 0
 830 0058 FA79     		ldrb	r2, [r7, #7]	@ zero_extendqisi2
 831 005a 2749     		ldr	r1, .L66
 832 005c 1346     		mov	r3, r2
 833 005e DB00     		lsls	r3, r3, #3
 834 0060 9B1A     		subs	r3, r3, r2
 835 0062 1B01     		lsls	r3, r3, #4
 836 0064 0B44     		add	r3, r3, r1
 837 0066 03F58673 		add	r3, r3, #268
 838 006a B3F90030 		ldrsh	r3, [r3]
 839 006e 1A46     		mov	r2, r3
 840 0070 3B68     		ldr	r3, [r7]
 841 0072 9A42     		cmp	r2, r3
 842 0074 09DA     		bge	.L62
 399:..\src/interruptions.c ****                 //decrease pwm_limit
 400:..\src/interruptions.c ****                 dev_pwm_limit[i]--;
 843              		.loc 1 400 0
 844 0076 FB79     		ldrb	r3, [r7, #7]	@ zero_extendqisi2
 845 0078 224A     		ldr	r2, .L66+12
 846 007a 32F81320 		ldrh	r2, [r2, r3, lsl #1]
 847 007e 013A     		subs	r2, r2, #1
 848 0080 91B2     		uxth	r1, r2
ARM GAS  C:\Users\mgnocco\AppData\Local\Temp\ccuVecaK.s 			page 23


 849 0082 204A     		ldr	r2, .L66+12
 850 0084 22F81310 		strh	r1, [r2, r3, lsl #1]	@ movhi
 851 0088 18E0     		b	.L65
 852              	.L62:
 401:..\src/interruptions.c ****             // check if the current is in the safe zone
 402:..\src/interruptions.c ****             } else if (curr < (c_mem.motor[i].current_limit - CURRENT_HYSTERESIS)) {
 853              		.loc 1 402 0
 854 008a FA79     		ldrb	r2, [r7, #7]	@ zero_extendqisi2
 855 008c 1A49     		ldr	r1, .L66
 856 008e 1346     		mov	r3, r2
 857 0090 DB00     		lsls	r3, r3, #3
 858 0092 9B1A     		subs	r3, r3, r2
 859 0094 1B01     		lsls	r3, r3, #4
 860 0096 0B44     		add	r3, r3, r1
 861 0098 03F58673 		add	r3, r3, #268
 862 009c B3F90030 		ldrsh	r3, [r3]
 863 00a0 A3F10A02 		sub	r2, r3, #10
 864 00a4 3B68     		ldr	r3, [r7]
 865 00a6 9A42     		cmp	r2, r3
 866 00a8 08DD     		ble	.L65
 403:..\src/interruptions.c ****                 //increase pwm_limit
 404:..\src/interruptions.c ****                 dev_pwm_limit[i]++;
 867              		.loc 1 404 0
 868 00aa FB79     		ldrb	r3, [r7, #7]	@ zero_extendqisi2
 869 00ac 154A     		ldr	r2, .L66+12
 870 00ae 32F81320 		ldrh	r2, [r2, r3, lsl #1]
 871 00b2 0132     		adds	r2, r2, #1
 872 00b4 91B2     		uxth	r1, r2
 873 00b6 134A     		ldr	r2, .L66+12
 874 00b8 22F81310 		strh	r1, [r2, r3, lsl #1]	@ movhi
 875              	.L65:
 405:..\src/interruptions.c ****             }
 406:..\src/interruptions.c **** 
 407:..\src/interruptions.c ****             // Bound pwm_limit
 408:..\src/interruptions.c ****             if (dev_pwm_limit[i] < 0) 
 409:..\src/interruptions.c ****                 dev_pwm_limit[i] = 0;
 410:..\src/interruptions.c ****             else 
 411:..\src/interruptions.c ****                 if (dev_pwm_limit[i] > dev_pwm_sat[i]) 
 876              		.loc 1 411 0
 877 00bc FB79     		ldrb	r3, [r7, #7]	@ zero_extendqisi2
 878 00be 114A     		ldr	r2, .L66+12
 879 00c0 32F81320 		ldrh	r2, [r2, r3, lsl #1]
 880 00c4 FB79     		ldrb	r3, [r7, #7]	@ zero_extendqisi2
 881 00c6 1049     		ldr	r1, .L66+16
 882 00c8 31F81330 		ldrh	r3, [r1, r3, lsl #1]
 883 00cc 9A42     		cmp	r2, r3
 884 00ce 07D9     		bls	.L60
 412:..\src/interruptions.c ****                     dev_pwm_limit[i] = dev_pwm_sat[i];
 885              		.loc 1 412 0
 886 00d0 FB79     		ldrb	r3, [r7, #7]	@ zero_extendqisi2
 887 00d2 FA79     		ldrb	r2, [r7, #7]	@ zero_extendqisi2
 888 00d4 0C49     		ldr	r1, .L66+16
 889 00d6 31F81210 		ldrh	r1, [r1, r2, lsl #1]
 890 00da 0A4A     		ldr	r2, .L66+12
 891 00dc 22F81310 		strh	r1, [r2, r3, lsl #1]	@ movhi
 892              	.L60:
 893              	.LBE3:
ARM GAS  C:\Users\mgnocco\AppData\Local\Temp\ccuVecaK.s 			page 24


 389:..\src/interruptions.c ****         if (c_mem.motor[i].current_limit != 0) {
 894              		.loc 1 389 0 discriminator 2
 895 00e0 FB79     		ldrb	r3, [r7, #7]	@ zero_extendqisi2
 896 00e2 0133     		adds	r3, r3, #1
 897 00e4 FB71     		strb	r3, [r7, #7]
 898              	.L59:
 389:..\src/interruptions.c ****         if (c_mem.motor[i].current_limit != 0) {
 899              		.loc 1 389 0 is_stmt 0 discriminator 1
 900 00e6 FB79     		ldrb	r3, [r7, #7]	@ zero_extendqisi2
 901 00e8 022B     		cmp	r3, #2
 902 00ea 8FD9     		bls	.L64
 903              	.LBE2:
 413:..\src/interruptions.c ****         }
 414:..\src/interruptions.c ****     }
 415:..\src/interruptions.c **** }
 904              		.loc 1 415 0 is_stmt 1
 905 00ec 00BF     		nop
 906 00ee 0C37     		adds	r7, r7, #12
 907              		.cfi_def_cfa_offset 4
 908 00f0 BD46     		mov	sp, r7
 909              		.cfi_def_cfa_register 13
 910              		@ sp needed
 911 00f2 80BC     		pop	{r7}
 912              		.cfi_restore 7
 913              		.cfi_def_cfa_offset 0
 914 00f4 7047     		bx	lr
 915              	.L67:
 916 00f6 00BF     		.align	2
 917              	.L66:
 918 00f8 00000000 		.word	c_mem
 919 00fc 00000000 		.word	g_mem
 920 0100 00000000 		.word	g_meas
 921 0104 00000000 		.word	dev_pwm_limit
 922 0108 00000000 		.word	dev_pwm_sat
 923              		.cfi_endproc
 924              	.LFE71:
 925              		.size	overcurrent_control, .-overcurrent_control
 926              		.section	.text.pwm_limit_search,"ax",%progbits
 927              		.align	2
 928              		.global	pwm_limit_search
 929              		.thumb
 930              		.thumb_func
 931              		.type	pwm_limit_search, %function
 932              	pwm_limit_search:
 933              	.LFB72:
 416:..\src/interruptions.c **** 
 417:..\src/interruptions.c **** //==============================================================================
 418:..\src/interruptions.c **** //                                                              PWM_LIMIT_SEARCH
 419:..\src/interruptions.c **** //==============================================================================
 420:..\src/interruptions.c **** 
 421:..\src/interruptions.c **** void pwm_limit_search(uint8 mot_idx) {
 934              		.loc 1 421 0
 935              		.cfi_startproc
 936              		@ args = 0, pretend = 0, frame = 16
 937              		@ frame_needed = 1, uses_anonymous_args = 0
 938              		@ link register save eliminated.
 939 0000 80B4     		push	{r7}
ARM GAS  C:\Users\mgnocco\AppData\Local\Temp\ccuVecaK.s 			page 25


 940              		.cfi_def_cfa_offset 4
 941              		.cfi_offset 7, -4
 942 0002 85B0     		sub	sp, sp, #20
 943              		.cfi_def_cfa_offset 24
 944 0004 00AF     		add	r7, sp, #0
 945              		.cfi_def_cfa_register 7
 946 0006 0346     		mov	r3, r0
 947 0008 FB71     		strb	r3, [r7, #7]
 422:..\src/interruptions.c **** 
 423:..\src/interruptions.c ****     uint8 CYDATA index;
 424:..\src/interruptions.c ****     uint16 CYDATA max_tension = 26500;
 948              		.loc 1 424 0
 949 000a 46F28473 		movw	r3, #26500
 950 000e FB81     		strh	r3, [r7, #14]	@ movhi
 425:..\src/interruptions.c ****     uint16 CYDATA min_tension = 11500;
 951              		.loc 1 425 0
 952 0010 42F6EC43 		movw	r3, #11500
 953 0014 BB81     		strh	r3, [r7, #12]	@ movhi
 426:..\src/interruptions.c ****     
 427:..\src/interruptions.c ****     if (dev_tension[mot_idx] > max_tension) {
 954              		.loc 1 427 0
 955 0016 FB79     		ldrb	r3, [r7, #7]	@ zero_extendqisi2
 956 0018 1F4A     		ldr	r2, .L75
 957 001a 52F82320 		ldr	r2, [r2, r3, lsl #2]
 958 001e FB89     		ldrh	r3, [r7, #14]
 959 0020 9A42     		cmp	r2, r3
 960 0022 05DD     		ble	.L69
 428:..\src/interruptions.c ****         dev_pwm_sat[mot_idx] = 0;
 961              		.loc 1 428 0
 962 0024 FB79     		ldrb	r3, [r7, #7]	@ zero_extendqisi2
 963 0026 1D4A     		ldr	r2, .L75+4
 964 0028 0021     		movs	r1, #0
 965 002a 22F81310 		strh	r1, [r2, r3, lsl #1]	@ movhi
 429:..\src/interruptions.c ****     } else if (dev_tension[mot_idx] < min_tension) {
 430:..\src/interruptions.c ****         if (c_mem.motor[mot_idx].motor_driver_type == DRIVER_BRUSHLESS){
 431:..\src/interruptions.c ****             dev_pwm_sat[mot_idx] = PWM_MAX_VALUE_ESC;
 432:..\src/interruptions.c ****         } else {
 433:..\src/interruptions.c ****             dev_pwm_sat[mot_idx] = PWM_MAX_VALUE_DC;
 434:..\src/interruptions.c ****         }
 435:..\src/interruptions.c ****     } else {
 436:..\src/interruptions.c ****         index = (uint8)((dev_tension[mot_idx] - min_tension) >> 9);
 437:..\src/interruptions.c ****         dev_pwm_sat[mot_idx] = pwm_preload_values[index];
 438:..\src/interruptions.c ****     }
 439:..\src/interruptions.c **** }
 966              		.loc 1 439 0
 967 002e 2EE0     		b	.L74
 968              	.L69:
 429:..\src/interruptions.c ****     } else if (dev_tension[mot_idx] < min_tension) {
 969              		.loc 1 429 0
 970 0030 FB79     		ldrb	r3, [r7, #7]	@ zero_extendqisi2
 971 0032 194A     		ldr	r2, .L75
 972 0034 52F82320 		ldr	r2, [r2, r3, lsl #2]
 973 0038 BB89     		ldrh	r3, [r7, #12]
 974 003a 9A42     		cmp	r2, r3
 975 003c 17DA     		bge	.L71
 430:..\src/interruptions.c ****             dev_pwm_sat[mot_idx] = PWM_MAX_VALUE_ESC;
 976              		.loc 1 430 0
ARM GAS  C:\Users\mgnocco\AppData\Local\Temp\ccuVecaK.s 			page 26


 977 003e FA79     		ldrb	r2, [r7, #7]	@ zero_extendqisi2
 978 0040 1749     		ldr	r1, .L75+8
 979 0042 1346     		mov	r3, r2
 980 0044 DB00     		lsls	r3, r3, #3
 981 0046 9B1A     		subs	r3, r3, r2
 982 0048 1B01     		lsls	r3, r3, #4
 983 004a 0B44     		add	r3, r3, r1
 984 004c E233     		adds	r3, r3, #226
 985 004e 1B78     		ldrb	r3, [r3]	@ zero_extendqisi2
 986 0050 022B     		cmp	r3, #2
 987 0052 06D1     		bne	.L72
 431:..\src/interruptions.c ****         } else {
 988              		.loc 1 431 0
 989 0054 FB79     		ldrb	r3, [r7, #7]	@ zero_extendqisi2
 990 0056 114A     		ldr	r2, .L75+4
 991 0058 40F6A931 		movw	r1, #2985
 992 005c 22F81310 		strh	r1, [r2, r3, lsl #1]	@ movhi
 993              		.loc 1 439 0
 994 0060 15E0     		b	.L74
 995              	.L72:
 433:..\src/interruptions.c ****         }
 996              		.loc 1 433 0
 997 0062 FB79     		ldrb	r3, [r7, #7]	@ zero_extendqisi2
 998 0064 0D4A     		ldr	r2, .L75+4
 999 0066 6421     		movs	r1, #100
 1000 0068 22F81310 		strh	r1, [r2, r3, lsl #1]	@ movhi
 1001              		.loc 1 439 0
 1002 006c 0FE0     		b	.L74
 1003              	.L71:
 436:..\src/interruptions.c ****         dev_pwm_sat[mot_idx] = pwm_preload_values[index];
 1004              		.loc 1 436 0
 1005 006e FB79     		ldrb	r3, [r7, #7]	@ zero_extendqisi2
 1006 0070 094A     		ldr	r2, .L75
 1007 0072 52F82320 		ldr	r2, [r2, r3, lsl #2]
 1008 0076 BB89     		ldrh	r3, [r7, #12]
 1009 0078 D31A     		subs	r3, r2, r3
 1010 007a 5B12     		asrs	r3, r3, #9
 1011 007c FB72     		strb	r3, [r7, #11]
 437:..\src/interruptions.c ****     }
 1012              		.loc 1 437 0
 1013 007e FB79     		ldrb	r3, [r7, #7]	@ zero_extendqisi2
 1014 0080 FA7A     		ldrb	r2, [r7, #11]	@ zero_extendqisi2
 1015 0082 0849     		ldr	r1, .L75+12
 1016 0084 8A5C     		ldrb	r2, [r1, r2]	@ zero_extendqisi2
 1017 0086 91B2     		uxth	r1, r2
 1018 0088 044A     		ldr	r2, .L75+4
 1019 008a 22F81310 		strh	r1, [r2, r3, lsl #1]	@ movhi
 1020              	.L74:
 1021              		.loc 1 439 0
 1022 008e 00BF     		nop
 1023 0090 1437     		adds	r7, r7, #20
 1024              		.cfi_def_cfa_offset 4
 1025 0092 BD46     		mov	sp, r7
 1026              		.cfi_def_cfa_register 13
 1027              		@ sp needed
 1028 0094 80BC     		pop	{r7}
 1029              		.cfi_restore 7
ARM GAS  C:\Users\mgnocco\AppData\Local\Temp\ccuVecaK.s 			page 27


 1030              		.cfi_def_cfa_offset 0
 1031 0096 7047     		bx	lr
 1032              	.L76:
 1033              		.align	2
 1034              	.L75:
 1035 0098 00000000 		.word	dev_tension
 1036 009c 00000000 		.word	dev_pwm_sat
 1037 00a0 00000000 		.word	c_mem
 1038 00a4 00000000 		.word	pwm_preload_values
 1039              		.cfi_endproc
 1040              	.LFE72:
 1041              		.size	pwm_limit_search, .-pwm_limit_search
 1042              		.global	__aeabi_ui2f
 1043              		.global	__aeabi_f2d
 1044              		.global	__aeabi_ddiv
 1045              		.global	__aeabi_dcmpgt
 1046              		.section	.text.cycles_counter_update,"ax",%progbits
 1047              		.align	2
 1048              		.global	cycles_counter_update
 1049              		.thumb
 1050              		.thumb_func
 1051              		.type	cycles_counter_update, %function
 1052              	cycles_counter_update:
 1053              	.LFB73:
 440:..\src/interruptions.c **** 
 441:..\src/interruptions.c **** //==============================================================================
 442:..\src/interruptions.c **** //                                                         CYCLES COUNTER UPDATE
 443:..\src/interruptions.c **** //==============================================================================
 444:..\src/interruptions.c **** 
 445:..\src/interruptions.c **** void cycles_counter_update() {
 1054              		.loc 1 445 0
 1055              		.cfi_startproc
 1056              		@ args = 0, pretend = 0, frame = 24
 1057              		@ frame_needed = 1, uses_anonymous_args = 0
 1058 0000 90B5     		push	{r4, r7, lr}
 1059              		.cfi_def_cfa_offset 12
 1060              		.cfi_offset 4, -12
 1061              		.cfi_offset 7, -8
 1062              		.cfi_offset 14, -4
 1063 0002 87B0     		sub	sp, sp, #28
 1064              		.cfi_def_cfa_offset 40
 1065 0004 00AF     		add	r7, sp, #0
 1066              		.cfi_def_cfa_register 7
 446:..\src/interruptions.c **** 	static uint8 pos_cycle_status = STATE_INACTIVE;
 447:..\src/interruptions.c ****     static uint8 emg_cycle_status[2] = {STATE_INACTIVE, STATE_INACTIVE};
 448:..\src/interruptions.c ****     static uint8 motion_status[2] = {STATE_INACTIVE, STATE_INACTIVE};
 449:..\src/interruptions.c ****     static uint8 emg_excess_status[2] = {STATE_INACTIVE, STATE_INACTIVE};
 450:..\src/interruptions.c ****     static uint8 rest_cycle_status = STATE_INACTIVE;
 451:..\src/interruptions.c ****     static int32 bin_threshold = 250;
 452:..\src/interruptions.c ****     static int32 exc_act_thr = 980; //0.95*1024
 453:..\src/interruptions.c ****     static int32 thr_pos = 0;
 454:..\src/interruptions.c ****     static int32 max_pos = 0;
 455:..\src/interruptions.c ****     uint8 i, bin_st, bin_max, bin_1, bin_2;
 456:..\src/interruptions.c ****     int32 curr_pos = 0, curr_off = 0, curr_ref = 0;
 1067              		.loc 1 456 0
 1068 0006 0023     		movs	r3, #0
 1069 0008 FB60     		str	r3, [r7, #12]
ARM GAS  C:\Users\mgnocco\AppData\Local\Temp\ccuVecaK.s 			page 28


 1070 000a 0023     		movs	r3, #0
 1071 000c BB60     		str	r3, [r7, #8]
 1072 000e 0023     		movs	r3, #0
 1073 0010 3B61     		str	r3, [r7, #16]
 457:..\src/interruptions.c ****     int32 step;
 458:..\src/interruptions.c ****     static uint32 timer_value_s, timer_value_e;
 459:..\src/interruptions.c ****     static uint32 timer_exc_s[2], timer_exc_e[2];
 460:..\src/interruptions.c ****     static int32 start_emg_pos[2] = {0,0};
 461:..\src/interruptions.c **** 
 462:..\src/interruptions.c ****     curr_pos = (int32)(g_meas[g_mem.motor[0].encoder_line].pos[0] >> g_mem.enc[g_mem.motor[0].encod
 1074              		.loc 1 462 0
 1075 0012 A64B     		ldr	r3, .L155
 1076 0014 93F81031 		ldrb	r3, [r3, #272]	@ zero_extendqisi2
 1077 0018 1946     		mov	r1, r3
 1078 001a A54A     		ldr	r2, .L155+4
 1079 001c 3423     		movs	r3, #52
 1080 001e 03FB01F3 		mul	r3, r3, r1
 1081 0022 1344     		add	r3, r3, r2
 1082 0024 1A68     		ldr	r2, [r3]
 1083 0026 A14B     		ldr	r3, .L155
 1084 0028 93F81031 		ldrb	r3, [r3, #272]	@ zero_extendqisi2
 1085 002c 1846     		mov	r0, r3
 1086 002e 9F49     		ldr	r1, .L155
 1087 0030 0346     		mov	r3, r0
 1088 0032 5B00     		lsls	r3, r3, #1
 1089 0034 0344     		add	r3, r3, r0
 1090 0036 1B01     		lsls	r3, r3, #4
 1091 0038 0B44     		add	r3, r3, r1
 1092 003a 03F20523 		addw	r3, r3, #517
 1093 003e 1B78     		ldrb	r3, [r3]	@ zero_extendqisi2
 1094 0040 42FA03F3 		asr	r3, r2, r3
 1095 0044 FB60     		str	r3, [r7, #12]
 463:..\src/interruptions.c ****         
 464:..\src/interruptions.c ****     // State machine - Evaluate position counter update
 465:..\src/interruptions.c ****     switch (pos_cycle_status){
 1096              		.loc 1 465 0
 1097 0046 9B4B     		ldr	r3, .L155+8
 1098 0048 1B78     		ldrb	r3, [r3]	@ zero_extendqisi2
 1099 004a 012B     		cmp	r3, #1
 1100 004c 3DD0     		beq	.L79
 1101 004e 022B     		cmp	r3, #2
 1102 0050 74D0     		beq	.L80
 1103 0052 002B     		cmp	r3, #0
 1104 0054 40F02781 		bne	.L78
 466:..\src/interruptions.c ****         case STATE_INACTIVE:
 467:..\src/interruptions.c ****             if ((g_mem.motor[0].input_mode != INPUT_MODE_EMG_PROPORTIONAL_NC && pwm_sign[0] == 1) |
 1105              		.loc 1 467 0
 1106 0058 944B     		ldr	r3, .L155
 1107 005a 93F80E31 		ldrb	r3, [r3, #270]	@ zero_extendqisi2
 1108 005e 072B     		cmp	r3, #7
 1109 0060 04D0     		beq	.L82
 1110              		.loc 1 467 0 is_stmt 0 discriminator 1
 1111 0062 954B     		ldr	r3, .L155+12
 1112 0064 93F90030 		ldrsb	r3, [r3]
 1113 0068 012B     		cmp	r3, #1
 1114 006a 0CD0     		beq	.L83
 1115              	.L82:
ARM GAS  C:\Users\mgnocco\AppData\Local\Temp\ccuVecaK.s 			page 29


 1116              		.loc 1 467 0 discriminator 3
 1117 006c 8F4B     		ldr	r3, .L155
 1118 006e 93F80E31 		ldrb	r3, [r3, #270]	@ zero_extendqisi2
 1119 0072 072B     		cmp	r3, #7
 1120 0074 40F01481 		bne	.L145
 1121              		.loc 1 467 0 discriminator 4
 1122 0078 8F4B     		ldr	r3, .L155+12
 1123 007a 93F90030 		ldrsb	r3, [r3]
 1124 007e B3F1FF3F 		cmp	r3, #-1
 1125 0082 40F00D81 		bne	.L145
 1126              	.L83:
 468:..\src/interruptions.c ****                 thr_pos = curr_pos; 
 1127              		.loc 1 468 0 is_stmt 1
 1128 0086 8D4A     		ldr	r2, .L155+16
 1129 0088 FB68     		ldr	r3, [r7, #12]
 1130 008a 1360     		str	r3, [r2]
 469:..\src/interruptions.c ****                 curr_off = (max_pos>thr_pos)?(max_pos-thr_pos):(thr_pos-max_pos);
 1131              		.loc 1 469 0
 1132 008c 8C4B     		ldr	r3, .L155+20
 1133 008e 1A68     		ldr	r2, [r3]
 1134 0090 8A4B     		ldr	r3, .L155+16
 1135 0092 1B68     		ldr	r3, [r3]
 1136 0094 9A42     		cmp	r2, r3
 1137 0096 05DD     		ble	.L85
 1138              		.loc 1 469 0 is_stmt 0 discriminator 1
 1139 0098 894B     		ldr	r3, .L155+20
 1140 009a 1A68     		ldr	r2, [r3]
 1141 009c 874B     		ldr	r3, .L155+16
 1142 009e 1B68     		ldr	r3, [r3]
 1143 00a0 D31A     		subs	r3, r2, r3
 1144 00a2 04E0     		b	.L86
 1145              	.L85:
 1146              		.loc 1 469 0 discriminator 2
 1147 00a4 854B     		ldr	r3, .L155+16
 1148 00a6 1A68     		ldr	r2, [r3]
 1149 00a8 854B     		ldr	r3, .L155+20
 1150 00aa 1B68     		ldr	r3, [r3]
 1151 00ac D31A     		subs	r3, r2, r3
 1152              	.L86:
 1153              		.loc 1 469 0 discriminator 4
 1154 00ae BB60     		str	r3, [r7, #8]
 470:..\src/interruptions.c ****                 if (curr_off > 20){    // it has to be a sensible movement to update counter (to av
 1155              		.loc 1 470 0 is_stmt 1 discriminator 4
 1156 00b0 BB68     		ldr	r3, [r7, #8]
 1157 00b2 142B     		cmp	r3, #20
 1158 00b4 05DD     		ble	.L87
 471:..\src/interruptions.c ****                     g_mem.cnt.wire_disp = g_mem.cnt.wire_disp + curr_off;     //sum opening track
 1159              		.loc 1 471 0
 1160 00b6 7D4B     		ldr	r3, .L155
 1161 00b8 5A6D     		ldr	r2, [r3, #84]
 1162 00ba BB68     		ldr	r3, [r7, #8]
 1163 00bc 1344     		add	r3, r3, r2
 1164 00be 7B4A     		ldr	r2, .L155
 1165 00c0 5365     		str	r3, [r2, #84]
 1166              	.L87:
 472:..\src/interruptions.c ****                 }
 473:..\src/interruptions.c ****                 pos_cycle_status = STATE_ACTIVE;
ARM GAS  C:\Users\mgnocco\AppData\Local\Temp\ccuVecaK.s 			page 30


 1167              		.loc 1 473 0
 1168 00c2 7C4B     		ldr	r3, .L155+8
 1169 00c4 0122     		movs	r2, #1
 1170 00c6 1A70     		strb	r2, [r3]
 474:..\src/interruptions.c ****             }
 475:..\src/interruptions.c ****             break;
 1171              		.loc 1 475 0
 1172 00c8 EAE0     		b	.L145
 1173              	.L79:
 476:..\src/interruptions.c ****         case STATE_ACTIVE:
 477:..\src/interruptions.c ****             if ((g_mem.motor[0].input_mode != INPUT_MODE_EMG_PROPORTIONAL_NC && pwm_sign[0] == -1) 
 1174              		.loc 1 477 0
 1175 00ca 784B     		ldr	r3, .L155
 1176 00cc 93F80E31 		ldrb	r3, [r3, #270]	@ zero_extendqisi2
 1177 00d0 072B     		cmp	r3, #7
 1178 00d2 05D0     		beq	.L88
 1179              		.loc 1 477 0 is_stmt 0 discriminator 1
 1180 00d4 784B     		ldr	r3, .L155+12
 1181 00d6 93F90030 		ldrsb	r3, [r3]
 1182 00da B3F1FF3F 		cmp	r3, #-1
 1183 00de 0BD0     		beq	.L89
 1184              	.L88:
 1185              		.loc 1 477 0 discriminator 3
 1186 00e0 724B     		ldr	r3, .L155
 1187 00e2 93F80E31 		ldrb	r3, [r3, #270]	@ zero_extendqisi2
 1188 00e6 072B     		cmp	r3, #7
 1189 00e8 40F0DC80 		bne	.L146
 1190              		.loc 1 477 0 discriminator 4
 1191 00ec 724B     		ldr	r3, .L155+12
 1192 00ee 93F90030 		ldrsb	r3, [r3]
 1193 00f2 012B     		cmp	r3, #1
 1194 00f4 40F0D680 		bne	.L146
 1195              	.L89:
 478:..\src/interruptions.c ****                 max_pos = curr_pos;
 1196              		.loc 1 478 0 is_stmt 1
 1197 00f8 714A     		ldr	r2, .L155+20
 1198 00fa FB68     		ldr	r3, [r7, #12]
 1199 00fc 1360     		str	r3, [r2]
 479:..\src/interruptions.c ****                 curr_off = (max_pos>thr_pos)?(max_pos-thr_pos):(thr_pos-max_pos);
 1200              		.loc 1 479 0
 1201 00fe 704B     		ldr	r3, .L155+20
 1202 0100 1A68     		ldr	r2, [r3]
 1203 0102 6E4B     		ldr	r3, .L155+16
 1204 0104 1B68     		ldr	r3, [r3]
 1205 0106 9A42     		cmp	r2, r3
 1206 0108 05DD     		ble	.L91
 1207              		.loc 1 479 0 is_stmt 0 discriminator 1
 1208 010a 6D4B     		ldr	r3, .L155+20
 1209 010c 1A68     		ldr	r2, [r3]
 1210 010e 6B4B     		ldr	r3, .L155+16
 1211 0110 1B68     		ldr	r3, [r3]
 1212 0112 D31A     		subs	r3, r2, r3
 1213 0114 04E0     		b	.L92
 1214              	.L91:
 1215              		.loc 1 479 0 discriminator 2
 1216 0116 694B     		ldr	r3, .L155+16
 1217 0118 1A68     		ldr	r2, [r3]
ARM GAS  C:\Users\mgnocco\AppData\Local\Temp\ccuVecaK.s 			page 31


 1218 011a 694B     		ldr	r3, .L155+20
 1219 011c 1B68     		ldr	r3, [r3]
 1220 011e D31A     		subs	r3, r2, r3
 1221              	.L92:
 1222              		.loc 1 479 0 discriminator 4
 1223 0120 BB60     		str	r3, [r7, #8]
 480:..\src/interruptions.c ****                 if (curr_off > 20){    // it has to be a sensible movement to update counter (to av
 1224              		.loc 1 480 0 is_stmt 1 discriminator 4
 1225 0122 BB68     		ldr	r3, [r7, #8]
 1226 0124 142B     		cmp	r3, #20
 1227 0126 05DD     		ble	.L93
 481:..\src/interruptions.c ****                    g_mem.cnt.wire_disp = g_mem.cnt.wire_disp + curr_off;     //sum closure track
 1228              		.loc 1 481 0
 1229 0128 604B     		ldr	r3, .L155
 1230 012a 5A6D     		ldr	r2, [r3, #84]
 1231 012c BB68     		ldr	r3, [r7, #8]
 1232 012e 1344     		add	r3, r3, r2
 1233 0130 5E4A     		ldr	r2, .L155
 1234 0132 5365     		str	r3, [r2, #84]
 1235              	.L93:
 482:..\src/interruptions.c ****                 }
 483:..\src/interruptions.c ****                 pos_cycle_status = COUNTER_INC;
 1236              		.loc 1 483 0
 1237 0134 5F4B     		ldr	r3, .L155+8
 1238 0136 0222     		movs	r2, #2
 1239 0138 1A70     		strb	r2, [r3]
 484:..\src/interruptions.c ****             }
 485:..\src/interruptions.c ****             break;
 1240              		.loc 1 485 0
 1241 013a B3E0     		b	.L146
 1242              	.L80:
 486:..\src/interruptions.c ****         case COUNTER_INC:
 487:..\src/interruptions.c **** 
 488:..\src/interruptions.c ****             curr_off = (max_pos>thr_pos)?(max_pos-thr_pos):(thr_pos-max_pos);
 1243              		.loc 1 488 0
 1244 013c 604B     		ldr	r3, .L155+20
 1245 013e 1A68     		ldr	r2, [r3]
 1246 0140 5E4B     		ldr	r3, .L155+16
 1247 0142 1B68     		ldr	r3, [r3]
 1248 0144 9A42     		cmp	r2, r3
 1249 0146 05DD     		ble	.L94
 1250              		.loc 1 488 0 is_stmt 0 discriminator 1
 1251 0148 5D4B     		ldr	r3, .L155+20
 1252 014a 1A68     		ldr	r2, [r3]
 1253 014c 5B4B     		ldr	r3, .L155+16
 1254 014e 1B68     		ldr	r3, [r3]
 1255 0150 D31A     		subs	r3, r2, r3
 1256 0152 04E0     		b	.L95
 1257              	.L94:
 1258              		.loc 1 488 0 discriminator 2
 1259 0154 594B     		ldr	r3, .L155+16
 1260 0156 1A68     		ldr	r2, [r3]
 1261 0158 594B     		ldr	r3, .L155+20
 1262 015a 1B68     		ldr	r3, [r3]
 1263 015c D31A     		subs	r3, r2, r3
 1264              	.L95:
 1265              		.loc 1 488 0 discriminator 4
ARM GAS  C:\Users\mgnocco\AppData\Local\Temp\ccuVecaK.s 			page 32


 1266 015e BB60     		str	r3, [r7, #8]
 489:..\src/interruptions.c ****             if (curr_off > bin_threshold){
 1267              		.loc 1 489 0 is_stmt 1 discriminator 4
 1268 0160 584B     		ldr	r3, .L155+24
 1269 0162 1B68     		ldr	r3, [r3]
 1270 0164 BA68     		ldr	r2, [r7, #8]
 1271 0166 9A42     		cmp	r2, r3
 1272 0168 40F39680 		ble	.L96
 490:..\src/interruptions.c ****                 //update position histogram
 491:..\src/interruptions.c ****                 step = ((int32)(g_mem.motor[0].pos_lim_sup >> g_mem.enc[g_mem.motor[0].encoder_line
 1273              		.loc 1 491 0
 1274 016c 4F4B     		ldr	r3, .L155
 1275 016e D3F8E820 		ldr	r2, [r3, #232]
 1276 0172 4E4B     		ldr	r3, .L155
 1277 0174 93F81031 		ldrb	r3, [r3, #272]	@ zero_extendqisi2
 1278 0178 1846     		mov	r0, r3
 1279 017a 4C49     		ldr	r1, .L155
 1280 017c 0346     		mov	r3, r0
 1281 017e 5B00     		lsls	r3, r3, #1
 1282 0180 0344     		add	r3, r3, r0
 1283 0182 1B01     		lsls	r3, r3, #4
 1284 0184 0B44     		add	r3, r3, r1
 1285 0186 03F20523 		addw	r3, r3, #517
 1286 018a 1B78     		ldrb	r3, [r3]	@ zero_extendqisi2
 1287 018c 42FA03F3 		asr	r3, r2, r3
 1288 0190 4D4A     		ldr	r2, .L155+28
 1289 0192 82FB0312 		smull	r1, r2, r2, r3
 1290 0196 9210     		asrs	r2, r2, #2
 1291 0198 DB17     		asrs	r3, r3, #31
 1292 019a D31A     		subs	r3, r2, r3
 1293 019c 7B60     		str	r3, [r7, #4]
 492:..\src/interruptions.c ****                 bin_st  = (uint8)(thr_pos/step);
 1294              		.loc 1 492 0
 1295 019e 474B     		ldr	r3, .L155+16
 1296 01a0 1A68     		ldr	r2, [r3]
 1297 01a2 7B68     		ldr	r3, [r7, #4]
 1298 01a4 92FBF3F3 		sdiv	r3, r2, r3
 1299 01a8 FB70     		strb	r3, [r7, #3]
 493:..\src/interruptions.c ****                 bin_max = (uint8)(max_pos/step);
 1300              		.loc 1 493 0
 1301 01aa 454B     		ldr	r3, .L155+20
 1302 01ac 1A68     		ldr	r2, [r3]
 1303 01ae 7B68     		ldr	r3, [r7, #4]
 1304 01b0 92FBF3F3 		sdiv	r3, r2, r3
 1305 01b4 BB70     		strb	r3, [r7, #2]
 494:..\src/interruptions.c ****                 
 495:..\src/interruptions.c ****                 // Bin computation valid for both NO and NC working
 496:..\src/interruptions.c ****                 bin_1 = (bin_st<bin_max)?bin_st:bin_max;
 1306              		.loc 1 496 0
 1307 01b6 BA78     		ldrb	r2, [r7, #2]	@ zero_extendqisi2
 1308 01b8 FB78     		ldrb	r3, [r7, #3]	@ zero_extendqisi2
 1309 01ba 9342     		cmp	r3, r2
 1310 01bc 28BF     		it	cs
 1311 01be 1346     		movcs	r3, r2
 1312 01c0 7B70     		strb	r3, [r7, #1]
 497:..\src/interruptions.c ****                 bin_2 = (bin_st<bin_max)?bin_max:bin_st;    
 1313              		.loc 1 497 0
ARM GAS  C:\Users\mgnocco\AppData\Local\Temp\ccuVecaK.s 			page 33


 1314 01c2 FA78     		ldrb	r2, [r7, #3]	@ zero_extendqisi2
 1315 01c4 BB78     		ldrb	r3, [r7, #2]	@ zero_extendqisi2
 1316 01c6 9342     		cmp	r3, r2
 1317 01c8 38BF     		it	cc
 1318 01ca 1346     		movcc	r3, r2
 1319 01cc 3B70     		strb	r3, [r7]
 498:..\src/interruptions.c ****                 for (i=bin_1; i<= bin_2 && i <10; i++){
 1320              		.loc 1 498 0
 1321 01ce 7B78     		ldrb	r3, [r7, #1]
 1322 01d0 FB75     		strb	r3, [r7, #23]
 1323 01d2 0DE0     		b	.L97
 1324              	.L99:
 499:..\src/interruptions.c ****                     //position_hist counts how many times the SoftHand stays in bin while moving
 500:..\src/interruptions.c ****                     g_mem.cnt.position_hist[i] = g_mem.cnt.position_hist[i] + 1;
 1325              		.loc 1 500 0 discriminator 4
 1326 01d4 FB7D     		ldrb	r3, [r7, #23]	@ zero_extendqisi2
 1327 01d6 FA7D     		ldrb	r2, [r7, #23]	@ zero_extendqisi2
 1328 01d8 3449     		ldr	r1, .L155
 1329 01da 0632     		adds	r2, r2, #6
 1330 01dc 51F82220 		ldr	r2, [r1, r2, lsl #2]
 1331 01e0 0132     		adds	r2, r2, #1
 1332 01e2 3249     		ldr	r1, .L155
 1333 01e4 0633     		adds	r3, r3, #6
 1334 01e6 41F82320 		str	r2, [r1, r3, lsl #2]
 498:..\src/interruptions.c ****                 for (i=bin_1; i<= bin_2 && i <10; i++){
 1335              		.loc 1 498 0 discriminator 4
 1336 01ea FB7D     		ldrb	r3, [r7, #23]	@ zero_extendqisi2
 1337 01ec 0133     		adds	r3, r3, #1
 1338 01ee FB75     		strb	r3, [r7, #23]
 1339              	.L97:
 498:..\src/interruptions.c ****                 for (i=bin_1; i<= bin_2 && i <10; i++){
 1340              		.loc 1 498 0 is_stmt 0 discriminator 1
 1341 01f0 FA7D     		ldrb	r2, [r7, #23]	@ zero_extendqisi2
 1342 01f2 3B78     		ldrb	r3, [r7]	@ zero_extendqisi2
 1343 01f4 9A42     		cmp	r2, r3
 1344 01f6 02D8     		bhi	.L98
 498:..\src/interruptions.c ****                 for (i=bin_1; i<= bin_2 && i <10; i++){
 1345              		.loc 1 498 0 discriminator 3
 1346 01f8 FB7D     		ldrb	r3, [r7, #23]	@ zero_extendqisi2
 1347 01fa 092B     		cmp	r3, #9
 1348 01fc EAD9     		bls	.L99
 1349              	.L98:
 501:..\src/interruptions.c ****                 }
 502:..\src/interruptions.c ****                 
 503:..\src/interruptions.c ****                 //update current histogram (only positive current measures)
 504:..\src/interruptions.c ****                 step = ((int32)(g_mem.motor[0].current_limit) / 4);
 1350              		.loc 1 504 0 is_stmt 1
 1351 01fe 2B4B     		ldr	r3, .L155
 1352 0200 B3F90C31 		ldrsh	r3, [r3, #268]
 1353 0204 002B     		cmp	r3, #0
 1354 0206 00DA     		bge	.L100
 1355 0208 0333     		adds	r3, r3, #3
 1356              	.L100:
 1357 020a 9B10     		asrs	r3, r3, #2
 1358 020c 1BB2     		sxth	r3, r3
 1359 020e 7B60     		str	r3, [r7, #4]
 505:..\src/interruptions.c ****                 if (g_mem.motor[0].not_revers_motor_flag == TRUE)
ARM GAS  C:\Users\mgnocco\AppData\Local\Temp\ccuVecaK.s 			page 34


 1360              		.loc 1 505 0
 1361 0210 264B     		ldr	r3, .L155
 1362 0212 93F81231 		ldrb	r3, [r3, #274]	@ zero_extendqisi2
 1363 0216 012B     		cmp	r3, #1
 1364 0218 0CD1     		bne	.L101
 506:..\src/interruptions.c ****                     curr_ref = g_meas[g_mem.motor[0].encoder_line].hold_curr; 
 1365              		.loc 1 506 0
 1366 021a 244B     		ldr	r3, .L155
 1367 021c 93F81031 		ldrb	r3, [r3, #272]	@ zero_extendqisi2
 1368 0220 1946     		mov	r1, r3
 1369 0222 234A     		ldr	r2, .L155+4
 1370 0224 3423     		movs	r3, #52
 1371 0226 03FB01F3 		mul	r3, r3, r1
 1372 022a 1344     		add	r3, r3, r2
 1373 022c 1433     		adds	r3, r3, #20
 1374 022e 1B68     		ldr	r3, [r3]
 1375 0230 3B61     		str	r3, [r7, #16]
 1376 0232 0BE0     		b	.L102
 1377              	.L101:
 507:..\src/interruptions.c ****                 else
 508:..\src/interruptions.c ****                     curr_ref = g_meas[g_mem.motor[0].encoder_line].curr;
 1378              		.loc 1 508 0
 1379 0234 1D4B     		ldr	r3, .L155
 1380 0236 93F81031 		ldrb	r3, [r3, #272]	@ zero_extendqisi2
 1381 023a 1946     		mov	r1, r3
 1382 023c 1C4A     		ldr	r2, .L155+4
 1383 023e 3423     		movs	r3, #52
 1384 0240 03FB01F3 		mul	r3, r3, r1
 1385 0244 1344     		add	r3, r3, r2
 1386 0246 0C33     		adds	r3, r3, #12
 1387 0248 1B68     		ldr	r3, [r3]
 1388 024a 3B61     		str	r3, [r7, #16]
 1389              	.L102:
 509:..\src/interruptions.c **** 
 510:..\src/interruptions.c ****                 if (curr_ref < 0){
 1390              		.loc 1 510 0
 1391 024c 3B69     		ldr	r3, [r7, #16]
 1392 024e 002B     		cmp	r3, #0
 1393 0250 02DA     		bge	.L103
 511:..\src/interruptions.c ****                     curr_ref = -curr_ref;       // Invert sign to have a positive current reading i
 1394              		.loc 1 511 0
 1395 0252 3B69     		ldr	r3, [r7, #16]
 1396 0254 5B42     		negs	r3, r3
 1397 0256 3B61     		str	r3, [r7, #16]
 1398              	.L103:
 512:..\src/interruptions.c ****                 }
 513:..\src/interruptions.c ****                 
 514:..\src/interruptions.c ****                 if (curr_ref > g_mem.motor[0].current_limit)
 1399              		.loc 1 514 0
 1400 0258 144B     		ldr	r3, .L155
 1401 025a B3F90C31 		ldrsh	r3, [r3, #268]
 1402 025e 1A46     		mov	r2, r3
 1403 0260 3B69     		ldr	r3, [r7, #16]
 1404 0262 9A42     		cmp	r2, r3
 1405 0264 05DA     		bge	.L104
 515:..\src/interruptions.c ****                     g_mem.cnt.current_hist[3] = g_mem.cnt.current_hist[3] + 1; 
 1406              		.loc 1 515 0
ARM GAS  C:\Users\mgnocco\AppData\Local\Temp\ccuVecaK.s 			page 35


 1407 0266 114B     		ldr	r3, .L155
 1408 0268 DB6C     		ldr	r3, [r3, #76]
 1409 026a 0133     		adds	r3, r3, #1
 1410 026c 0F4A     		ldr	r2, .L155
 1411 026e D364     		str	r3, [r2, #76]
 1412 0270 12E0     		b	.L96
 1413              	.L104:
 516:..\src/interruptions.c ****                 else
 517:..\src/interruptions.c ****                     g_mem.cnt.current_hist[(uint8)(curr_ref/step)] = g_mem.cnt.current_hist[(uint8)
 1414              		.loc 1 517 0
 1415 0272 3A69     		ldr	r2, [r7, #16]
 1416 0274 7B68     		ldr	r3, [r7, #4]
 1417 0276 92FBF3F3 		sdiv	r3, r2, r3
 1418 027a DBB2     		uxtb	r3, r3
 1419 027c 3969     		ldr	r1, [r7, #16]
 1420 027e 7A68     		ldr	r2, [r7, #4]
 1421 0280 91FBF2F2 		sdiv	r2, r1, r2
 1422 0284 D2B2     		uxtb	r2, r2
 1423 0286 0949     		ldr	r1, .L155
 1424 0288 1032     		adds	r2, r2, #16
 1425 028a 51F82220 		ldr	r2, [r1, r2, lsl #2]
 1426 028e 0132     		adds	r2, r2, #1
 1427 0290 0649     		ldr	r1, .L155
 1428 0292 1033     		adds	r3, r3, #16
 1429 0294 41F82320 		str	r2, [r1, r3, lsl #2]
 1430              	.L96:
 518:..\src/interruptions.c ****             }
 519:..\src/interruptions.c ****             pos_cycle_status = STATE_INACTIVE;
 1431              		.loc 1 519 0
 1432 0298 064B     		ldr	r3, .L155+8
 1433 029a 0022     		movs	r2, #0
 1434 029c 1A70     		strb	r2, [r3]
 520:..\src/interruptions.c ****             break;
 1435              		.loc 1 520 0
 1436 029e 02E0     		b	.L78
 1437              	.L145:
 475:..\src/interruptions.c ****         case STATE_ACTIVE:
 1438              		.loc 1 475 0
 1439 02a0 00BF     		nop
 1440 02a2 00E0     		b	.L78
 1441              	.L146:
 485:..\src/interruptions.c ****         case COUNTER_INC:
 1442              		.loc 1 485 0
 1443 02a4 00BF     		nop
 1444              	.L78:
 521:..\src/interruptions.c ****     }
 522:..\src/interruptions.c ****     
 523:..\src/interruptions.c ****     // State machine - Evaluate EMG activation counter update
 524:..\src/interruptions.c ****     for (i=0; i<2 && emg_1_status == NORMAL && emg_2_status == NORMAL; i++){
 1445              		.loc 1 524 0
 1446 02a6 0023     		movs	r3, #0
 1447 02a8 FB75     		strb	r3, [r7, #23]
 1448 02aa 51E0     		b	.L105
 1449              	.L156:
 1450              		.align	2
 1451              	.L155:
 1452 02ac 00000000 		.word	g_mem
ARM GAS  C:\Users\mgnocco\AppData\Local\Temp\ccuVecaK.s 			page 36


 1453 02b0 00000000 		.word	g_meas
 1454 02b4 94000000 		.word	pos_cycle_status.9759
 1455 02b8 00000000 		.word	pwm_sign
 1456 02bc 98000000 		.word	thr_pos.9766
 1457 02c0 9C000000 		.word	max_pos.9767
 1458 02c4 00000000 		.word	bin_threshold.9764
 1459 02c8 67666666 		.word	1717986919
 1460              	.L113:
 525:..\src/interruptions.c ****         switch (emg_cycle_status[i]){
 1461              		.loc 1 525 0
 1462 02cc FB7D     		ldrb	r3, [r7, #23]	@ zero_extendqisi2
 1463 02ce 9E4A     		ldr	r2, .L157
 1464 02d0 D35C     		ldrb	r3, [r2, r3]	@ zero_extendqisi2
 1465 02d2 012B     		cmp	r3, #1
 1466 02d4 14D0     		beq	.L107
 1467 02d6 022B     		cmp	r3, #2
 1468 02d8 24D0     		beq	.L108
 1469 02da 002B     		cmp	r3, #0
 1470 02dc 35D1     		bne	.L106
 526:..\src/interruptions.c ****             case STATE_INACTIVE:
 527:..\src/interruptions.c ****                 if (g_adc_meas.emg[i] > g_mem.emg.emg_threshold[i]){
 1471              		.loc 1 527 0
 1472 02de FB7D     		ldrb	r3, [r7, #23]	@ zero_extendqisi2
 1473 02e0 9A4A     		ldr	r2, .L157+4
 1474 02e2 52F82330 		ldr	r3, [r2, r3, lsl #2]
 1475 02e6 FA7D     		ldrb	r2, [r7, #23]	@ zero_extendqisi2
 1476 02e8 9949     		ldr	r1, .L157+8
 1477 02ea 02F59872 		add	r2, r2, #304
 1478 02ee 31F81220 		ldrh	r2, [r1, r2, lsl #1]
 1479 02f2 9342     		cmp	r3, r2
 1480 02f4 26DD     		ble	.L147
 528:..\src/interruptions.c ****                     emg_cycle_status[i] = STATE_ACTIVE;
 1481              		.loc 1 528 0
 1482 02f6 FB7D     		ldrb	r3, [r7, #23]	@ zero_extendqisi2
 1483 02f8 934A     		ldr	r2, .L157
 1484 02fa 0121     		movs	r1, #1
 1485 02fc D154     		strb	r1, [r2, r3]
 529:..\src/interruptions.c ****                 }
 530:..\src/interruptions.c ****                 break;
 1486              		.loc 1 530 0
 1487 02fe 21E0     		b	.L147
 1488              	.L107:
 531:..\src/interruptions.c ****             case STATE_ACTIVE:
 532:..\src/interruptions.c ****                 if (g_adc_meas.emg[i] < g_mem.emg.emg_threshold[i]-10){                    
 1489              		.loc 1 532 0
 1490 0300 FB7D     		ldrb	r3, [r7, #23]	@ zero_extendqisi2
 1491 0302 924A     		ldr	r2, .L157+4
 1492 0304 52F82320 		ldr	r2, [r2, r3, lsl #2]
 1493 0308 FB7D     		ldrb	r3, [r7, #23]	@ zero_extendqisi2
 1494 030a 9149     		ldr	r1, .L157+8
 1495 030c 03F59873 		add	r3, r3, #304
 1496 0310 31F81330 		ldrh	r3, [r1, r3, lsl #1]
 1497 0314 0A3B     		subs	r3, r3, #10
 1498 0316 9A42     		cmp	r2, r3
 1499 0318 16DA     		bge	.L148
 533:..\src/interruptions.c ****                     emg_cycle_status[i] = COUNTER_INC;
 1500              		.loc 1 533 0
ARM GAS  C:\Users\mgnocco\AppData\Local\Temp\ccuVecaK.s 			page 37


 1501 031a FB7D     		ldrb	r3, [r7, #23]	@ zero_extendqisi2
 1502 031c 8A4A     		ldr	r2, .L157
 1503 031e 0221     		movs	r1, #2
 1504 0320 D154     		strb	r1, [r2, r3]
 534:..\src/interruptions.c ****                 }
 535:..\src/interruptions.c ****                 break;
 1505              		.loc 1 535 0
 1506 0322 11E0     		b	.L148
 1507              	.L108:
 536:..\src/interruptions.c ****             case COUNTER_INC:
 537:..\src/interruptions.c ****                 g_mem.cnt.emg_act_counter[i] = g_mem.cnt.emg_act_counter[i] + 1;
 1508              		.loc 1 537 0
 1509 0324 FB7D     		ldrb	r3, [r7, #23]	@ zero_extendqisi2
 1510 0326 FA7D     		ldrb	r2, [r7, #23]	@ zero_extendqisi2
 1511 0328 8949     		ldr	r1, .L157+8
 1512 032a 0432     		adds	r2, r2, #4
 1513 032c 51F82220 		ldr	r2, [r1, r2, lsl #2]
 1514 0330 0132     		adds	r2, r2, #1
 1515 0332 8749     		ldr	r1, .L157+8
 1516 0334 0433     		adds	r3, r3, #4
 1517 0336 41F82320 		str	r2, [r1, r3, lsl #2]
 538:..\src/interruptions.c ****                 emg_cycle_status[i] = STATE_INACTIVE;
 1518              		.loc 1 538 0
 1519 033a FB7D     		ldrb	r3, [r7, #23]	@ zero_extendqisi2
 1520 033c 824A     		ldr	r2, .L157
 1521 033e 0021     		movs	r1, #0
 1522 0340 D154     		strb	r1, [r2, r3]
 539:..\src/interruptions.c ****                 break;
 1523              		.loc 1 539 0
 1524 0342 02E0     		b	.L106
 1525              	.L147:
 530:..\src/interruptions.c ****             case STATE_ACTIVE:
 1526              		.loc 1 530 0
 1527 0344 00BF     		nop
 1528 0346 00E0     		b	.L106
 1529              	.L148:
 535:..\src/interruptions.c ****             case COUNTER_INC:
 1530              		.loc 1 535 0
 1531 0348 00BF     		nop
 1532              	.L106:
 524:..\src/interruptions.c ****         switch (emg_cycle_status[i]){
 1533              		.loc 1 524 0 discriminator 2
 1534 034a FB7D     		ldrb	r3, [r7, #23]	@ zero_extendqisi2
 1535 034c 0133     		adds	r3, r3, #1
 1536 034e FB75     		strb	r3, [r7, #23]
 1537              	.L105:
 524:..\src/interruptions.c ****         switch (emg_cycle_status[i]){
 1538              		.loc 1 524 0 is_stmt 0 discriminator 1
 1539 0350 FB7D     		ldrb	r3, [r7, #23]	@ zero_extendqisi2
 1540 0352 012B     		cmp	r3, #1
 1541 0354 07D8     		bhi	.L112
 524:..\src/interruptions.c ****         switch (emg_cycle_status[i]){
 1542              		.loc 1 524 0 discriminator 3
 1543 0356 7F4B     		ldr	r3, .L157+12
 1544 0358 1B78     		ldrb	r3, [r3]	@ zero_extendqisi2
 1545 035a 002B     		cmp	r3, #0
 1546 035c 03D1     		bne	.L112
ARM GAS  C:\Users\mgnocco\AppData\Local\Temp\ccuVecaK.s 			page 38


 524:..\src/interruptions.c ****         switch (emg_cycle_status[i]){
 1547              		.loc 1 524 0 discriminator 4
 1548 035e 7E4B     		ldr	r3, .L157+16
 1549 0360 1B78     		ldrb	r3, [r3]	@ zero_extendqisi2
 1550 0362 002B     		cmp	r3, #0
 1551 0364 B2D0     		beq	.L113
 1552              	.L112:
 540:..\src/interruptions.c ****         }
 541:..\src/interruptions.c ****     }
 542:..\src/interruptions.c ****     
 543:..\src/interruptions.c ****     // State machine - Evaluate Motion counter update
 544:..\src/interruptions.c ****     for (i=0; i<2 && emg_1_status == NORMAL && emg_2_status == NORMAL; i++){
 1553              		.loc 1 544 0 is_stmt 1
 1554 0366 0023     		movs	r3, #0
 1555 0368 FB75     		strb	r3, [r7, #23]
 1556 036a 59E0     		b	.L114
 1557              	.L123:
 545:..\src/interruptions.c ****         switch (motion_status[i]){
 1558              		.loc 1 545 0
 1559 036c FB7D     		ldrb	r3, [r7, #23]	@ zero_extendqisi2
 1560 036e 7B4A     		ldr	r2, .L157+20
 1561 0370 D35C     		ldrb	r3, [r2, r3]	@ zero_extendqisi2
 1562 0372 012B     		cmp	r3, #1
 1563 0374 19D0     		beq	.L116
 1564 0376 022B     		cmp	r3, #2
 1565 0378 39D0     		beq	.L117
 1566 037a 002B     		cmp	r3, #0
 1567 037c 4DD1     		bne	.L115
 546:..\src/interruptions.c ****             case STATE_INACTIVE:
 547:..\src/interruptions.c ****                 if (g_adc_meas.emg[i] > g_mem.emg.emg_threshold[i]){
 1568              		.loc 1 547 0
 1569 037e FB7D     		ldrb	r3, [r7, #23]	@ zero_extendqisi2
 1570 0380 724A     		ldr	r2, .L157+4
 1571 0382 52F82330 		ldr	r3, [r2, r3, lsl #2]
 1572 0386 FA7D     		ldrb	r2, [r7, #23]	@ zero_extendqisi2
 1573 0388 7149     		ldr	r1, .L157+8
 1574 038a 02F59872 		add	r2, r2, #304
 1575 038e 31F81220 		ldrh	r2, [r1, r2, lsl #1]
 1576 0392 9342     		cmp	r3, r2
 1577 0394 3EDD     		ble	.L149
 548:..\src/interruptions.c ****                     start_emg_pos[i] = curr_pos;
 1578              		.loc 1 548 0
 1579 0396 FB7D     		ldrb	r3, [r7, #23]	@ zero_extendqisi2
 1580 0398 7149     		ldr	r1, .L157+24
 1581 039a FA68     		ldr	r2, [r7, #12]
 1582 039c 41F82320 		str	r2, [r1, r3, lsl #2]
 549:..\src/interruptions.c ****                     motion_status[i] = STATE_ACTIVE;
 1583              		.loc 1 549 0
 1584 03a0 FB7D     		ldrb	r3, [r7, #23]	@ zero_extendqisi2
 1585 03a2 6E4A     		ldr	r2, .L157+20
 1586 03a4 0121     		movs	r1, #1
 1587 03a6 D154     		strb	r1, [r2, r3]
 550:..\src/interruptions.c ****                 }
 551:..\src/interruptions.c ****                 break;
 1588              		.loc 1 551 0
 1589 03a8 34E0     		b	.L149
 1590              	.L116:
ARM GAS  C:\Users\mgnocco\AppData\Local\Temp\ccuVecaK.s 			page 39


 552:..\src/interruptions.c ****             case STATE_ACTIVE:
 553:..\src/interruptions.c ****                 if (g_adc_meas.emg[i] < g_mem.emg.emg_threshold[i]-10){                    
 1591              		.loc 1 553 0
 1592 03aa FB7D     		ldrb	r3, [r7, #23]	@ zero_extendqisi2
 1593 03ac 674A     		ldr	r2, .L157+4
 1594 03ae 52F82320 		ldr	r2, [r2, r3, lsl #2]
 1595 03b2 FB7D     		ldrb	r3, [r7, #23]	@ zero_extendqisi2
 1596 03b4 6649     		ldr	r1, .L157+8
 1597 03b6 03F59873 		add	r3, r3, #304
 1598 03ba 31F81330 		ldrh	r3, [r1, r3, lsl #1]
 1599 03be 0A3B     		subs	r3, r3, #10
 1600 03c0 9A42     		cmp	r2, r3
 1601 03c2 29DA     		bge	.L150
 554:..\src/interruptions.c ****                     if (abs(start_emg_pos[i] - curr_pos) > 200){     // it has to be a sensible mov
 1602              		.loc 1 554 0
 1603 03c4 FB7D     		ldrb	r3, [r7, #23]	@ zero_extendqisi2
 1604 03c6 664A     		ldr	r2, .L157+24
 1605 03c8 52F82320 		ldr	r2, [r2, r3, lsl #2]
 1606 03cc FB68     		ldr	r3, [r7, #12]
 1607 03ce D31A     		subs	r3, r2, r3
 1608 03d0 002B     		cmp	r3, #0
 1609 03d2 B8BF     		it	lt
 1610 03d4 5B42     		rsblt	r3, r3, #0
 1611 03d6 C82B     		cmp	r3, #200
 1612 03d8 04DD     		ble	.L121
 555:..\src/interruptions.c ****                         motion_status[i] = COUNTER_INC;
 1613              		.loc 1 555 0
 1614 03da FB7D     		ldrb	r3, [r7, #23]	@ zero_extendqisi2
 1615 03dc 5F4A     		ldr	r2, .L157+20
 1616 03de 0221     		movs	r1, #2
 1617 03e0 D154     		strb	r1, [r2, r3]
 556:..\src/interruptions.c ****                     }
 557:..\src/interruptions.c ****                     else {
 558:..\src/interruptions.c ****                         motion_status[i] = STATE_INACTIVE;
 559:..\src/interruptions.c ****                     }
 560:..\src/interruptions.c ****                 }
 561:..\src/interruptions.c ****                 break;
 1618              		.loc 1 561 0
 1619 03e2 19E0     		b	.L150
 1620              	.L121:
 558:..\src/interruptions.c ****                     }
 1621              		.loc 1 558 0
 1622 03e4 FB7D     		ldrb	r3, [r7, #23]	@ zero_extendqisi2
 1623 03e6 5D4A     		ldr	r2, .L157+20
 1624 03e8 0021     		movs	r1, #0
 1625 03ea D154     		strb	r1, [r2, r3]
 1626              		.loc 1 561 0
 1627 03ec 14E0     		b	.L150
 1628              	.L117:
 562:..\src/interruptions.c ****             case COUNTER_INC:
 563:..\src/interruptions.c ****                 g_mem.cnt.motion_counter[i] = g_mem.cnt.motion_counter[i] + 1;
 1629              		.loc 1 563 0
 1630 03ee F97D     		ldrb	r1, [r7, #23]	@ zero_extendqisi2
 1631 03f0 FB7D     		ldrb	r3, [r7, #23]	@ zero_extendqisi2
 1632 03f2 574A     		ldr	r2, .L157+8
 1633 03f4 1A33     		adds	r3, r3, #26
 1634 03f6 9B00     		lsls	r3, r3, #2
ARM GAS  C:\Users\mgnocco\AppData\Local\Temp\ccuVecaK.s 			page 40


 1635 03f8 1344     		add	r3, r3, r2
 1636 03fa 5B68     		ldr	r3, [r3, #4]
 1637 03fc 5A1C     		adds	r2, r3, #1
 1638 03fe 5448     		ldr	r0, .L157+8
 1639 0400 01F11A03 		add	r3, r1, #26
 1640 0404 9B00     		lsls	r3, r3, #2
 1641 0406 0344     		add	r3, r3, r0
 1642 0408 5A60     		str	r2, [r3, #4]
 564:..\src/interruptions.c ****                 motion_status[i] = STATE_INACTIVE;
 1643              		.loc 1 564 0
 1644 040a FB7D     		ldrb	r3, [r7, #23]	@ zero_extendqisi2
 1645 040c 534A     		ldr	r2, .L157+20
 1646 040e 0021     		movs	r1, #0
 1647 0410 D154     		strb	r1, [r2, r3]
 565:..\src/interruptions.c ****                 break;
 1648              		.loc 1 565 0
 1649 0412 02E0     		b	.L115
 1650              	.L149:
 551:..\src/interruptions.c ****             case STATE_ACTIVE:
 1651              		.loc 1 551 0
 1652 0414 00BF     		nop
 1653 0416 00E0     		b	.L115
 1654              	.L150:
 561:..\src/interruptions.c ****             case COUNTER_INC:
 1655              		.loc 1 561 0
 1656 0418 00BF     		nop
 1657              	.L115:
 544:..\src/interruptions.c ****         switch (motion_status[i]){
 1658              		.loc 1 544 0 discriminator 2
 1659 041a FB7D     		ldrb	r3, [r7, #23]	@ zero_extendqisi2
 1660 041c 0133     		adds	r3, r3, #1
 1661 041e FB75     		strb	r3, [r7, #23]
 1662              	.L114:
 544:..\src/interruptions.c ****         switch (motion_status[i]){
 1663              		.loc 1 544 0 is_stmt 0 discriminator 1
 1664 0420 FB7D     		ldrb	r3, [r7, #23]	@ zero_extendqisi2
 1665 0422 012B     		cmp	r3, #1
 1666 0424 07D8     		bhi	.L122
 544:..\src/interruptions.c ****         switch (motion_status[i]){
 1667              		.loc 1 544 0 discriminator 3
 1668 0426 4B4B     		ldr	r3, .L157+12
 1669 0428 1B78     		ldrb	r3, [r3]	@ zero_extendqisi2
 1670 042a 002B     		cmp	r3, #0
 1671 042c 03D1     		bne	.L122
 544:..\src/interruptions.c ****         switch (motion_status[i]){
 1672              		.loc 1 544 0 discriminator 4
 1673 042e 4A4B     		ldr	r3, .L157+16
 1674 0430 1B78     		ldrb	r3, [r3]	@ zero_extendqisi2
 1675 0432 002B     		cmp	r3, #0
 1676 0434 9AD0     		beq	.L123
 1677              	.L122:
 566:..\src/interruptions.c ****         }
 567:..\src/interruptions.c ****     }
 568:..\src/interruptions.c ****     
 569:..\src/interruptions.c ****     // State machine - Evaluate EMG excessive activity counter update
 570:..\src/interruptions.c ****     for (i=0; i<2 && emg_1_status == NORMAL && emg_2_status == NORMAL; i++){
 1678              		.loc 1 570 0 is_stmt 1
ARM GAS  C:\Users\mgnocco\AppData\Local\Temp\ccuVecaK.s 			page 41


 1679 0436 0023     		movs	r3, #0
 1680 0438 FB75     		strb	r3, [r7, #23]
 1681 043a A3E0     		b	.L124
 1682              	.L135:
 571:..\src/interruptions.c ****         switch (emg_excess_status[i]){
 1683              		.loc 1 571 0
 1684 043c FB7D     		ldrb	r3, [r7, #23]	@ zero_extendqisi2
 1685 043e 494A     		ldr	r2, .L157+28
 1686 0440 D35C     		ldrb	r3, [r2, r3]	@ zero_extendqisi2
 1687 0442 012B     		cmp	r3, #1
 1688 0444 19D0     		beq	.L126
 1689 0446 022B     		cmp	r3, #2
 1690 0448 68D0     		beq	.L127
 1691 044a 002B     		cmp	r3, #0
 1692 044c 40F09780 		bne	.L125
 572:..\src/interruptions.c ****             case STATE_INACTIVE:
 573:..\src/interruptions.c ****                 if (g_adc_meas.emg[i] > exc_act_thr){
 1693              		.loc 1 573 0
 1694 0450 FB7D     		ldrb	r3, [r7, #23]	@ zero_extendqisi2
 1695 0452 3E4A     		ldr	r2, .L157+4
 1696 0454 52F82320 		ldr	r2, [r2, r3, lsl #2]
 1697 0458 434B     		ldr	r3, .L157+32
 1698 045a 1B68     		ldr	r3, [r3]
 1699 045c 9A42     		cmp	r2, r3
 1700 045e 70DD     		ble	.L151
 574:..\src/interruptions.c ****                     timer_exc_s[i] = (uint32)CYCLES_TIMER_ReadCounter();
 1701              		.loc 1 574 0
 1702 0460 FC7D     		ldrb	r4, [r7, #23]	@ zero_extendqisi2
 1703 0462 FFF7FEFF 		bl	CYCLES_TIMER_ReadCounter
 1704 0466 0346     		mov	r3, r0
 1705 0468 1A46     		mov	r2, r3
 1706 046a 404B     		ldr	r3, .L157+36
 1707 046c 43F82420 		str	r2, [r3, r4, lsl #2]
 575:..\src/interruptions.c ****                     emg_excess_status[i] = STATE_ACTIVE;
 1708              		.loc 1 575 0
 1709 0470 FB7D     		ldrb	r3, [r7, #23]	@ zero_extendqisi2
 1710 0472 3C4A     		ldr	r2, .L157+28
 1711 0474 0121     		movs	r1, #1
 1712 0476 D154     		strb	r1, [r2, r3]
 576:..\src/interruptions.c ****                 }
 577:..\src/interruptions.c ****                 break;
 1713              		.loc 1 577 0
 1714 0478 63E0     		b	.L151
 1715              	.L126:
 578:..\src/interruptions.c ****             case STATE_ACTIVE:
 579:..\src/interruptions.c ****                 if (g_adc_meas.emg[i] < exc_act_thr-10){
 1716              		.loc 1 579 0
 1717 047a FB7D     		ldrb	r3, [r7, #23]	@ zero_extendqisi2
 1718 047c 334A     		ldr	r2, .L157+4
 1719 047e 52F82320 		ldr	r2, [r2, r3, lsl #2]
 1720 0482 394B     		ldr	r3, .L157+32
 1721 0484 1B68     		ldr	r3, [r3]
 1722 0486 0A3B     		subs	r3, r3, #10
 1723 0488 9A42     		cmp	r2, r3
 1724 048a 77DA     		bge	.L152
 580:..\src/interruptions.c ****                     timer_exc_e[i] = (uint32)CYCLES_TIMER_ReadCounter();
 1725              		.loc 1 580 0
ARM GAS  C:\Users\mgnocco\AppData\Local\Temp\ccuVecaK.s 			page 42


 1726 048c FC7D     		ldrb	r4, [r7, #23]	@ zero_extendqisi2
 1727 048e FFF7FEFF 		bl	CYCLES_TIMER_ReadCounter
 1728 0492 0346     		mov	r3, r0
 1729 0494 1A46     		mov	r2, r3
 1730 0496 364B     		ldr	r3, .L157+40
 1731 0498 43F82420 		str	r2, [r3, r4, lsl #2]
 581:..\src/interruptions.c ****                     if (timer_exc_s[i] < timer_exc_e[i]) {
 1732              		.loc 1 581 0
 1733 049c FB7D     		ldrb	r3, [r7, #23]	@ zero_extendqisi2
 1734 049e 334A     		ldr	r2, .L157+36
 1735 04a0 52F82320 		ldr	r2, [r2, r3, lsl #2]
 1736 04a4 FB7D     		ldrb	r3, [r7, #23]	@ zero_extendqisi2
 1737 04a6 3249     		ldr	r1, .L157+40
 1738 04a8 51F82330 		ldr	r3, [r1, r3, lsl #2]
 1739 04ac 9A42     		cmp	r2, r3
 1740 04ae 0AD2     		bcs	.L131
 582:..\src/interruptions.c ****                         timer_exc_s[i] = timer_exc_s[i] + (uint32)6000;
 1741              		.loc 1 582 0
 1742 04b0 FA7D     		ldrb	r2, [r7, #23]	@ zero_extendqisi2
 1743 04b2 FB7D     		ldrb	r3, [r7, #23]	@ zero_extendqisi2
 1744 04b4 2D49     		ldr	r1, .L157+36
 1745 04b6 51F82330 		ldr	r3, [r1, r3, lsl #2]
 1746 04ba 03F5BB53 		add	r3, r3, #5984
 1747 04be 1033     		adds	r3, r3, #16
 1748 04c0 2A49     		ldr	r1, .L157+36
 1749 04c2 41F82230 		str	r3, [r1, r2, lsl #2]
 1750              	.L131:
 583:..\src/interruptions.c ****                     }
 584:..\src/interruptions.c ****                     if (((float)(timer_exc_s[i] - timer_exc_e[i])/50.0) > 4.0){      //50 timers ti
 1751              		.loc 1 584 0
 1752 04c6 FB7D     		ldrb	r3, [r7, #23]	@ zero_extendqisi2
 1753 04c8 284A     		ldr	r2, .L157+36
 1754 04ca 52F82320 		ldr	r2, [r2, r3, lsl #2]
 1755 04ce FB7D     		ldrb	r3, [r7, #23]	@ zero_extendqisi2
 1756 04d0 2749     		ldr	r1, .L157+40
 1757 04d2 51F82330 		ldr	r3, [r1, r3, lsl #2]
 1758 04d6 D31A     		subs	r3, r2, r3
 1759 04d8 1846     		mov	r0, r3
 1760 04da FFF7FEFF 		bl	__aeabi_ui2f
 1761 04de 0346     		mov	r3, r0
 1762 04e0 1846     		mov	r0, r3
 1763 04e2 FFF7FEFF 		bl	__aeabi_f2d
 1764 04e6 4FF00002 		mov	r2, #0
 1765 04ea 224B     		ldr	r3, .L157+44
 1766 04ec FFF7FEFF 		bl	__aeabi_ddiv
 1767 04f0 0346     		mov	r3, r0
 1768 04f2 0C46     		mov	r4, r1
 1769 04f4 1846     		mov	r0, r3
 1770 04f6 2146     		mov	r1, r4
 1771 04f8 4FF00002 		mov	r2, #0
 1772 04fc 1E4B     		ldr	r3, .L157+48
 1773 04fe FFF7FEFF 		bl	__aeabi_dcmpgt
 1774 0502 0346     		mov	r3, r0
 1775 0504 002B     		cmp	r3, #0
 1776 0506 04D0     		beq	.L144
 585:..\src/interruptions.c ****                         emg_excess_status[i] = COUNTER_INC;
 1777              		.loc 1 585 0
ARM GAS  C:\Users\mgnocco\AppData\Local\Temp\ccuVecaK.s 			page 43


 1778 0508 FB7D     		ldrb	r3, [r7, #23]	@ zero_extendqisi2
 1779 050a 164A     		ldr	r2, .L157+28
 1780 050c 0221     		movs	r1, #2
 1781 050e D154     		strb	r1, [r2, r3]
 586:..\src/interruptions.c ****                     }
 587:..\src/interruptions.c ****                     else {
 588:..\src/interruptions.c ****                         emg_excess_status[i] = STATE_INACTIVE;
 589:..\src/interruptions.c ****                     }
 590:..\src/interruptions.c ****                 }
 591:..\src/interruptions.c ****                 break;
 1782              		.loc 1 591 0
 1783 0510 34E0     		b	.L152
 1784              	.L144:
 588:..\src/interruptions.c ****                     }
 1785              		.loc 1 588 0
 1786 0512 FB7D     		ldrb	r3, [r7, #23]	@ zero_extendqisi2
 1787 0514 134A     		ldr	r2, .L157+28
 1788 0516 0021     		movs	r1, #0
 1789 0518 D154     		strb	r1, [r2, r3]
 1790              		.loc 1 591 0
 1791 051a 2FE0     		b	.L152
 1792              	.L127:
 592:..\src/interruptions.c ****             case COUNTER_INC:
 593:..\src/interruptions.c ****                 g_mem.cnt.excessive_signal_activity[i] = g_mem.cnt.excessive_signal_activity[i] + 1
 1793              		.loc 1 593 0
 1794 051c F97D     		ldrb	r1, [r7, #23]	@ zero_extendqisi2
 1795 051e FB7D     		ldrb	r3, [r7, #23]	@ zero_extendqisi2
 1796 0520 0B4A     		ldr	r2, .L157+8
 1797 0522 1833     		adds	r3, r3, #24
 1798 0524 9B00     		lsls	r3, r3, #2
 1799 0526 1344     		add	r3, r3, r2
 1800 0528 5B68     		ldr	r3, [r3, #4]
 1801 052a 5A1C     		adds	r2, r3, #1
 1802 052c 0848     		ldr	r0, .L157+8
 1803 052e 01F11803 		add	r3, r1, #24
 1804 0532 9B00     		lsls	r3, r3, #2
 1805 0534 0344     		add	r3, r3, r0
 1806 0536 5A60     		str	r2, [r3, #4]
 594:..\src/interruptions.c ****                 emg_excess_status[i] = STATE_INACTIVE;
 1807              		.loc 1 594 0
 1808 0538 FB7D     		ldrb	r3, [r7, #23]	@ zero_extendqisi2
 1809 053a 0A4A     		ldr	r2, .L157+28
 1810 053c 0021     		movs	r1, #0
 1811 053e D154     		strb	r1, [r2, r3]
 595:..\src/interruptions.c ****                 break;
 1812              		.loc 1 595 0
 1813 0540 1DE0     		b	.L125
 1814              	.L151:
 577:..\src/interruptions.c ****             case STATE_ACTIVE:
 1815              		.loc 1 577 0
 1816 0542 00BF     		nop
 1817 0544 1BE0     		b	.L125
 1818              	.L158:
 1819 0546 00BF     		.align	2
 1820              	.L157:
 1821 0548 A0000000 		.word	emg_cycle_status.9760
 1822 054c 00000000 		.word	g_adc_meas
ARM GAS  C:\Users\mgnocco\AppData\Local\Temp\ccuVecaK.s 			page 44


 1823 0550 00000000 		.word	g_mem
 1824 0554 00000000 		.word	emg_1_status
 1825 0558 00000000 		.word	emg_2_status
 1826 055c A4000000 		.word	motion_status.9761
 1827 0560 A8000000 		.word	start_emg_pos.9781
 1828 0564 B0000000 		.word	emg_excess_status.9762
 1829 0568 04000000 		.word	exc_act_thr.9765
 1830 056c B4000000 		.word	timer_exc_s.9779
 1831 0570 BC000000 		.word	timer_exc_e.9780
 1832 0574 00004940 		.word	1078525952
 1833 0578 00001040 		.word	1074790400
 1834              	.L152:
 591:..\src/interruptions.c ****             case COUNTER_INC:
 1835              		.loc 1 591 0
 1836 057c 00BF     		nop
 1837              	.L125:
 570:..\src/interruptions.c ****         switch (emg_excess_status[i]){
 1838              		.loc 1 570 0 discriminator 2
 1839 057e FB7D     		ldrb	r3, [r7, #23]	@ zero_extendqisi2
 1840 0580 0133     		adds	r3, r3, #1
 1841 0582 FB75     		strb	r3, [r7, #23]
 1842              	.L124:
 570:..\src/interruptions.c ****         switch (emg_excess_status[i]){
 1843              		.loc 1 570 0 is_stmt 0 discriminator 1
 1844 0584 FB7D     		ldrb	r3, [r7, #23]	@ zero_extendqisi2
 1845 0586 012B     		cmp	r3, #1
 1846 0588 08D8     		bhi	.L134
 570:..\src/interruptions.c ****         switch (emg_excess_status[i]){
 1847              		.loc 1 570 0 discriminator 3
 1848 058a 2D4B     		ldr	r3, .L159
 1849 058c 1B78     		ldrb	r3, [r3]	@ zero_extendqisi2
 1850 058e 002B     		cmp	r3, #0
 1851 0590 04D1     		bne	.L134
 570:..\src/interruptions.c ****         switch (emg_excess_status[i]){
 1852              		.loc 1 570 0 discriminator 4
 1853 0592 2C4B     		ldr	r3, .L159+4
 1854 0594 1B78     		ldrb	r3, [r3]	@ zero_extendqisi2
 1855 0596 002B     		cmp	r3, #0
 1856 0598 3FF450AF 		beq	.L135
 1857              	.L134:
 596:..\src/interruptions.c ****         }
 597:..\src/interruptions.c ****     }
 598:..\src/interruptions.c ****     
 599:..\src/interruptions.c ****     // State machine - Evaluate rest counter update
 600:..\src/interruptions.c ****     switch (rest_cycle_status){
 1858              		.loc 1 600 0 is_stmt 1
 1859 059c 2A4B     		ldr	r3, .L159+8
 1860 059e 1B78     		ldrb	r3, [r3]	@ zero_extendqisi2
 1861 05a0 012B     		cmp	r3, #1
 1862 05a2 11D0     		beq	.L137
 1863 05a4 022B     		cmp	r3, #2
 1864 05a6 2AD0     		beq	.L138
 1865 05a8 002B     		cmp	r3, #0
 1866 05aa 42D1     		bne	.L136
 601:..\src/interruptions.c ****         case STATE_INACTIVE:
 602:..\src/interruptions.c ****             if (rest_enabled){
 1867              		.loc 1 602 0
ARM GAS  C:\Users\mgnocco\AppData\Local\Temp\ccuVecaK.s 			page 45


 1868 05ac 274B     		ldr	r3, .L159+12
 1869 05ae 1B78     		ldrb	r3, [r3]	@ zero_extendqisi2
 1870 05b0 002B     		cmp	r3, #0
 1871 05b2 3BD0     		beq	.L153
 603:..\src/interruptions.c ****                 timer_value_s = (uint32)CYCLES_TIMER_ReadCounter();
 1872              		.loc 1 603 0
 1873 05b4 FFF7FEFF 		bl	CYCLES_TIMER_ReadCounter
 1874 05b8 0346     		mov	r3, r0
 1875 05ba 1A46     		mov	r2, r3
 1876 05bc 244B     		ldr	r3, .L159+16
 1877 05be 1A60     		str	r2, [r3]
 604:..\src/interruptions.c ****                 rest_cycle_status = STATE_ACTIVE;
 1878              		.loc 1 604 0
 1879 05c0 214B     		ldr	r3, .L159+8
 1880 05c2 0122     		movs	r2, #1
 1881 05c4 1A70     		strb	r2, [r3]
 605:..\src/interruptions.c ****             }
 606:..\src/interruptions.c ****             break;
 1882              		.loc 1 606 0
 1883 05c6 31E0     		b	.L153
 1884              	.L137:
 607:..\src/interruptions.c ****         case STATE_ACTIVE:
 608:..\src/interruptions.c ****             if (!rest_enabled){
 1885              		.loc 1 608 0
 1886 05c8 204B     		ldr	r3, .L159+12
 1887 05ca 1B78     		ldrb	r3, [r3]	@ zero_extendqisi2
 1888 05cc 002B     		cmp	r3, #0
 1889 05ce 2FD1     		bne	.L154
 609:..\src/interruptions.c ****                 timer_value_e = (uint32)CYCLES_TIMER_ReadCounter();
 1890              		.loc 1 609 0
 1891 05d0 FFF7FEFF 		bl	CYCLES_TIMER_ReadCounter
 1892 05d4 0346     		mov	r3, r0
 1893 05d6 1A46     		mov	r2, r3
 1894 05d8 1E4B     		ldr	r3, .L159+20
 1895 05da 1A60     		str	r2, [r3]
 610:..\src/interruptions.c ****                 if (timer_value_s < timer_value_e) {
 1896              		.loc 1 610 0
 1897 05dc 1C4B     		ldr	r3, .L159+16
 1898 05de 1A68     		ldr	r2, [r3]
 1899 05e0 1C4B     		ldr	r3, .L159+20
 1900 05e2 1B68     		ldr	r3, [r3]
 1901 05e4 9A42     		cmp	r2, r3
 1902 05e6 06D2     		bcs	.L142
 611:..\src/interruptions.c ****                     timer_value_s = timer_value_s + (uint32)6000;
 1903              		.loc 1 611 0
 1904 05e8 194B     		ldr	r3, .L159+16
 1905 05ea 1B68     		ldr	r3, [r3]
 1906 05ec 03F5BB53 		add	r3, r3, #5984
 1907 05f0 1033     		adds	r3, r3, #16
 1908 05f2 174A     		ldr	r2, .L159+16
 1909 05f4 1360     		str	r3, [r2]
 1910              	.L142:
 612:..\src/interruptions.c ****                 }
 613:..\src/interruptions.c ****                 rest_cycle_status = COUNTER_INC;
 1911              		.loc 1 613 0
 1912 05f6 144B     		ldr	r3, .L159+8
 1913 05f8 0222     		movs	r2, #2
ARM GAS  C:\Users\mgnocco\AppData\Local\Temp\ccuVecaK.s 			page 46


 1914 05fa 1A70     		strb	r2, [r3]
 614:..\src/interruptions.c ****             }
 615:..\src/interruptions.c ****             break;
 1915              		.loc 1 615 0
 1916 05fc 18E0     		b	.L154
 1917              	.L138:
 616:..\src/interruptions.c ****         case COUNTER_INC: 
 617:..\src/interruptions.c ****             g_mem.cnt.total_time_rest = g_mem.cnt.total_time_rest + (uint32)((timer_value_s - timer
 1918              		.loc 1 617 0
 1919 05fe 164B     		ldr	r3, .L159+24
 1920 0600 DA6D     		ldr	r2, [r3, #92]
 1921 0602 134B     		ldr	r3, .L159+16
 1922 0604 1968     		ldr	r1, [r3]
 1923 0606 134B     		ldr	r3, .L159+20
 1924 0608 1B68     		ldr	r3, [r3]
 1925 060a CB1A     		subs	r3, r1, r3
 1926 060c 1349     		ldr	r1, .L159+28
 1927 060e A1FB0313 		umull	r1, r3, r1, r3
 1928 0612 1B09     		lsrs	r3, r3, #4
 1929 0614 1344     		add	r3, r3, r2
 1930 0616 104A     		ldr	r2, .L159+24
 1931 0618 D365     		str	r3, [r2, #92]
 618:..\src/interruptions.c ****             g_mem.cnt.rest_counter = g_mem.cnt.rest_counter + 1;
 1932              		.loc 1 618 0
 1933 061a 0F4B     		ldr	r3, .L159+24
 1934 061c 1B6D     		ldr	r3, [r3, #80]
 1935 061e 0133     		adds	r3, r3, #1
 1936 0620 0D4A     		ldr	r2, .L159+24
 1937 0622 1365     		str	r3, [r2, #80]
 619:..\src/interruptions.c ****             rest_cycle_status = STATE_INACTIVE;
 1938              		.loc 1 619 0
 1939 0624 084B     		ldr	r3, .L159+8
 1940 0626 0022     		movs	r2, #0
 1941 0628 1A70     		strb	r2, [r3]
 620:..\src/interruptions.c ****             break;
 1942              		.loc 1 620 0
 1943 062a 02E0     		b	.L136
 1944              	.L153:
 606:..\src/interruptions.c ****         case STATE_ACTIVE:
 1945              		.loc 1 606 0
 1946 062c 00BF     		nop
 1947 062e 00E0     		b	.L136
 1948              	.L154:
 615:..\src/interruptions.c ****         case COUNTER_INC: 
 1949              		.loc 1 615 0
 1950 0630 00BF     		nop
 1951              	.L136:
 621:..\src/interruptions.c ****     }
 622:..\src/interruptions.c ****           
 623:..\src/interruptions.c ****     // This function writes rows [row_start, row_end] on EEPROM
 624:..\src/interruptions.c ****     save_cycles_eeprom();
 1952              		.loc 1 624 0
 1953 0632 FFF7FEFF 		bl	save_cycles_eeprom
 625:..\src/interruptions.c ****     
 626:..\src/interruptions.c **** }
 1954              		.loc 1 626 0
 1955 0636 00BF     		nop
ARM GAS  C:\Users\mgnocco\AppData\Local\Temp\ccuVecaK.s 			page 47


 1956 0638 1C37     		adds	r7, r7, #28
 1957              		.cfi_def_cfa_offset 12
 1958 063a BD46     		mov	sp, r7
 1959              		.cfi_def_cfa_register 13
 1960              		@ sp needed
 1961 063c 90BD     		pop	{r4, r7, pc}
 1962              	.L160:
 1963 063e 00BF     		.align	2
 1964              	.L159:
 1965 0640 00000000 		.word	emg_1_status
 1966 0644 00000000 		.word	emg_2_status
 1967 0648 C4000000 		.word	rest_cycle_status.9763
 1968 064c 00000000 		.word	rest_enabled
 1969 0650 C8000000 		.word	timer_value_s.9777
 1970 0654 CC000000 		.word	timer_value_e.9778
 1971 0658 00000000 		.word	g_mem
 1972 065c 1F85EB51 		.word	1374389535
 1973              		.cfi_endproc
 1974              	.LFE73:
 1975              		.size	cycles_counter_update, .-cycles_counter_update
 1976              		.section	.text.save_cycles_eeprom,"ax",%progbits
 1977              		.align	2
 1978              		.global	save_cycles_eeprom
 1979              		.thumb
 1980              		.thumb_func
 1981              		.type	save_cycles_eeprom, %function
 1982              	save_cycles_eeprom:
 1983              	.LFB74:
 627:..\src/interruptions.c **** 
 628:..\src/interruptions.c **** //==============================================================================
 629:..\src/interruptions.c **** //                                                            SAVE CYCLES EEPROM
 630:..\src/interruptions.c **** //==============================================================================
 631:..\src/interruptions.c **** 
 632:..\src/interruptions.c **** void save_cycles_eeprom() {
 1984              		.loc 1 632 0
 1985              		.cfi_startproc
 1986              		@ args = 0, pretend = 0, frame = 24
 1987              		@ frame_needed = 1, uses_anonymous_args = 0
 1988 0000 80B5     		push	{r7, lr}
 1989              		.cfi_def_cfa_offset 8
 1990              		.cfi_offset 7, -8
 1991              		.cfi_offset 14, -4
 1992 0002 86B0     		sub	sp, sp, #24
 1993              		.cfi_def_cfa_offset 32
 1994 0004 00AF     		add	r7, sp, #0
 1995              		.cfi_def_cfa_register 7
 633:..\src/interruptions.c **** 
 634:..\src/interruptions.c ****     cystatus status;
 635:..\src/interruptions.c ****     static uint8 row_number;
 636:..\src/interruptions.c ****     uint8 row_start = 1;
 1996              		.loc 1 636 0
 1997 0006 0123     		movs	r3, #1
 1998 0008 FB75     		strb	r3, [r7, #23]
 637:..\src/interruptions.c ****     uint8* addr_start   = (uint8*)&g_mem.cnt.emg_act_counter[0];    //Data at beginning of the row 
 1999              		.loc 1 637 0
 2000 000a 394B     		ldr	r3, .L177
 2001 000c 3B61     		str	r3, [r7, #16]
ARM GAS  C:\Users\mgnocco\AppData\Local\Temp\ccuVecaK.s 			page 48


 638:..\src/interruptions.c ****     uint8* addr_start_c = (uint8*)&c_mem.cnt.emg_act_counter[0];
 2002              		.loc 1 638 0
 2003 000e 394B     		ldr	r3, .L177+4
 2004 0010 FB60     		str	r3, [r7, #12]
 639:..\src/interruptions.c ****     uint8 row_end   = row_start + EEPROM_COUNTERS_ROWS - 1;
 2005              		.loc 1 639 0
 2006 0012 FB7D     		ldrb	r3, [r7, #23]
 2007 0014 0633     		adds	r3, r3, #6
 2008 0016 FB72     		strb	r3, [r7, #11]
 640:..\src/interruptions.c ****     static uint8* m_addr = NULL; 
 641:..\src/interruptions.c **** 
 642:..\src/interruptions.c ****     // This part of code writes rows [row_start, row_end] on EEPROM    
 643:..\src/interruptions.c ****     switch(cycles_status) {
 2009              		.loc 1 643 0
 2010 0018 374B     		ldr	r3, .L177+8
 2011 001a 1B78     		ldrb	r3, [r3]	@ zero_extendqisi2
 2012 001c 042B     		cmp	r3, #4
 2013 001e 63D8     		bhi	.L173
 2014 0020 01A2     		adr	r2, .L164
 2015 0022 52F823F0 		ldr	pc, [r2, r3, lsl #2]
 2016 0026 00BF     		.p2align 2
 2017              	.L164:
 2018 0028 3D000000 		.word	.L163+1
 2019 002c 5B000000 		.word	.L165+1
 2020 0030 8B000000 		.word	.L166+1
 2021 0034 C7000000 		.word	.L167+1
 2022 0038 DF000000 		.word	.L174+1
 2023              		.p2align 1
 2024              	.L163:
 644:..\src/interruptions.c ****         case PREPARE_DATA:
 645:..\src/interruptions.c ****             // Store data in c_mem structure to have consistent counters
 646:..\src/interruptions.c ****             memcpy( addr_start_c, addr_start, EEPROM_BYTES_ROW*EEPROM_COUNTERS_ROWS );            
 2025              		.loc 1 646 0
 2026 003c 7022     		movs	r2, #112
 2027 003e 3969     		ldr	r1, [r7, #16]
 2028 0040 F868     		ldr	r0, [r7, #12]
 2029 0042 FFF7FEFF 		bl	memcpy
 647:..\src/interruptions.c ****             m_addr = addr_start;
 2030              		.loc 1 647 0
 2031 0046 2D4A     		ldr	r2, .L177+12
 2032 0048 3B69     		ldr	r3, [r7, #16]
 2033 004a 1360     		str	r3, [r2]
 648:..\src/interruptions.c ****             row_number = row_start;
 2034              		.loc 1 648 0
 2035 004c 2C4A     		ldr	r2, .L177+16
 2036 004e FB7D     		ldrb	r3, [r7, #23]
 2037 0050 1370     		strb	r3, [r2]
 649:..\src/interruptions.c ****             cycles_status = WRITE_CYCLES;
 2038              		.loc 1 649 0
 2039 0052 294B     		ldr	r3, .L177+8
 2040 0054 0122     		movs	r2, #1
 2041 0056 1A70     		strb	r2, [r3]
 650:..\src/interruptions.c ****             break;
 2042              		.loc 1 650 0
 2043 0058 46E0     		b	.L162
 2044              	.L165:
 651:..\src/interruptions.c ****             
ARM GAS  C:\Users\mgnocco\AppData\Local\Temp\ccuVecaK.s 			page 49


 652:..\src/interruptions.c ****         case WRITE_CYCLES:
 653:..\src/interruptions.c ****             EEPROM_UpdateTemperature();     //Check temperature of chip before writing
 2045              		.loc 1 653 0
 2046 005a FFF7FEFF 		bl	EEPROM_UpdateTemperature
 654:..\src/interruptions.c ****             status = EEPROM_StartWrite((uint8*) m_addr, row_number);           
 2047              		.loc 1 654 0
 2048 005e 274B     		ldr	r3, .L177+12
 2049 0060 1A68     		ldr	r2, [r3]
 2050 0062 274B     		ldr	r3, .L177+16
 2051 0064 1B78     		ldrb	r3, [r3]	@ zero_extendqisi2
 2052 0066 1946     		mov	r1, r3
 2053 0068 1046     		mov	r0, r2
 2054 006a FFF7FEFF 		bl	EEPROM_StartWrite
 2055 006e 7860     		str	r0, [r7, #4]
 655:..\src/interruptions.c ****             if(status == CYRET_STARTED || status == CYRET_SUCCESS) {
 2056              		.loc 1 655 0
 2057 0070 7B68     		ldr	r3, [r7, #4]
 2058 0072 072B     		cmp	r3, #7
 2059 0074 02D0     		beq	.L169
 2060              		.loc 1 655 0 is_stmt 0 discriminator 1
 2061 0076 7B68     		ldr	r3, [r7, #4]
 2062 0078 002B     		cmp	r3, #0
 2063 007a 32D1     		bne	.L175
 2064              	.L169:
 656:..\src/interruptions.c ****                 cycles_status = WAIT_QUERY;
 2065              		.loc 1 656 0 is_stmt 1
 2066 007c 1E4B     		ldr	r3, .L177+8
 2067 007e 0222     		movs	r2, #2
 2068 0080 1A70     		strb	r2, [r3]
 657:..\src/interruptions.c ****                 can_write = FALSE;
 2069              		.loc 1 657 0
 2070 0082 204B     		ldr	r3, .L177+20
 2071 0084 0022     		movs	r2, #0
 2072 0086 1A70     		strb	r2, [r3]
 658:..\src/interruptions.c ****             }
 659:..\src/interruptions.c ****             break;
 2073              		.loc 1 659 0
 2074 0088 2BE0     		b	.L175
 2075              	.L166:
 660:..\src/interruptions.c ****             
 661:..\src/interruptions.c ****         case WAIT_QUERY:
 662:..\src/interruptions.c ****             status = EEPROM_Query();
 2076              		.loc 1 662 0
 2077 008a FFF7FEFF 		bl	EEPROM_Query
 2078 008e 7860     		str	r0, [r7, #4]
 663:..\src/interruptions.c ****             if(status == CYRET_SUCCESS) {
 2079              		.loc 1 663 0
 2080 0090 7B68     		ldr	r3, [r7, #4]
 2081 0092 002B     		cmp	r3, #0
 2082 0094 27D1     		bne	.L176
 664:..\src/interruptions.c ****                 if (row_number < row_end) {
 2083              		.loc 1 664 0
 2084 0096 1A4B     		ldr	r3, .L177+16
 2085 0098 1B78     		ldrb	r3, [r3]	@ zero_extendqisi2
 2086 009a FA7A     		ldrb	r2, [r7, #11]	@ zero_extendqisi2
 2087 009c 9A42     		cmp	r2, r3
 2088 009e 0ED9     		bls	.L172
ARM GAS  C:\Users\mgnocco\AppData\Local\Temp\ccuVecaK.s 			page 50


 665:..\src/interruptions.c ****                     m_addr = m_addr + EEPROM_BYTES_ROW;
 2089              		.loc 1 665 0
 2090 00a0 164B     		ldr	r3, .L177+12
 2091 00a2 1B68     		ldr	r3, [r3]
 2092 00a4 1033     		adds	r3, r3, #16
 2093 00a6 154A     		ldr	r2, .L177+12
 2094 00a8 1360     		str	r3, [r2]
 666:..\src/interruptions.c ****                     row_number = row_number + 1;
 2095              		.loc 1 666 0
 2096 00aa 154B     		ldr	r3, .L177+16
 2097 00ac 1B78     		ldrb	r3, [r3]	@ zero_extendqisi2
 2098 00ae 0133     		adds	r3, r3, #1
 2099 00b0 DAB2     		uxtb	r2, r3
 2100 00b2 134B     		ldr	r3, .L177+16
 2101 00b4 1A70     		strb	r2, [r3]
 667:..\src/interruptions.c ****                     cycles_status = WRITE_CYCLES;
 2102              		.loc 1 667 0
 2103 00b6 104B     		ldr	r3, .L177+8
 2104 00b8 0122     		movs	r2, #1
 2105 00ba 1A70     		strb	r2, [r3]
 668:..\src/interruptions.c ****                 }
 669:..\src/interruptions.c ****                 else {
 670:..\src/interruptions.c ****                     cycles_status = WRITE_END;
 671:..\src/interruptions.c ****                 }
 672:..\src/interruptions.c ****             }
 673:..\src/interruptions.c ****             break;
 2106              		.loc 1 673 0
 2107 00bc 13E0     		b	.L176
 2108              	.L172:
 670:..\src/interruptions.c ****                 }
 2109              		.loc 1 670 0
 2110 00be 0E4B     		ldr	r3, .L177+8
 2111 00c0 0322     		movs	r2, #3
 2112 00c2 1A70     		strb	r2, [r3]
 2113              		.loc 1 673 0
 2114 00c4 0FE0     		b	.L176
 2115              	.L167:
 674:..\src/interruptions.c ****            
 675:..\src/interruptions.c ****         case WRITE_END:
 676:..\src/interruptions.c ****             can_write = TRUE;            
 2116              		.loc 1 676 0
 2117 00c6 0F4B     		ldr	r3, .L177+20
 2118 00c8 0122     		movs	r2, #1
 2119 00ca 1A70     		strb	r2, [r3]
 677:..\src/interruptions.c ****             cycles_status = NONE;
 2120              		.loc 1 677 0
 2121 00cc 0A4B     		ldr	r3, .L177+8
 2122 00ce 0422     		movs	r2, #4
 2123 00d0 1A70     		strb	r2, [r3]
 678:..\src/interruptions.c ****             
 679:..\src/interruptions.c ****             // Restore data saved in c_mem structure
 680:..\src/interruptions.c ****             memcpy( addr_start, addr_start_c, EEPROM_BYTES_ROW*EEPROM_COUNTERS_ROWS );
 2124              		.loc 1 680 0
 2125 00d2 7022     		movs	r2, #112
 2126 00d4 F968     		ldr	r1, [r7, #12]
 2127 00d6 3869     		ldr	r0, [r7, #16]
 2128 00d8 FFF7FEFF 		bl	memcpy
ARM GAS  C:\Users\mgnocco\AppData\Local\Temp\ccuVecaK.s 			page 51


 681:..\src/interruptions.c ****             break;
 2129              		.loc 1 681 0
 2130 00dc 04E0     		b	.L162
 2131              	.L174:
 682:..\src/interruptions.c ****             
 683:..\src/interruptions.c ****         case NONE:
 684:..\src/interruptions.c ****             break;
 2132              		.loc 1 684 0
 2133 00de 00BF     		nop
 2134 00e0 02E0     		b	.L173
 2135              	.L175:
 659:..\src/interruptions.c ****             
 2136              		.loc 1 659 0
 2137 00e2 00BF     		nop
 2138 00e4 00E0     		b	.L173
 2139              	.L176:
 673:..\src/interruptions.c ****            
 2140              		.loc 1 673 0
 2141 00e6 00BF     		nop
 2142              	.L162:
 2143              	.L173:
 685:..\src/interruptions.c ****     }
 686:..\src/interruptions.c ****     
 687:..\src/interruptions.c **** }
 2144              		.loc 1 687 0
 2145 00e8 00BF     		nop
 2146 00ea 1837     		adds	r7, r7, #24
 2147              		.cfi_def_cfa_offset 8
 2148 00ec BD46     		mov	sp, r7
 2149              		.cfi_def_cfa_register 13
 2150              		@ sp needed
 2151 00ee 80BD     		pop	{r7, pc}
 2152              	.L178:
 2153              		.align	2
 2154              	.L177:
 2155 00f0 10000000 		.word	g_mem+16
 2156 00f4 10000000 		.word	c_mem+16
 2157 00f8 00000000 		.word	cycles_status
 2158 00fc D0000000 		.word	m_addr.9822
 2159 0100 D4000000 		.word	row_number.9817
 2160 0104 00000000 		.word	can_write
 2161              		.cfi_endproc
 2162              	.LFE74:
 2163              		.size	save_cycles_eeprom, .-save_cycles_eeprom
 2164              		.bss
 2165              	state.9705:
 2166 0000 00       		.space	1
 2167 0001 000000   		.align	2
 2168              	rx_queue.9709:
 2169 0004 000000   		.space	3
 2170              	data_packet_length.9707:
 2171 0007 00       		.space	1
 2172              	data_packet_index.9706:
 2173 0008 00       		.space	1
 2174 0009 000000   		.align	2
 2175              	data_packet_buffer.9708:
 2176 000c 00000000 		.space	128
ARM GAS  C:\Users\mgnocco\AppData\Local\Temp\ccuVecaK.s 			page 52


 2176      00000000 
 2176      00000000 
 2176      00000000 
 2176      00000000 
 2177              		.align	2
 2178              	prev_pwm.9731:
 2179 008c 00000000 		.space	4
 2180              		.align	2
 2181              	position_counter.9732:
 2182 0090 00000000 		.space	4
 2183              	pos_cycle_status.9759:
 2184 0094 00       		.space	1
 2185 0095 000000   		.align	2
 2186              	thr_pos.9766:
 2187 0098 00000000 		.space	4
 2188              		.align	2
 2189              	max_pos.9767:
 2190 009c 00000000 		.space	4
 2191              		.data
 2192              		.align	2
 2193              		.type	bin_threshold.9764, %object
 2194              		.size	bin_threshold.9764, 4
 2195              	bin_threshold.9764:
 2196 0000 FA000000 		.word	250
 2197              		.bss
 2198              		.align	2
 2199              	emg_cycle_status.9760:
 2200 00a0 0000     		.space	2
 2201 00a2 0000     		.align	2
 2202              	motion_status.9761:
 2203 00a4 0000     		.space	2
 2204 00a6 0000     		.align	2
 2205              	start_emg_pos.9781:
 2206 00a8 00000000 		.space	8
 2206      00000000 
 2207              		.align	2
 2208              	emg_excess_status.9762:
 2209 00b0 0000     		.space	2
 2210              		.data
 2211              		.align	2
 2212              		.type	exc_act_thr.9765, %object
 2213              		.size	exc_act_thr.9765, 4
 2214              	exc_act_thr.9765:
 2215 0004 D4030000 		.word	980
 2216              		.bss
 2217 00b2 0000     		.align	2
 2218              	timer_exc_s.9779:
 2219 00b4 00000000 		.space	8
 2219      00000000 
 2220              		.align	2
 2221              	timer_exc_e.9780:
 2222 00bc 00000000 		.space	8
 2222      00000000 
 2223              	rest_cycle_status.9763:
 2224 00c4 00       		.space	1
 2225 00c5 000000   		.align	2
 2226              	timer_value_s.9777:
ARM GAS  C:\Users\mgnocco\AppData\Local\Temp\ccuVecaK.s 			page 53


 2227 00c8 00000000 		.space	4
 2228              		.align	2
 2229              	timer_value_e.9778:
 2230 00cc 00000000 		.space	4
 2231              		.align	2
 2232              	m_addr.9822:
 2233 00d0 00000000 		.space	4
 2234              	row_number.9817:
 2235 00d4 00       		.space	1
 2236              		.text
 2237              	.Letext0:
 2238              		.file 2 "c:\\program files (x86)\\cypress\\psoc creator\\4.4\\psoc creator\\import\\gnu\\arm\\5.4.
 2239              		.file 3 "c:\\program files (x86)\\cypress\\psoc creator\\4.4\\psoc creator\\import\\gnu\\arm\\5.4.
 2240              		.file 4 "Generated_Source\\PSoC5/cytypes.h"
 2241              		.file 5 "..\\src\\commands.h"
 2242              		.file 6 "..\\src\\globals.h"
 2243              		.file 7 "Generated_Source\\PSoC5/core_cm3.h"
 2244              		.section	.debug_info,"",%progbits
 2245              	.Ldebug_info0:
 2246 0000 E2100000 		.4byte	0x10e2
 2247 0004 0400     		.2byte	0x4
 2248 0006 00000000 		.4byte	.Ldebug_abbrev0
 2249 000a 04       		.byte	0x4
 2250 000b 01       		.uleb128 0x1
 2251 000c 0B060000 		.4byte	.LASF243
 2252 0010 0C       		.byte	0xc
 2253 0011 1C0C0000 		.4byte	.LASF244
 2254 0015 0C070000 		.4byte	.LASF245
 2255 0019 00000000 		.4byte	.Ldebug_ranges0+0
 2256 001d 00000000 		.4byte	0
 2257 0021 00000000 		.4byte	.Ldebug_line0
 2258 0025 02       		.uleb128 0x2
 2259 0026 01       		.byte	0x1
 2260 0027 06       		.byte	0x6
 2261 0028 E4020000 		.4byte	.LASF0
 2262 002c 02       		.uleb128 0x2
 2263 002d 01       		.byte	0x1
 2264 002e 08       		.byte	0x8
 2265 002f 2D030000 		.4byte	.LASF1
 2266 0033 02       		.uleb128 0x2
 2267 0034 02       		.byte	0x2
 2268 0035 05       		.byte	0x5
 2269 0036 850A0000 		.4byte	.LASF2
 2270 003a 02       		.uleb128 0x2
 2271 003b 02       		.byte	0x2
 2272 003c 07       		.byte	0x7
 2273 003d D40B0000 		.4byte	.LASF3
 2274 0041 03       		.uleb128 0x3
 2275 0042 650C0000 		.4byte	.LASF9
 2276 0046 02       		.byte	0x2
 2277 0047 3F       		.byte	0x3f
 2278 0048 4C000000 		.4byte	0x4c
 2279 004c 02       		.uleb128 0x2
 2280 004d 04       		.byte	0x4
 2281 004e 05       		.byte	0x5
 2282 004f 47020000 		.4byte	.LASF4
 2283 0053 02       		.uleb128 0x2
ARM GAS  C:\Users\mgnocco\AppData\Local\Temp\ccuVecaK.s 			page 54


 2284 0054 04       		.byte	0x4
 2285 0055 07       		.byte	0x7
 2286 0056 5D050000 		.4byte	.LASF5
 2287 005a 02       		.uleb128 0x2
 2288 005b 08       		.byte	0x8
 2289 005c 05       		.byte	0x5
 2290 005d B6060000 		.4byte	.LASF6
 2291 0061 02       		.uleb128 0x2
 2292 0062 08       		.byte	0x8
 2293 0063 07       		.byte	0x7
 2294 0064 B5080000 		.4byte	.LASF7
 2295 0068 04       		.uleb128 0x4
 2296 0069 04       		.byte	0x4
 2297 006a 05       		.byte	0x5
 2298 006b 696E7400 		.ascii	"int\000"
 2299 006f 02       		.uleb128 0x2
 2300 0070 04       		.byte	0x4
 2301 0071 07       		.byte	0x7
 2302 0072 8E070000 		.4byte	.LASF8
 2303 0076 03       		.uleb128 0x3
 2304 0077 8B000000 		.4byte	.LASF10
 2305 007b 03       		.byte	0x3
 2306 007c 2C       		.byte	0x2c
 2307 007d 41000000 		.4byte	0x41
 2308 0081 05       		.uleb128 0x5
 2309 0082 6A0A0000 		.4byte	.LASF11
 2310 0086 04       		.byte	0x4
 2311 0087 E401     		.2byte	0x1e4
 2312 0089 2C000000 		.4byte	0x2c
 2313 008d 05       		.uleb128 0x5
 2314 008e C20C0000 		.4byte	.LASF12
 2315 0092 04       		.byte	0x4
 2316 0093 E501     		.2byte	0x1e5
 2317 0095 3A000000 		.4byte	0x3a
 2318 0099 05       		.uleb128 0x5
 2319 009a AE000000 		.4byte	.LASF13
 2320 009e 04       		.byte	0x4
 2321 009f E601     		.2byte	0x1e6
 2322 00a1 53000000 		.4byte	0x53
 2323 00a5 05       		.uleb128 0x5
 2324 00a6 68010000 		.4byte	.LASF14
 2325 00aa 04       		.byte	0x4
 2326 00ab E701     		.2byte	0x1e7
 2327 00ad 25000000 		.4byte	0x25
 2328 00b1 05       		.uleb128 0x5
 2329 00b2 180B0000 		.4byte	.LASF15
 2330 00b6 04       		.byte	0x4
 2331 00b7 E801     		.2byte	0x1e8
 2332 00b9 33000000 		.4byte	0x33
 2333 00bd 05       		.uleb128 0x5
 2334 00be 330C0000 		.4byte	.LASF16
 2335 00c2 04       		.byte	0x4
 2336 00c3 E901     		.2byte	0x1e9
 2337 00c5 4C000000 		.4byte	0x4c
 2338 00c9 05       		.uleb128 0x5
 2339 00ca AD020000 		.4byte	.LASF17
 2340 00ce 04       		.byte	0x4
ARM GAS  C:\Users\mgnocco\AppData\Local\Temp\ccuVecaK.s 			page 55


 2341 00cf EA01     		.2byte	0x1ea
 2342 00d1 D5000000 		.4byte	0xd5
 2343 00d5 02       		.uleb128 0x2
 2344 00d6 04       		.byte	0x4
 2345 00d7 04       		.byte	0x4
 2346 00d8 54070000 		.4byte	.LASF18
 2347 00dc 02       		.uleb128 0x2
 2348 00dd 08       		.byte	0x8
 2349 00de 04       		.byte	0x4
 2350 00df D4060000 		.4byte	.LASF19
 2351 00e3 02       		.uleb128 0x2
 2352 00e4 01       		.byte	0x1
 2353 00e5 08       		.byte	0x8
 2354 00e6 89030000 		.4byte	.LASF20
 2355 00ea 05       		.uleb128 0x5
 2356 00eb B5070000 		.4byte	.LASF21
 2357 00ef 04       		.byte	0x4
 2358 00f0 8602     		.2byte	0x286
 2359 00f2 53000000 		.4byte	0x53
 2360 00f6 05       		.uleb128 0x5
 2361 00f7 40090000 		.4byte	.LASF22
 2362 00fb 04       		.byte	0x4
 2363 00fc 8E02     		.2byte	0x28e
 2364 00fe 02010000 		.4byte	0x102
 2365 0102 06       		.uleb128 0x6
 2366 0103 81000000 		.4byte	0x81
 2367 0107 02       		.uleb128 0x2
 2368 0108 08       		.byte	0x8
 2369 0109 04       		.byte	0x4
 2370 010a 47080000 		.4byte	.LASF23
 2371 010e 02       		.uleb128 0x2
 2372 010f 04       		.byte	0x4
 2373 0110 07       		.byte	0x7
 2374 0111 10000000 		.4byte	.LASF24
 2375 0115 07       		.uleb128 0x7
 2376 0116 E3000000 		.4byte	0xe3
 2377 011a 25010000 		.4byte	0x125
 2378 011e 08       		.uleb128 0x8
 2379 011f 0E010000 		.4byte	0x10e
 2380 0123 07       		.byte	0x7
 2381 0124 00       		.byte	0
 2382 0125 09       		.uleb128 0x9
 2383 0126 9F0C0000 		.4byte	.LASF33
 2384 012a 01       		.byte	0x1
 2385 012b 2C000000 		.4byte	0x2c
 2386 012f 05       		.byte	0x5
 2387 0130 8F       		.byte	0x8f
 2388 0131 66010000 		.4byte	0x166
 2389 0135 0A       		.uleb128 0xa
 2390 0136 D8040000 		.4byte	.LASF25
 2391 013a 00       		.byte	0
 2392 013b 0A       		.uleb128 0xa
 2393 013c BE070000 		.4byte	.LASF26
 2394 0140 01       		.byte	0x1
 2395 0141 0A       		.uleb128 0xa
 2396 0142 CA010000 		.4byte	.LASF27
 2397 0146 02       		.byte	0x2
ARM GAS  C:\Users\mgnocco\AppData\Local\Temp\ccuVecaK.s 			page 56


 2398 0147 0A       		.uleb128 0xa
 2399 0148 48010000 		.4byte	.LASF28
 2400 014c 03       		.byte	0x3
 2401 014d 0A       		.uleb128 0xa
 2402 014e 02010000 		.4byte	.LASF29
 2403 0152 04       		.byte	0x4
 2404 0153 0A       		.uleb128 0xa
 2405 0154 53000000 		.4byte	.LASF30
 2406 0158 05       		.byte	0x5
 2407 0159 0A       		.uleb128 0xa
 2408 015a 95050000 		.4byte	.LASF31
 2409 015e 06       		.byte	0x6
 2410 015f 0A       		.uleb128 0xa
 2411 0160 3C0A0000 		.4byte	.LASF32
 2412 0164 07       		.byte	0x7
 2413 0165 00       		.byte	0
 2414 0166 09       		.uleb128 0x9
 2415 0167 C4060000 		.4byte	.LASF34
 2416 016b 01       		.byte	0x1
 2417 016c 2C000000 		.4byte	0x2c
 2418 0170 05       		.byte	0x5
 2419 0171 A3       		.byte	0xa3
 2420 0172 8F010000 		.4byte	0x18f
 2421 0176 0A       		.uleb128 0xa
 2422 0177 570C0000 		.4byte	.LASF35
 2423 017b 00       		.byte	0
 2424 017c 0A       		.uleb128 0xa
 2425 017d E9050000 		.4byte	.LASF36
 2426 0181 01       		.byte	0x1
 2427 0182 0A       		.uleb128 0xa
 2428 0183 37080000 		.4byte	.LASF37
 2429 0187 02       		.byte	0x2
 2430 0188 0A       		.uleb128 0xa
 2431 0189 48050000 		.4byte	.LASF38
 2432 018d 03       		.byte	0x3
 2433 018e 00       		.byte	0
 2434 018f 0B       		.uleb128 0xb
 2435 0190 99060000 		.4byte	.LASF41
 2436 0194 10       		.byte	0x10
 2437 0195 06       		.byte	0x6
 2438 0196 E5       		.byte	0xe5
 2439 0197 CC010000 		.4byte	0x1cc
 2440 019b 0C       		.uleb128 0xc
 2441 019c 706F7300 		.ascii	"pos\000"
 2442 01a0 06       		.byte	0x6
 2443 01a1 E6       		.byte	0xe6
 2444 01a2 BD000000 		.4byte	0xbd
 2445 01a6 00       		.byte	0
 2446 01a7 0D       		.uleb128 0xd
 2447 01a8 CE050000 		.4byte	.LASF39
 2448 01ac 06       		.byte	0x6
 2449 01ad E7       		.byte	0xe7
 2450 01ae BD000000 		.4byte	0xbd
 2451 01b2 04       		.byte	0x4
 2452 01b3 0C       		.uleb128 0xc
 2453 01b4 70776D00 		.ascii	"pwm\000"
 2454 01b8 06       		.byte	0x6
ARM GAS  C:\Users\mgnocco\AppData\Local\Temp\ccuVecaK.s 			page 57


 2455 01b9 E8       		.byte	0xe8
 2456 01ba BD000000 		.4byte	0xbd
 2457 01be 08       		.byte	0x8
 2458 01bf 0D       		.uleb128 0xd
 2459 01c0 ED080000 		.4byte	.LASF40
 2460 01c4 06       		.byte	0x6
 2461 01c5 E9       		.byte	0xe9
 2462 01c6 81000000 		.4byte	0x81
 2463 01ca 0C       		.byte	0xc
 2464 01cb 00       		.byte	0
 2465 01cc 0B       		.uleb128 0xb
 2466 01cd 030A0000 		.4byte	.LASF42
 2467 01d1 34       		.byte	0x34
 2468 01d2 06       		.byte	0x6
 2469 01d3 F0       		.byte	0xf0
 2470 01d4 2D020000 		.4byte	0x22d
 2471 01d8 0C       		.uleb128 0xc
 2472 01d9 706F7300 		.ascii	"pos\000"
 2473 01dd 06       		.byte	0x6
 2474 01de F1       		.byte	0xf1
 2475 01df 2D020000 		.4byte	0x22d
 2476 01e3 00       		.byte	0
 2477 01e4 0D       		.uleb128 0xd
 2478 01e5 CE050000 		.4byte	.LASF39
 2479 01e9 06       		.byte	0x6
 2480 01ea F2       		.byte	0xf2
 2481 01eb BD000000 		.4byte	0xbd
 2482 01ef 0C       		.byte	0xc
 2483 01f0 0D       		.uleb128 0xd
 2484 01f1 5B0B0000 		.4byte	.LASF43
 2485 01f5 06       		.byte	0x6
 2486 01f6 F3       		.byte	0xf3
 2487 01f7 BD000000 		.4byte	0xbd
 2488 01fb 10       		.byte	0x10
 2489 01fc 0D       		.uleb128 0xd
 2490 01fd 8B050000 		.4byte	.LASF44
 2491 0201 06       		.byte	0x6
 2492 0202 F4       		.byte	0xf4
 2493 0203 BD000000 		.4byte	0xbd
 2494 0207 14       		.byte	0x14
 2495 0208 0C       		.uleb128 0xc
 2496 0209 726F7400 		.ascii	"rot\000"
 2497 020d 06       		.byte	0x6
 2498 020e F5       		.byte	0xf5
 2499 020f 3D020000 		.4byte	0x23d
 2500 0213 18       		.byte	0x18
 2501 0214 0C       		.uleb128 0xc
 2502 0215 76656C00 		.ascii	"vel\000"
 2503 0219 06       		.byte	0x6
 2504 021a F6       		.byte	0xf6
 2505 021b 2D020000 		.4byte	0x22d
 2506 021f 1C       		.byte	0x1c
 2507 0220 0C       		.uleb128 0xc
 2508 0221 61636300 		.ascii	"acc\000"
 2509 0225 06       		.byte	0x6
 2510 0226 F7       		.byte	0xf7
 2511 0227 2D020000 		.4byte	0x22d
ARM GAS  C:\Users\mgnocco\AppData\Local\Temp\ccuVecaK.s 			page 58


 2512 022b 28       		.byte	0x28
 2513 022c 00       		.byte	0
 2514 022d 07       		.uleb128 0x7
 2515 022e BD000000 		.4byte	0xbd
 2516 0232 3D020000 		.4byte	0x23d
 2517 0236 08       		.uleb128 0x8
 2518 0237 0E010000 		.4byte	0x10e
 2519 023b 02       		.byte	0x2
 2520 023c 00       		.byte	0
 2521 023d 07       		.uleb128 0x7
 2522 023e A5000000 		.4byte	0xa5
 2523 0242 4D020000 		.4byte	0x24d
 2524 0246 08       		.uleb128 0x8
 2525 0247 0E010000 		.4byte	0x10e
 2526 024b 02       		.byte	0x2
 2527 024c 00       		.byte	0
 2528 024d 0B       		.uleb128 0xb
 2529 024e 63070000 		.4byte	.LASF45
 2530 0252 2C       		.byte	0x2c
 2531 0253 06       		.byte	0x6
 2532 0254 FA       		.byte	0xfa
 2533 0255 7E020000 		.4byte	0x27e
 2534 0259 0C       		.uleb128 0xc
 2535 025a 656D6700 		.ascii	"emg\000"
 2536 025e 06       		.byte	0x6
 2537 025f FB       		.byte	0xfb
 2538 0260 7E020000 		.4byte	0x27e
 2539 0264 00       		.byte	0
 2540 0265 0D       		.uleb128 0xd
 2541 0266 EE070000 		.4byte	.LASF46
 2542 026a 06       		.byte	0x6
 2543 026b FC       		.byte	0xfc
 2544 026c 8E020000 		.4byte	0x28e
 2545 0270 08       		.byte	0x8
 2546 0271 0D       		.uleb128 0xd
 2547 0272 960A0000 		.4byte	.LASF47
 2548 0276 06       		.byte	0x6
 2549 0277 FD       		.byte	0xfd
 2550 0278 2D020000 		.4byte	0x22d
 2551 027c 20       		.byte	0x20
 2552 027d 00       		.byte	0
 2553 027e 07       		.uleb128 0x7
 2554 027f BD000000 		.4byte	0xbd
 2555 0283 8E020000 		.4byte	0x28e
 2556 0287 08       		.uleb128 0x8
 2557 0288 0E010000 		.4byte	0x10e
 2558 028c 01       		.byte	0x1
 2559 028d 00       		.byte	0
 2560 028e 07       		.uleb128 0x7
 2561 028f BD000000 		.4byte	0xbd
 2562 0293 9E020000 		.4byte	0x29e
 2563 0297 08       		.uleb128 0x8
 2564 0298 0E010000 		.4byte	0x10e
 2565 029c 05       		.byte	0x5
 2566 029d 00       		.byte	0
 2567 029e 0E       		.uleb128 0xe
 2568 029f 98000000 		.4byte	.LASF48
ARM GAS  C:\Users\mgnocco\AppData\Local\Temp\ccuVecaK.s 			page 59


 2569 02a3 86       		.byte	0x86
 2570 02a4 06       		.byte	0x6
 2571 02a5 0801     		.2byte	0x108
 2572 02a7 E0020000 		.4byte	0x2e0
 2573 02ab 0F       		.uleb128 0xf
 2574 02ac 3A040000 		.4byte	.LASF49
 2575 02b0 06       		.byte	0x6
 2576 02b1 0901     		.2byte	0x109
 2577 02b3 E0020000 		.4byte	0x2e0
 2578 02b7 00       		.byte	0
 2579 02b8 0F       		.uleb128 0xf
 2580 02b9 DA080000 		.4byte	.LASF50
 2581 02bd 06       		.byte	0x6
 2582 02be 0A01     		.2byte	0x10a
 2583 02c0 B1000000 		.4byte	0xb1
 2584 02c4 80       		.byte	0x80
 2585 02c5 10       		.uleb128 0x10
 2586 02c6 696E6400 		.ascii	"ind\000"
 2587 02ca 06       		.byte	0x6
 2588 02cb 0B01     		.2byte	0x10b
 2589 02cd B1000000 		.4byte	0xb1
 2590 02d1 82       		.byte	0x82
 2591 02d2 0F       		.uleb128 0xf
 2592 02d3 A2010000 		.4byte	.LASF51
 2593 02d7 06       		.byte	0x6
 2594 02d8 0C01     		.2byte	0x10c
 2595 02da 81000000 		.4byte	0x81
 2596 02de 84       		.byte	0x84
 2597 02df 00       		.byte	0
 2598 02e0 07       		.uleb128 0x7
 2599 02e1 81000000 		.4byte	0x81
 2600 02e5 F0020000 		.4byte	0x2f0
 2601 02e9 08       		.uleb128 0x8
 2602 02ea 0E010000 		.4byte	0x10e
 2603 02ee 7F       		.byte	0x7f
 2604 02ef 00       		.byte	0
 2605 02f0 0E       		.uleb128 0xe
 2606 02f1 9A020000 		.4byte	.LASF52
 2607 02f5 70       		.byte	0x70
 2608 02f6 06       		.byte	0x6
 2609 02f7 1501     		.2byte	0x115
 2610 02f9 8D030000 		.4byte	0x38d
 2611 02fd 0F       		.uleb128 0xf
 2612 02fe 00000000 		.4byte	.LASF53
 2613 0302 06       		.byte	0x6
 2614 0303 1601     		.2byte	0x116
 2615 0305 8D030000 		.4byte	0x38d
 2616 0309 00       		.byte	0
 2617 030a 0F       		.uleb128 0xf
 2618 030b 74010000 		.4byte	.LASF54
 2619 030f 06       		.byte	0x6
 2620 0310 1701     		.2byte	0x117
 2621 0312 9D030000 		.4byte	0x39d
 2622 0316 08       		.byte	0x8
 2623 0317 0F       		.uleb128 0xf
 2624 0318 2A080000 		.4byte	.LASF55
 2625 031c 06       		.byte	0x6
ARM GAS  C:\Users\mgnocco\AppData\Local\Temp\ccuVecaK.s 			page 60


 2626 031d 1801     		.2byte	0x118
 2627 031f AD030000 		.4byte	0x3ad
 2628 0323 30       		.byte	0x30
 2629 0324 0F       		.uleb128 0xf
 2630 0325 2C010000 		.4byte	.LASF56
 2631 0329 06       		.byte	0x6
 2632 032a 1901     		.2byte	0x119
 2633 032c 99000000 		.4byte	0x99
 2634 0330 40       		.byte	0x40
 2635 0331 0F       		.uleb128 0xf
 2636 0332 6F0C0000 		.4byte	.LASF57
 2637 0336 06       		.byte	0x6
 2638 0337 1A01     		.2byte	0x11a
 2639 0339 99000000 		.4byte	0x99
 2640 033d 44       		.byte	0x44
 2641 033e 0F       		.uleb128 0xf
 2642 033f A0000000 		.4byte	.LASF58
 2643 0343 06       		.byte	0x6
 2644 0344 1B01     		.2byte	0x11b
 2645 0346 99000000 		.4byte	0x99
 2646 034a 48       		.byte	0x48
 2647 034b 0F       		.uleb128 0xf
 2648 034c A9050000 		.4byte	.LASF59
 2649 0350 06       		.byte	0x6
 2650 0351 1C01     		.2byte	0x11c
 2651 0353 99000000 		.4byte	0x99
 2652 0357 4C       		.byte	0x4c
 2653 0358 0F       		.uleb128 0xf
 2654 0359 19000000 		.4byte	.LASF60
 2655 035d 06       		.byte	0x6
 2656 035e 1D01     		.2byte	0x11d
 2657 0360 99000000 		.4byte	0x99
 2658 0364 50       		.byte	0x50
 2659 0365 0F       		.uleb128 0xf
 2660 0366 F9010000 		.4byte	.LASF61
 2661 036a 06       		.byte	0x6
 2662 036b 1E01     		.2byte	0x11e
 2663 036d 8D030000 		.4byte	0x38d
 2664 0371 54       		.byte	0x54
 2665 0372 0F       		.uleb128 0xf
 2666 0373 63080000 		.4byte	.LASF62
 2667 0377 06       		.byte	0x6
 2668 0378 1F01     		.2byte	0x11f
 2669 037a 8D030000 		.4byte	0x38d
 2670 037e 5C       		.byte	0x5c
 2671 037f 0F       		.uleb128 0xf
 2672 0380 8D020000 		.4byte	.LASF63
 2673 0384 06       		.byte	0x6
 2674 0385 2001     		.2byte	0x120
 2675 0387 BD030000 		.4byte	0x3bd
 2676 038b 64       		.byte	0x64
 2677 038c 00       		.byte	0
 2678 038d 07       		.uleb128 0x7
 2679 038e 99000000 		.4byte	0x99
 2680 0392 9D030000 		.4byte	0x39d
 2681 0396 08       		.uleb128 0x8
 2682 0397 0E010000 		.4byte	0x10e
ARM GAS  C:\Users\mgnocco\AppData\Local\Temp\ccuVecaK.s 			page 61


 2683 039b 01       		.byte	0x1
 2684 039c 00       		.byte	0
 2685 039d 07       		.uleb128 0x7
 2686 039e 99000000 		.4byte	0x99
 2687 03a2 AD030000 		.4byte	0x3ad
 2688 03a6 08       		.uleb128 0x8
 2689 03a7 0E010000 		.4byte	0x10e
 2690 03ab 09       		.byte	0x9
 2691 03ac 00       		.byte	0
 2692 03ad 07       		.uleb128 0x7
 2693 03ae 99000000 		.4byte	0x99
 2694 03b2 BD030000 		.4byte	0x3bd
 2695 03b6 08       		.uleb128 0x8
 2696 03b7 0E010000 		.4byte	0x10e
 2697 03bb 03       		.byte	0x3
 2698 03bc 00       		.byte	0
 2699 03bd 07       		.uleb128 0x7
 2700 03be 81000000 		.4byte	0x81
 2701 03c2 CD030000 		.4byte	0x3cd
 2702 03c6 08       		.uleb128 0x8
 2703 03c7 0E010000 		.4byte	0x10e
 2704 03cb 0B       		.byte	0xb
 2705 03cc 00       		.byte	0
 2706 03cd 0E       		.uleb128 0xe
 2707 03ce C0010000 		.4byte	.LASF64
 2708 03d2 10       		.byte	0x10
 2709 03d3 06       		.byte	0x6
 2710 03d4 2701     		.2byte	0x127
 2711 03d6 5C040000 		.4byte	0x45c
 2712 03da 10       		.uleb128 0x10
 2713 03db 696400   		.ascii	"id\000"
 2714 03de 06       		.byte	0x6
 2715 03df 2801     		.2byte	0x128
 2716 03e1 81000000 		.4byte	0x81
 2717 03e5 00       		.byte	0
 2718 03e6 0F       		.uleb128 0xf
 2719 03e7 B10A0000 		.4byte	.LASF65
 2720 03eb 06       		.byte	0x6
 2721 03ec 2901     		.2byte	0x129
 2722 03ee 5C040000 		.4byte	0x45c
 2723 03f2 01       		.byte	0x1
 2724 03f3 0F       		.uleb128 0xf
 2725 03f4 DB0A0000 		.4byte	.LASF66
 2726 03f8 06       		.byte	0x6
 2727 03f9 2A01     		.2byte	0x12a
 2728 03fb 5C040000 		.4byte	0x45c
 2729 03ff 04       		.byte	0x4
 2730 0400 0F       		.uleb128 0xf
 2731 0401 64030000 		.4byte	.LASF67
 2732 0405 06       		.byte	0x6
 2733 0406 2B01     		.2byte	0x12b
 2734 0408 81000000 		.4byte	0x81
 2735 040c 07       		.byte	0x7
 2736 040d 0F       		.uleb128 0xf
 2737 040e 67020000 		.4byte	.LASF68
 2738 0412 06       		.byte	0x6
 2739 0413 2C01     		.2byte	0x12c
ARM GAS  C:\Users\mgnocco\AppData\Local\Temp\ccuVecaK.s 			page 62


 2740 0415 81000000 		.4byte	0x81
 2741 0419 08       		.byte	0x8
 2742 041a 0F       		.uleb128 0xf
 2743 041b E6010000 		.4byte	.LASF69
 2744 041f 06       		.byte	0x6
 2745 0420 2D01     		.2byte	0x12d
 2746 0422 81000000 		.4byte	0x81
 2747 0426 09       		.byte	0x9
 2748 0427 0F       		.uleb128 0xf
 2749 0428 A80B0000 		.4byte	.LASF70
 2750 042c 06       		.byte	0x6
 2751 042d 2E01     		.2byte	0x12e
 2752 042f 81000000 		.4byte	0x81
 2753 0433 0A       		.byte	0xa
 2754 0434 0F       		.uleb128 0xf
 2755 0435 7B0B0000 		.4byte	.LASF71
 2756 0439 06       		.byte	0x6
 2757 043a 2F01     		.2byte	0x12f
 2758 043c 81000000 		.4byte	0x81
 2759 0440 0B       		.byte	0xb
 2760 0441 0F       		.uleb128 0xf
 2761 0442 B2090000 		.4byte	.LASF72
 2762 0446 06       		.byte	0x6
 2763 0447 3001     		.2byte	0x130
 2764 0449 81000000 		.4byte	0x81
 2765 044d 0C       		.byte	0xc
 2766 044e 0F       		.uleb128 0xf
 2767 044f 8D020000 		.4byte	.LASF63
 2768 0453 06       		.byte	0x6
 2769 0454 3101     		.2byte	0x131
 2770 0456 5C040000 		.4byte	0x45c
 2771 045a 0D       		.byte	0xd
 2772 045b 00       		.byte	0
 2773 045c 07       		.uleb128 0x7
 2774 045d 81000000 		.4byte	0x81
 2775 0461 6C040000 		.4byte	0x46c
 2776 0465 08       		.uleb128 0x8
 2777 0466 0E010000 		.4byte	0x10e
 2778 046a 02       		.byte	0x2
 2779 046b 00       		.byte	0
 2780 046c 0E       		.uleb128 0xe
 2781 046d 390C0000 		.4byte	.LASF73
 2782 0471 70       		.byte	0x70
 2783 0472 06       		.byte	0x6
 2784 0473 3801     		.2byte	0x138
 2785 0475 E6050000 		.4byte	0x5e6
 2786 0479 10       		.uleb128 0x10
 2787 047a 6B5F7000 		.ascii	"k_p\000"
 2788 047e 06       		.byte	0x6
 2789 047f 3901     		.2byte	0x139
 2790 0481 BD000000 		.4byte	0xbd
 2791 0485 00       		.byte	0
 2792 0486 10       		.uleb128 0x10
 2793 0487 6B5F6900 		.ascii	"k_i\000"
 2794 048b 06       		.byte	0x6
 2795 048c 3A01     		.2byte	0x13a
 2796 048e BD000000 		.4byte	0xbd
ARM GAS  C:\Users\mgnocco\AppData\Local\Temp\ccuVecaK.s 			page 63


 2797 0492 04       		.byte	0x4
 2798 0493 10       		.uleb128 0x10
 2799 0494 6B5F6400 		.ascii	"k_d\000"
 2800 0498 06       		.byte	0x6
 2801 0499 3B01     		.2byte	0x13b
 2802 049b BD000000 		.4byte	0xbd
 2803 049f 08       		.byte	0x8
 2804 04a0 0F       		.uleb128 0xf
 2805 04a1 13090000 		.4byte	.LASF74
 2806 04a5 06       		.byte	0x6
 2807 04a6 3C01     		.2byte	0x13c
 2808 04a8 BD000000 		.4byte	0xbd
 2809 04ac 0C       		.byte	0xc
 2810 04ad 0F       		.uleb128 0xf
 2811 04ae CD030000 		.4byte	.LASF75
 2812 04b2 06       		.byte	0x6
 2813 04b3 3D01     		.2byte	0x13d
 2814 04b5 BD000000 		.4byte	0xbd
 2815 04b9 10       		.byte	0x10
 2816 04ba 0F       		.uleb128 0xf
 2817 04bb B5030000 		.4byte	.LASF76
 2818 04bf 06       		.byte	0x6
 2819 04c0 3E01     		.2byte	0x13e
 2820 04c2 BD000000 		.4byte	0xbd
 2821 04c6 14       		.byte	0x14
 2822 04c7 0F       		.uleb128 0xf
 2823 04c8 540B0000 		.4byte	.LASF77
 2824 04cc 06       		.byte	0x6
 2825 04cd 3F01     		.2byte	0x13f
 2826 04cf BD000000 		.4byte	0xbd
 2827 04d3 18       		.byte	0x18
 2828 04d4 0F       		.uleb128 0xf
 2829 04d5 33040000 		.4byte	.LASF78
 2830 04d9 06       		.byte	0x6
 2831 04da 4001     		.2byte	0x140
 2832 04dc BD000000 		.4byte	0xbd
 2833 04e0 1C       		.byte	0x1c
 2834 04e1 0F       		.uleb128 0xf
 2835 04e2 8F0A0000 		.4byte	.LASF79
 2836 04e6 06       		.byte	0x6
 2837 04e7 4101     		.2byte	0x141
 2838 04e9 BD000000 		.4byte	0xbd
 2839 04ed 20       		.byte	0x20
 2840 04ee 0F       		.uleb128 0xf
 2841 04ef 41040000 		.4byte	.LASF80
 2842 04f3 06       		.byte	0x6
 2843 04f4 4201     		.2byte	0x142
 2844 04f6 BD000000 		.4byte	0xbd
 2845 04fa 24       		.byte	0x24
 2846 04fb 0F       		.uleb128 0xf
 2847 04fc 31050000 		.4byte	.LASF81
 2848 0500 06       		.byte	0x6
 2849 0501 4301     		.2byte	0x143
 2850 0503 BD000000 		.4byte	0xbd
 2851 0507 28       		.byte	0x28
 2852 0508 0F       		.uleb128 0xf
 2853 0509 D40C0000 		.4byte	.LASF82
ARM GAS  C:\Users\mgnocco\AppData\Local\Temp\ccuVecaK.s 			page 64


 2854 050d 06       		.byte	0x6
 2855 050e 4401     		.2byte	0x144
 2856 0510 BD000000 		.4byte	0xbd
 2857 0514 2C       		.byte	0x2c
 2858 0515 0F       		.uleb128 0xf
 2859 0516 B9050000 		.4byte	.LASF83
 2860 051a 06       		.byte	0x6
 2861 051b 4501     		.2byte	0x145
 2862 051d 81000000 		.4byte	0x81
 2863 0521 30       		.byte	0x30
 2864 0522 0F       		.uleb128 0xf
 2865 0523 3D0B0000 		.4byte	.LASF84
 2866 0527 06       		.byte	0x6
 2867 0528 4601     		.2byte	0x146
 2868 052a 81000000 		.4byte	0x81
 2869 052e 31       		.byte	0x31
 2870 052f 0F       		.uleb128 0xf
 2871 0530 25090000 		.4byte	.LASF85
 2872 0534 06       		.byte	0x6
 2873 0535 4701     		.2byte	0x147
 2874 0537 81000000 		.4byte	0x81
 2875 053b 32       		.byte	0x32
 2876 053c 0F       		.uleb128 0xf
 2877 053d 420C0000 		.4byte	.LASF86
 2878 0541 06       		.byte	0x6
 2879 0542 4801     		.2byte	0x148
 2880 0544 81000000 		.4byte	0x81
 2881 0548 33       		.byte	0x33
 2882 0549 0F       		.uleb128 0xf
 2883 054a C5000000 		.4byte	.LASF87
 2884 054e 06       		.byte	0x6
 2885 054f 4901     		.2byte	0x149
 2886 0551 BD000000 		.4byte	0xbd
 2887 0555 34       		.byte	0x34
 2888 0556 0F       		.uleb128 0xf
 2889 0557 F3030000 		.4byte	.LASF88
 2890 055b 06       		.byte	0x6
 2891 055c 4A01     		.2byte	0x14a
 2892 055e BD000000 		.4byte	0xbd
 2893 0562 38       		.byte	0x38
 2894 0563 0F       		.uleb128 0xf
 2895 0564 FF060000 		.4byte	.LASF89
 2896 0568 06       		.byte	0x6
 2897 0569 4B01     		.2byte	0x14b
 2898 056b BD000000 		.4byte	0xbd
 2899 056f 3C       		.byte	0x3c
 2900 0570 0F       		.uleb128 0xf
 2901 0571 8E030000 		.4byte	.LASF90
 2902 0575 06       		.byte	0x6
 2903 0576 4C01     		.2byte	0x14c
 2904 0578 BD000000 		.4byte	0xbd
 2905 057c 40       		.byte	0x40
 2906 057d 0F       		.uleb128 0xf
 2907 057e 16010000 		.4byte	.LASF91
 2908 0582 06       		.byte	0x6
 2909 0583 4D01     		.2byte	0x14d
 2910 0585 E6050000 		.4byte	0x5e6
ARM GAS  C:\Users\mgnocco\AppData\Local\Temp\ccuVecaK.s 			page 65


 2911 0589 44       		.byte	0x44
 2912 058a 0F       		.uleb128 0xf
 2913 058b 910C0000 		.4byte	.LASF92
 2914 058f 06       		.byte	0x6
 2915 0590 4E01     		.2byte	0x14e
 2916 0592 B1000000 		.4byte	0xb1
 2917 0596 5C       		.byte	0x5c
 2918 0597 0F       		.uleb128 0xf
 2919 0598 DE050000 		.4byte	.LASF93
 2920 059c 06       		.byte	0x6
 2921 059d 4F01     		.2byte	0x14f
 2922 059f 81000000 		.4byte	0x81
 2923 05a3 5E       		.byte	0x5e
 2924 05a4 0F       		.uleb128 0xf
 2925 05a5 A8070000 		.4byte	.LASF94
 2926 05a9 06       		.byte	0x6
 2927 05aa 5001     		.2byte	0x150
 2928 05ac 81000000 		.4byte	0x81
 2929 05b0 5F       		.byte	0x5f
 2930 05b1 0F       		.uleb128 0xf
 2931 05b2 6F030000 		.4byte	.LASF95
 2932 05b6 06       		.byte	0x6
 2933 05b7 5101     		.2byte	0x151
 2934 05b9 81000000 		.4byte	0x81
 2935 05bd 60       		.byte	0x60
 2936 05be 0F       		.uleb128 0xf
 2937 05bf A4030000 		.4byte	.LASF96
 2938 05c3 06       		.byte	0x6
 2939 05c4 5201     		.2byte	0x152
 2940 05c6 81000000 		.4byte	0x81
 2941 05ca 61       		.byte	0x61
 2942 05cb 0F       		.uleb128 0xf
 2943 05cc 3B030000 		.4byte	.LASF97
 2944 05d0 06       		.byte	0x6
 2945 05d1 5301     		.2byte	0x153
 2946 05d3 81000000 		.4byte	0x81
 2947 05d7 62       		.byte	0x62
 2948 05d8 0F       		.uleb128 0xf
 2949 05d9 8D020000 		.4byte	.LASF63
 2950 05dd 06       		.byte	0x6
 2951 05de 5401     		.2byte	0x154
 2952 05e0 F6050000 		.4byte	0x5f6
 2953 05e4 63       		.byte	0x63
 2954 05e5 00       		.byte	0
 2955 05e6 07       		.uleb128 0x7
 2956 05e7 D5000000 		.4byte	0xd5
 2957 05eb F6050000 		.4byte	0x5f6
 2958 05ef 08       		.uleb128 0x8
 2959 05f0 0E010000 		.4byte	0x10e
 2960 05f4 05       		.byte	0x5
 2961 05f5 00       		.byte	0
 2962 05f6 07       		.uleb128 0x7
 2963 05f7 81000000 		.4byte	0x81
 2964 05fb 06060000 		.4byte	0x606
 2965 05ff 08       		.uleb128 0x8
 2966 0600 0E010000 		.4byte	0x10e
 2967 0604 0C       		.byte	0xc
ARM GAS  C:\Users\mgnocco\AppData\Local\Temp\ccuVecaK.s 			page 66


 2968 0605 00       		.byte	0
 2969 0606 0E       		.uleb128 0xe
 2970 0607 E70B0000 		.4byte	.LASF98
 2971 060b 30       		.byte	0x30
 2972 060c 06       		.byte	0x6
 2973 060d 5B01     		.2byte	0x15b
 2974 060f 89060000 		.4byte	0x689
 2975 0613 0F       		.uleb128 0xf
 2976 0614 ED060000 		.4byte	.LASF99
 2977 0618 06       		.byte	0x6
 2978 0619 5C01     		.2byte	0x15c
 2979 061b 89060000 		.4byte	0x689
 2980 061f 00       		.byte	0
 2981 0620 10       		.uleb128 0x10
 2982 0621 72657300 		.ascii	"res\000"
 2983 0625 06       		.byte	0x6
 2984 0626 5D01     		.2byte	0x15d
 2985 0628 5C040000 		.4byte	0x45c
 2986 062c 05       		.byte	0x5
 2987 062d 0F       		.uleb128 0xf
 2988 062e BF050000 		.4byte	.LASF100
 2989 0632 06       		.byte	0x6
 2990 0633 5E01     		.2byte	0x15e
 2991 0635 2D020000 		.4byte	0x22d
 2992 0639 08       		.byte	0x8
 2993 063a 0F       		.uleb128 0xf
 2994 063b C6030000 		.4byte	.LASF101
 2995 063f 06       		.byte	0x6
 2996 0640 5F01     		.2byte	0x15f
 2997 0642 99060000 		.4byte	0x699
 2998 0646 14       		.byte	0x14
 2999 0647 0F       		.uleb128 0xf
 3000 0648 89080000 		.4byte	.LASF102
 3001 064c 06       		.byte	0x6
 3002 064d 6001     		.2byte	0x160
 3003 064f 81000000 		.4byte	0x81
 3004 0653 20       		.byte	0x20
 3005 0654 0F       		.uleb128 0xf
 3006 0655 A8010000 		.4byte	.LASF103
 3007 0659 06       		.byte	0x6
 3008 065a 6101     		.2byte	0x161
 3009 065c 5C040000 		.4byte	0x45c
 3010 0660 21       		.byte	0x21
 3011 0661 0F       		.uleb128 0xf
 3012 0662 17080000 		.4byte	.LASF104
 3013 0666 06       		.byte	0x6
 3014 0667 6201     		.2byte	0x162
 3015 0669 A5000000 		.4byte	0xa5
 3016 066d 24       		.byte	0x24
 3017 066e 0F       		.uleb128 0xf
 3018 066f D4090000 		.4byte	.LASF105
 3019 0673 06       		.byte	0x6
 3020 0674 6301     		.2byte	0x163
 3021 0676 3D020000 		.4byte	0x23d
 3022 067a 25       		.byte	0x25
 3023 067b 0F       		.uleb128 0xf
 3024 067c 8D020000 		.4byte	.LASF63
ARM GAS  C:\Users\mgnocco\AppData\Local\Temp\ccuVecaK.s 			page 67


 3025 0680 06       		.byte	0x6
 3026 0681 6401     		.2byte	0x164
 3027 0683 A9060000 		.4byte	0x6a9
 3028 0687 28       		.byte	0x28
 3029 0688 00       		.byte	0
 3030 0689 07       		.uleb128 0x7
 3031 068a 81000000 		.4byte	0x81
 3032 068e 99060000 		.4byte	0x699
 3033 0692 08       		.uleb128 0x8
 3034 0693 0E010000 		.4byte	0x10e
 3035 0697 04       		.byte	0x4
 3036 0698 00       		.byte	0
 3037 0699 07       		.uleb128 0x7
 3038 069a C9000000 		.4byte	0xc9
 3039 069e A9060000 		.4byte	0x6a9
 3040 06a2 08       		.uleb128 0x8
 3041 06a3 0E010000 		.4byte	0x10e
 3042 06a7 02       		.byte	0x2
 3043 06a8 00       		.byte	0
 3044 06a9 07       		.uleb128 0x7
 3045 06aa 81000000 		.4byte	0x81
 3046 06ae B9060000 		.4byte	0x6b9
 3047 06b2 08       		.uleb128 0x8
 3048 06b3 0E010000 		.4byte	0x10e
 3049 06b7 07       		.byte	0x7
 3050 06b8 00       		.byte	0
 3051 06b9 0E       		.uleb128 0xe
 3052 06ba 6D010000 		.4byte	.LASF106
 3053 06be 10       		.byte	0x10
 3054 06bf 06       		.byte	0x6
 3055 06c0 6B01     		.2byte	0x16b
 3056 06c2 08070000 		.4byte	0x708
 3057 06c6 0F       		.uleb128 0xf
 3058 06c7 F6070000 		.4byte	.LASF107
 3059 06cb 06       		.byte	0x6
 3060 06cc 6C01     		.2byte	0x16c
 3061 06ce 08070000 		.4byte	0x708
 3062 06d2 00       		.byte	0
 3063 06d3 0F       		.uleb128 0xf
 3064 06d4 830C0000 		.4byte	.LASF108
 3065 06d8 06       		.byte	0x6
 3066 06d9 6D01     		.2byte	0x16d
 3067 06db 8D030000 		.4byte	0x38d
 3068 06df 04       		.byte	0x4
 3069 06e0 0F       		.uleb128 0xf
 3070 06e1 FF030000 		.4byte	.LASF109
 3071 06e5 06       		.byte	0x6
 3072 06e6 6E01     		.2byte	0x16e
 3073 06e8 18070000 		.4byte	0x718
 3074 06ec 0C       		.byte	0xc
 3075 06ed 0F       		.uleb128 0xf
 3076 06ee EE090000 		.4byte	.LASF110
 3077 06f2 06       		.byte	0x6
 3078 06f3 6F01     		.2byte	0x16f
 3079 06f5 81000000 		.4byte	0x81
 3080 06f9 0E       		.byte	0xe
 3081 06fa 0F       		.uleb128 0xf
ARM GAS  C:\Users\mgnocco\AppData\Local\Temp\ccuVecaK.s 			page 68


 3082 06fb 01030000 		.4byte	.LASF111
 3083 06ff 06       		.byte	0x6
 3084 0700 7001     		.2byte	0x170
 3085 0702 81000000 		.4byte	0x81
 3086 0706 0F       		.byte	0xf
 3087 0707 00       		.byte	0
 3088 0708 07       		.uleb128 0x7
 3089 0709 8D000000 		.4byte	0x8d
 3090 070d 18070000 		.4byte	0x718
 3091 0711 08       		.uleb128 0x8
 3092 0712 0E010000 		.4byte	0x10e
 3093 0716 01       		.byte	0x1
 3094 0717 00       		.byte	0
 3095 0718 07       		.uleb128 0x7
 3096 0719 81000000 		.4byte	0x81
 3097 071d 28070000 		.4byte	0x728
 3098 0721 08       		.uleb128 0x8
 3099 0722 0E010000 		.4byte	0x10e
 3100 0726 01       		.byte	0x1
 3101 0727 00       		.byte	0
 3102 0728 0E       		.uleb128 0xe
 3103 0729 D2070000 		.4byte	.LASF112
 3104 072d 20       		.byte	0x20
 3105 072e 06       		.byte	0x6
 3106 072f 7701     		.2byte	0x177
 3107 0731 6A070000 		.4byte	0x76a
 3108 0735 0F       		.uleb128 0xf
 3109 0736 20020000 		.4byte	.LASF113
 3110 073a 06       		.byte	0x6
 3111 073b 7801     		.2byte	0x178
 3112 073d 81000000 		.4byte	0x81
 3113 0741 00       		.byte	0
 3114 0742 0F       		.uleb128 0xf
 3115 0743 C50B0000 		.4byte	.LASF114
 3116 0747 06       		.byte	0x6
 3117 0748 7901     		.2byte	0x179
 3118 074a 81000000 		.4byte	0x81
 3119 074e 01       		.byte	0x1
 3120 074f 0F       		.uleb128 0xf
 3121 0750 5A070000 		.4byte	.LASF115
 3122 0754 06       		.byte	0x6
 3123 0755 7A01     		.2byte	0x17a
 3124 0757 6A070000 		.4byte	0x76a
 3125 075b 02       		.byte	0x2
 3126 075c 0F       		.uleb128 0xf
 3127 075d 8D020000 		.4byte	.LASF63
 3128 0761 06       		.byte	0x6
 3129 0762 7B01     		.2byte	0x17b
 3130 0764 89060000 		.4byte	0x689
 3131 0768 1B       		.byte	0x1b
 3132 0769 00       		.byte	0
 3133 076a 07       		.uleb128 0x7
 3134 076b 81000000 		.4byte	0x81
 3135 076f 80070000 		.4byte	0x780
 3136 0773 08       		.uleb128 0x8
 3137 0774 0E010000 		.4byte	0x10e
 3138 0778 04       		.byte	0x4
ARM GAS  C:\Users\mgnocco\AppData\Local\Temp\ccuVecaK.s 			page 69


 3139 0779 08       		.uleb128 0x8
 3140 077a 0E010000 		.4byte	0x10e
 3141 077e 04       		.byte	0x4
 3142 077f 00       		.byte	0
 3143 0780 0E       		.uleb128 0xe
 3144 0781 E1090000 		.4byte	.LASF116
 3145 0785 20       		.byte	0x20
 3146 0786 06       		.byte	0x6
 3147 0787 8201     		.2byte	0x182
 3148 0789 DC070000 		.4byte	0x7dc
 3149 078d 0F       		.uleb128 0xf
 3150 078e 7F080000 		.4byte	.LASF117
 3151 0792 06       		.byte	0x6
 3152 0793 8301     		.2byte	0x183
 3153 0795 DC070000 		.4byte	0x7dc
 3154 0799 00       		.byte	0
 3155 079a 0F       		.uleb128 0xf
 3156 079b 1E0B0000 		.4byte	.LASF118
 3157 079f 06       		.byte	0x6
 3158 07a0 8401     		.2byte	0x184
 3159 07a2 81000000 		.4byte	0x81
 3160 07a6 06       		.byte	0x6
 3161 07a7 0F       		.uleb128 0xf
 3162 07a8 6B000000 		.4byte	.LASF119
 3163 07ac 06       		.byte	0x6
 3164 07ad 8501     		.2byte	0x185
 3165 07af 81000000 		.4byte	0x81
 3166 07b3 07       		.byte	0x7
 3167 07b4 0F       		.uleb128 0xf
 3168 07b5 2A040000 		.4byte	.LASF120
 3169 07b9 06       		.byte	0x6
 3170 07ba 8601     		.2byte	0x186
 3171 07bc BD030000 		.4byte	0x3bd
 3172 07c0 08       		.byte	0x8
 3173 07c1 0F       		.uleb128 0xf
 3174 07c2 2E020000 		.4byte	.LASF121
 3175 07c6 06       		.byte	0x6
 3176 07c7 8701     		.2byte	0x187
 3177 07c9 81000000 		.4byte	0x81
 3178 07cd 14       		.byte	0x14
 3179 07ce 0F       		.uleb128 0xf
 3180 07cf 8D020000 		.4byte	.LASF63
 3181 07d3 06       		.byte	0x6
 3182 07d4 8801     		.2byte	0x188
 3183 07d6 EC070000 		.4byte	0x7ec
 3184 07da 15       		.byte	0x15
 3185 07db 00       		.byte	0
 3186 07dc 07       		.uleb128 0x7
 3187 07dd 81000000 		.4byte	0x81
 3188 07e1 EC070000 		.4byte	0x7ec
 3189 07e5 08       		.uleb128 0x8
 3190 07e6 0E010000 		.4byte	0x10e
 3191 07ea 05       		.byte	0x5
 3192 07eb 00       		.byte	0
 3193 07ec 07       		.uleb128 0x7
 3194 07ed 81000000 		.4byte	0x81
 3195 07f1 FC070000 		.4byte	0x7fc
ARM GAS  C:\Users\mgnocco\AppData\Local\Temp\ccuVecaK.s 			page 70


 3196 07f5 08       		.uleb128 0x8
 3197 07f6 0E010000 		.4byte	0x10e
 3198 07fa 0A       		.byte	0xa
 3199 07fb 00       		.byte	0
 3200 07fc 0E       		.uleb128 0xe
 3201 07fd CC090000 		.4byte	.LASF122
 3202 0801 20       		.byte	0x20
 3203 0802 06       		.byte	0x6
 3204 0803 8F01     		.2byte	0x18f
 3205 0805 31080000 		.4byte	0x831
 3206 0809 0F       		.uleb128 0xf
 3207 080a F0020000 		.4byte	.LASF123
 3208 080e 06       		.byte	0x6
 3209 080f 9001     		.2byte	0x190
 3210 0811 15010000 		.4byte	0x115
 3211 0815 00       		.byte	0
 3212 0816 0F       		.uleb128 0xf
 3213 0817 84020000 		.4byte	.LASF124
 3214 081b 06       		.byte	0x6
 3215 081c 9101     		.2byte	0x191
 3216 081e B9060000 		.4byte	0x6b9
 3217 0822 08       		.byte	0x8
 3218 0823 0F       		.uleb128 0xf
 3219 0824 8D020000 		.4byte	.LASF63
 3220 0828 06       		.byte	0x6
 3221 0829 9201     		.2byte	0x192
 3222 082b A9060000 		.4byte	0x6a9
 3223 082f 18       		.byte	0x18
 3224 0830 00       		.byte	0
 3225 0831 0E       		.uleb128 0xe
 3226 0832 A0060000 		.4byte	.LASF125
 3227 0836 10       		.byte	0x10
 3228 0837 06       		.byte	0x6
 3229 0838 9901     		.2byte	0x199
 3230 083a 80080000 		.4byte	0x880
 3231 083e 0F       		.uleb128 0xf
 3232 083f C5050000 		.4byte	.LASF126
 3233 0843 06       		.byte	0x6
 3234 0844 9A01     		.2byte	0x19a
 3235 0846 BD000000 		.4byte	0xbd
 3236 084a 00       		.byte	0
 3237 084b 0F       		.uleb128 0xf
 3238 084c C90C0000 		.4byte	.LASF127
 3239 0850 06       		.byte	0x6
 3240 0851 9B01     		.2byte	0x19b
 3241 0853 BD000000 		.4byte	0xbd
 3242 0857 04       		.byte	0x4
 3243 0858 0F       		.uleb128 0xf
 3244 0859 09040000 		.4byte	.LASF128
 3245 085d 06       		.byte	0x6
 3246 085e 9C01     		.2byte	0x19c
 3247 0860 BD000000 		.4byte	0xbd
 3248 0864 08       		.byte	0x8
 3249 0865 0F       		.uleb128 0xf
 3250 0866 07050000 		.4byte	.LASF129
 3251 086a 06       		.byte	0x6
 3252 086b 9D01     		.2byte	0x19d
ARM GAS  C:\Users\mgnocco\AppData\Local\Temp\ccuVecaK.s 			page 71


 3253 086d 81000000 		.4byte	0x81
 3254 0871 0C       		.byte	0xc
 3255 0872 0F       		.uleb128 0xf
 3256 0873 8D020000 		.4byte	.LASF63
 3257 0877 06       		.byte	0x6
 3258 0878 9E01     		.2byte	0x19e
 3259 087a 5C040000 		.4byte	0x45c
 3260 087e 0D       		.byte	0xd
 3261 087f 00       		.byte	0
 3262 0880 0E       		.uleb128 0xe
 3263 0881 700A0000 		.4byte	.LASF130
 3264 0885 10       		.byte	0x10
 3265 0886 06       		.byte	0x6
 3266 0887 A501     		.2byte	0x1a5
 3267 0889 C2080000 		.4byte	0x8c2
 3268 088d 0F       		.uleb128 0xf
 3269 088e 1A050000 		.4byte	.LASF131
 3270 0892 06       		.byte	0x6
 3271 0893 A601     		.2byte	0x1a6
 3272 0895 8D000000 		.4byte	0x8d
 3273 0899 00       		.byte	0
 3274 089a 0F       		.uleb128 0xf
 3275 089b 290A0000 		.4byte	.LASF132
 3276 089f 06       		.byte	0x6
 3277 08a0 A701     		.2byte	0x1a7
 3278 08a2 B1000000 		.4byte	0xb1
 3279 08a6 02       		.byte	0x2
 3280 08a7 0F       		.uleb128 0xf
 3281 08a8 7C050000 		.4byte	.LASF133
 3282 08ac 06       		.byte	0x6
 3283 08ad A801     		.2byte	0x1a8
 3284 08af 08070000 		.4byte	0x708
 3285 08b3 04       		.byte	0x4
 3286 08b4 0F       		.uleb128 0xf
 3287 08b5 8D020000 		.4byte	.LASF63
 3288 08b9 06       		.byte	0x6
 3289 08ba A901     		.2byte	0x1a9
 3290 08bc A9060000 		.4byte	0x6a9
 3291 08c0 08       		.byte	0x8
 3292 08c1 00       		.byte	0
 3293 08c2 0E       		.uleb128 0xe
 3294 08c3 39010000 		.4byte	.LASF134
 3295 08c7 10       		.byte	0x10
 3296 08c8 06       		.byte	0x6
 3297 08c9 B001     		.2byte	0x1b0
 3298 08cb F7080000 		.4byte	0x8f7
 3299 08cf 0F       		.uleb128 0xf
 3300 08d0 90090000 		.4byte	.LASF135
 3301 08d4 06       		.byte	0x6
 3302 08d5 B101     		.2byte	0x1b1
 3303 08d7 81000000 		.4byte	0x81
 3304 08db 00       		.byte	0
 3305 08dc 0F       		.uleb128 0xf
 3306 08dd 46070000 		.4byte	.LASF136
 3307 08e1 06       		.byte	0x6
 3308 08e2 B201     		.2byte	0x1b2
 3309 08e4 81000000 		.4byte	0x81
ARM GAS  C:\Users\mgnocco\AppData\Local\Temp\ccuVecaK.s 			page 72


 3310 08e8 01       		.byte	0x1
 3311 08e9 0F       		.uleb128 0xf
 3312 08ea 8D020000 		.4byte	.LASF63
 3313 08ee 06       		.byte	0x6
 3314 08ef B301     		.2byte	0x1b3
 3315 08f1 F7080000 		.4byte	0x8f7
 3316 08f5 02       		.byte	0x2
 3317 08f6 00       		.byte	0
 3318 08f7 07       		.uleb128 0x7
 3319 08f8 81000000 		.4byte	0x81
 3320 08fc 07090000 		.4byte	0x907
 3321 0900 08       		.uleb128 0x8
 3322 0901 0E010000 		.4byte	0x10e
 3323 0905 0D       		.byte	0xd
 3324 0906 00       		.byte	0
 3325 0907 0E       		.uleb128 0xe
 3326 0908 AB060000 		.4byte	.LASF137
 3327 090c 10       		.byte	0x10
 3328 090d 06       		.byte	0x6
 3329 090e BA01     		.2byte	0x1ba
 3330 0910 49090000 		.4byte	0x949
 3331 0914 0F       		.uleb128 0xf
 3332 0915 FD0B0000 		.4byte	.LASF138
 3333 0919 06       		.byte	0x6
 3334 091a BB01     		.2byte	0x1bb
 3335 091c BD000000 		.4byte	0xbd
 3336 0920 00       		.byte	0
 3337 0921 0F       		.uleb128 0xf
 3338 0922 F2040000 		.4byte	.LASF139
 3339 0926 06       		.byte	0x6
 3340 0927 BC01     		.2byte	0x1bc
 3341 0929 D5000000 		.4byte	0xd5
 3342 092d 04       		.byte	0x4
 3343 092e 0F       		.uleb128 0xf
 3344 092f 51090000 		.4byte	.LASF140
 3345 0933 06       		.byte	0x6
 3346 0934 BD01     		.2byte	0x1bd
 3347 0936 D5000000 		.4byte	0xd5
 3348 093a 08       		.byte	0x8
 3349 093b 0F       		.uleb128 0xf
 3350 093c 8D020000 		.4byte	.LASF63
 3351 0940 06       		.byte	0x6
 3352 0941 BE01     		.2byte	0x1be
 3353 0943 49090000 		.4byte	0x949
 3354 0947 0C       		.byte	0xc
 3355 0948 00       		.byte	0
 3356 0949 07       		.uleb128 0x7
 3357 094a 81000000 		.4byte	0x81
 3358 094e 59090000 		.4byte	0x959
 3359 0952 08       		.uleb128 0x8
 3360 0953 0E010000 		.4byte	0x10e
 3361 0957 03       		.byte	0x3
 3362 0958 00       		.byte	0
 3363 0959 0E       		.uleb128 0xe
 3364 095a 97010000 		.4byte	.LASF141
 3365 095e 12       		.byte	0x12
 3366 095f 06       		.byte	0x6
ARM GAS  C:\Users\mgnocco\AppData\Local\Temp\ccuVecaK.s 			page 73


 3367 0960 C501     		.2byte	0x1c5
 3368 0962 9B090000 		.4byte	0x99b
 3369 0966 0F       		.uleb128 0xf
 3370 0967 B20C0000 		.4byte	.LASF142
 3371 096b 06       		.byte	0x6
 3372 096c C601     		.2byte	0x1c6
 3373 096e 81000000 		.4byte	0x81
 3374 0972 00       		.byte	0
 3375 0973 0F       		.uleb128 0xf
 3376 0974 B20B0000 		.4byte	.LASF143
 3377 0978 06       		.byte	0x6
 3378 0979 C701     		.2byte	0x1c7
 3379 097b 08070000 		.4byte	0x708
 3380 097f 02       		.byte	0x2
 3381 0980 0F       		.uleb128 0xf
 3382 0981 37000000 		.4byte	.LASF144
 3383 0985 06       		.byte	0x6
 3384 0986 C801     		.2byte	0x1c8
 3385 0988 81000000 		.4byte	0x81
 3386 098c 06       		.byte	0x6
 3387 098d 0F       		.uleb128 0xf
 3388 098e 8D020000 		.4byte	.LASF63
 3389 0992 06       		.byte	0x6
 3390 0993 C901     		.2byte	0x1c9
 3391 0995 9B090000 		.4byte	0x99b
 3392 0999 07       		.byte	0x7
 3393 099a 00       		.byte	0
 3394 099b 07       		.uleb128 0x7
 3395 099c 81000000 		.4byte	0x81
 3396 09a0 AB090000 		.4byte	0x9ab
 3397 09a4 08       		.uleb128 0x8
 3398 09a5 0E010000 		.4byte	0x10e
 3399 09a9 09       		.byte	0x9
 3400 09aa 00       		.byte	0
 3401 09ab 11       		.uleb128 0x11
 3402 09ac 120C0000 		.4byte	.LASF145
 3403 09b0 6403     		.2byte	0x364
 3404 09b2 06       		.byte	0x6
 3405 09b3 D201     		.2byte	0x1d2
 3406 09b5 900A0000 		.4byte	0xa90
 3407 09b9 0F       		.uleb128 0xf
 3408 09ba A3070000 		.4byte	.LASF146
 3409 09be 06       		.byte	0x6
 3410 09bf D401     		.2byte	0x1d4
 3411 09c1 81000000 		.4byte	0x81
 3412 09c5 00       		.byte	0
 3413 09c6 0F       		.uleb128 0xf
 3414 09c7 8D020000 		.4byte	.LASF63
 3415 09cb 06       		.byte	0x6
 3416 09cc D501     		.2byte	0x1d5
 3417 09ce 900A0000 		.4byte	0xa90
 3418 09d2 01       		.byte	0x1
 3419 09d3 10       		.uleb128 0x10
 3420 09d4 636E7400 		.ascii	"cnt\000"
 3421 09d8 06       		.byte	0x6
 3422 09d9 D601     		.2byte	0x1d6
 3423 09db F0020000 		.4byte	0x2f0
ARM GAS  C:\Users\mgnocco\AppData\Local\Temp\ccuVecaK.s 			page 74


 3424 09df 10       		.byte	0x10
 3425 09e0 0F       		.uleb128 0xf
 3426 09e1 50020000 		.4byte	.LASF147
 3427 09e5 06       		.byte	0x6
 3428 09e6 D701     		.2byte	0x1d7
 3429 09e8 A00A0000 		.4byte	0xaa0
 3430 09ec 80       		.byte	0x80
 3431 09ed 10       		.uleb128 0x10
 3432 09ee 64657600 		.ascii	"dev\000"
 3433 09f2 06       		.byte	0x6
 3434 09f3 D801     		.2byte	0x1d8
 3435 09f5 CD030000 		.4byte	0x3cd
 3436 09f9 A0       		.byte	0xa0
 3437 09fa 0F       		.uleb128 0xf
 3438 09fb 9F0A0000 		.4byte	.LASF148
 3439 09ff 06       		.byte	0x6
 3440 0a00 D901     		.2byte	0x1d9
 3441 0a02 B00A0000 		.4byte	0xab0
 3442 0a06 B0       		.byte	0xb0
 3443 0a07 12       		.uleb128 0x12
 3444 0a08 656E6300 		.ascii	"enc\000"
 3445 0a0c 06       		.byte	0x6
 3446 0a0d DA01     		.2byte	0x1da
 3447 0a0f C00A0000 		.4byte	0xac0
 3448 0a13 0002     		.2byte	0x200
 3449 0a15 12       		.uleb128 0x12
 3450 0a16 656D6700 		.ascii	"emg\000"
 3451 0a1a 06       		.byte	0x6
 3452 0a1b DB01     		.2byte	0x1db
 3453 0a1d B9060000 		.4byte	0x6b9
 3454 0a21 6002     		.2byte	0x260
 3455 0a23 12       		.uleb128 0x12
 3456 0a24 696D7500 		.ascii	"imu\000"
 3457 0a28 06       		.byte	0x6
 3458 0a29 DC01     		.2byte	0x1dc
 3459 0a2b 28070000 		.4byte	0x728
 3460 0a2f 7002     		.2byte	0x270
 3461 0a31 12       		.uleb128 0x12
 3462 0a32 65787000 		.ascii	"exp\000"
 3463 0a36 06       		.byte	0x6
 3464 0a37 DD01     		.2byte	0x1dd
 3465 0a39 80070000 		.4byte	0x780
 3466 0a3d 9002     		.2byte	0x290
 3467 0a3f 13       		.uleb128 0x13
 3468 0a40 86000000 		.4byte	.LASF149
 3469 0a44 06       		.byte	0x6
 3470 0a45 DE01     		.2byte	0x1de
 3471 0a47 D00A0000 		.4byte	0xad0
 3472 0a4b B002     		.2byte	0x2b0
 3473 0a4d 12       		.uleb128 0x12
 3474 0a4e 534800   		.ascii	"SH\000"
 3475 0a51 06       		.byte	0x6
 3476 0a52 E001     		.2byte	0x1e0
 3477 0a54 31080000 		.4byte	0x831
 3478 0a58 1003     		.2byte	0x310
 3479 0a5a 13       		.uleb128 0x13
 3480 0a5b BC000000 		.4byte	.LASF150
ARM GAS  C:\Users\mgnocco\AppData\Local\Temp\ccuVecaK.s 			page 75


 3481 0a5f 06       		.byte	0x6
 3482 0a60 E101     		.2byte	0x1e1
 3483 0a62 80080000 		.4byte	0x880
 3484 0a66 2003     		.2byte	0x320
 3485 0a68 12       		.uleb128 0x12
 3486 0a69 4D5300   		.ascii	"MS\000"
 3487 0a6c 06       		.byte	0x6
 3488 0a6d E201     		.2byte	0x1e2
 3489 0a6f C2080000 		.4byte	0x8c2
 3490 0a73 3003     		.2byte	0x330
 3491 0a75 12       		.uleb128 0x12
 3492 0a76 464200   		.ascii	"FB\000"
 3493 0a79 06       		.byte	0x6
 3494 0a7a E301     		.2byte	0x1e3
 3495 0a7c 07090000 		.4byte	0x907
 3496 0a80 4003     		.2byte	0x340
 3497 0a82 12       		.uleb128 0x12
 3498 0a83 575200   		.ascii	"WR\000"
 3499 0a86 06       		.byte	0x6
 3500 0a87 E401     		.2byte	0x1e4
 3501 0a89 59090000 		.4byte	0x959
 3502 0a8d 5003     		.2byte	0x350
 3503 0a8f 00       		.byte	0
 3504 0a90 07       		.uleb128 0x7
 3505 0a91 81000000 		.4byte	0x81
 3506 0a95 A00A0000 		.4byte	0xaa0
 3507 0a99 08       		.uleb128 0x8
 3508 0a9a 0E010000 		.4byte	0x10e
 3509 0a9e 0E       		.byte	0xe
 3510 0a9f 00       		.byte	0
 3511 0aa0 07       		.uleb128 0x7
 3512 0aa1 81000000 		.4byte	0x81
 3513 0aa5 B00A0000 		.4byte	0xab0
 3514 0aa9 08       		.uleb128 0x8
 3515 0aaa 0E010000 		.4byte	0x10e
 3516 0aae 1F       		.byte	0x1f
 3517 0aaf 00       		.byte	0
 3518 0ab0 07       		.uleb128 0x7
 3519 0ab1 6C040000 		.4byte	0x46c
 3520 0ab5 C00A0000 		.4byte	0xac0
 3521 0ab9 08       		.uleb128 0x8
 3522 0aba 0E010000 		.4byte	0x10e
 3523 0abe 02       		.byte	0x2
 3524 0abf 00       		.byte	0
 3525 0ac0 07       		.uleb128 0x7
 3526 0ac1 06060000 		.4byte	0x606
 3527 0ac5 D00A0000 		.4byte	0xad0
 3528 0ac9 08       		.uleb128 0x8
 3529 0aca 0E010000 		.4byte	0x10e
 3530 0ace 01       		.byte	0x1
 3531 0acf 00       		.byte	0
 3532 0ad0 07       		.uleb128 0x7
 3533 0ad1 FC070000 		.4byte	0x7fc
 3534 0ad5 E00A0000 		.4byte	0xae0
 3535 0ad9 08       		.uleb128 0x8
 3536 0ada 0E010000 		.4byte	0x10e
 3537 0ade 02       		.byte	0x2
ARM GAS  C:\Users\mgnocco\AppData\Local\Temp\ccuVecaK.s 			page 76


 3538 0adf 00       		.byte	0
 3539 0ae0 14       		.uleb128 0x14
 3540 0ae1 01       		.byte	0x1
 3541 0ae2 2C000000 		.4byte	0x2c
 3542 0ae6 06       		.byte	0x6
 3543 0ae7 0D02     		.2byte	0x20d
 3544 0ae9 120B0000 		.4byte	0xb12
 3545 0aed 0A       		.uleb128 0xa
 3546 0aee 12040000 		.4byte	.LASF151
 3547 0af2 00       		.byte	0
 3548 0af3 0A       		.uleb128 0xa
 3549 0af4 8A090000 		.4byte	.LASF152
 3550 0af8 01       		.byte	0x1
 3551 0af9 0A       		.uleb128 0xa
 3552 0afa 53080000 		.4byte	.LASF153
 3553 0afe 02       		.byte	0x2
 3554 0aff 0A       		.uleb128 0xa
 3555 0b00 13020000 		.4byte	.LASF154
 3556 0b04 03       		.byte	0x3
 3557 0b05 0A       		.uleb128 0xa
 3558 0b06 4F070000 		.4byte	.LASF155
 3559 0b0a 04       		.byte	0x4
 3560 0b0b 0A       		.uleb128 0xa
 3561 0b0c 37090000 		.4byte	.LASF156
 3562 0b10 05       		.byte	0x5
 3563 0b11 00       		.byte	0
 3564 0b12 05       		.uleb128 0x5
 3565 0b13 BB030000 		.4byte	.LASF157
 3566 0b17 06       		.byte	0x6
 3567 0b18 1502     		.2byte	0x215
 3568 0b1a E00A0000 		.4byte	0xae0
 3569 0b1e 14       		.uleb128 0x14
 3570 0b1f 01       		.byte	0x1
 3571 0b20 2C000000 		.4byte	0x2c
 3572 0b24 06       		.byte	0x6
 3573 0b25 1702     		.2byte	0x217
 3574 0b27 4A0B0000 		.4byte	0xb4a
 3575 0b2b 0A       		.uleb128 0xa
 3576 0b2c 82010000 		.4byte	.LASF158
 3577 0b30 00       		.byte	0
 3578 0b31 0A       		.uleb128 0xa
 3579 0b32 6F050000 		.4byte	.LASF159
 3580 0b36 01       		.byte	0x1
 3581 0b37 0A       		.uleb128 0xa
 3582 0b38 D3050000 		.4byte	.LASF160
 3583 0b3c 02       		.byte	0x2
 3584 0b3d 0A       		.uleb128 0xa
 3585 0b3e C9020000 		.4byte	.LASF161
 3586 0b42 03       		.byte	0x3
 3587 0b43 0A       		.uleb128 0xa
 3588 0b44 AD0C0000 		.4byte	.LASF162
 3589 0b48 04       		.byte	0x4
 3590 0b49 00       		.byte	0
 3591 0b4a 05       		.uleb128 0x5
 3592 0b4b 5B0A0000 		.4byte	.LASF163
 3593 0b4f 06       		.byte	0x6
 3594 0b50 1E02     		.2byte	0x21e
ARM GAS  C:\Users\mgnocco\AppData\Local\Temp\ccuVecaK.s 			page 77


 3595 0b52 1E0B0000 		.4byte	0xb1e
 3596 0b56 15       		.uleb128 0x15
 3597 0b57 DA030000 		.4byte	.LASF164
 3598 0b5b 01       		.byte	0x1
 3599 0b5c 62       		.byte	0x62
 3600 0b5d 00000000 		.4byte	.LFB64
 3601 0b61 18000000 		.4byte	.LFE64-.LFB64
 3602 0b65 01       		.uleb128 0x1
 3603 0b66 9C       		.byte	0x9c
 3604 0b67 15       		.uleb128 0x15
 3605 0b68 950B0000 		.4byte	.LASF165
 3606 0b6c 01       		.byte	0x1
 3607 0b6d 6D       		.byte	0x6d
 3608 0b6e 00000000 		.4byte	.LFB65
 3609 0b72 20000000 		.4byte	.LFE65-.LFB65
 3610 0b76 01       		.uleb128 0x1
 3611 0b77 9C       		.byte	0x9c
 3612 0b78 16       		.uleb128 0x16
 3613 0b79 DB060000 		.4byte	.LASF175
 3614 0b7d 01       		.byte	0x1
 3615 0b7e 86       		.byte	0x86
 3616 0b7f 00000000 		.4byte	.LFB66
 3617 0b83 F4010000 		.4byte	.LFE66-.LFB66
 3618 0b87 01       		.uleb128 0x1
 3619 0b88 9C       		.byte	0x9c
 3620 0b89 0D0C0000 		.4byte	0xc0d
 3621 0b8d 17       		.uleb128 0x17
 3622 0b8e D1000000 		.4byte	.LASF166
 3623 0b92 01       		.byte	0x1
 3624 0b93 8B       		.byte	0x8b
 3625 0b94 81000000 		.4byte	0x81
 3626 0b98 05       		.uleb128 0x5
 3627 0b99 03       		.byte	0x3
 3628 0b9a 00000000 		.4byte	state.9705
 3629 0b9e 17       		.uleb128 0x17
 3630 0b9f 7C040000 		.4byte	.LASF167
 3631 0ba3 01       		.byte	0x1
 3632 0ba4 8E       		.byte	0x8e
 3633 0ba5 81000000 		.4byte	0x81
 3634 0ba9 05       		.uleb128 0x5
 3635 0baa 03       		.byte	0x3
 3636 0bab 08000000 		.4byte	data_packet_index.9706
 3637 0baf 17       		.uleb128 0x17
 3638 0bb0 00090000 		.4byte	.LASF168
 3639 0bb4 01       		.byte	0x1
 3640 0bb5 8F       		.byte	0x8f
 3641 0bb6 81000000 		.4byte	0x81
 3642 0bba 05       		.uleb128 0x5
 3643 0bbb 03       		.byte	0x3
 3644 0bbc 07000000 		.4byte	data_packet_length.9707
 3645 0bc0 17       		.uleb128 0x17
 3646 0bc1 8E040000 		.4byte	.LASF169
 3647 0bc5 01       		.byte	0x1
 3648 0bc6 90       		.byte	0x90
 3649 0bc7 E0020000 		.4byte	0x2e0
 3650 0bcb 05       		.uleb128 0x5
 3651 0bcc 03       		.byte	0x3
ARM GAS  C:\Users\mgnocco\AppData\Local\Temp\ccuVecaK.s 			page 78


 3652 0bcd 0C000000 		.4byte	data_packet_buffer.9708
 3653 0bd1 17       		.uleb128 0x17
 3654 0bd2 D9070000 		.4byte	.LASF170
 3655 0bd6 01       		.byte	0x1
 3656 0bd7 91       		.byte	0x91
 3657 0bd8 5C040000 		.4byte	0x45c
 3658 0bdc 05       		.uleb128 0x5
 3659 0bdd 03       		.byte	0x3
 3660 0bde 04000000 		.4byte	rx_queue.9709
 3661 0be2 17       		.uleb128 0x17
 3662 0be3 60010000 		.4byte	.LASF171
 3663 0be7 01       		.byte	0x1
 3664 0be8 94       		.byte	0x94
 3665 0be9 81000000 		.4byte	0x81
 3666 0bed 02       		.uleb128 0x2
 3667 0bee 91       		.byte	0x91
 3668 0bef 75       		.sleb128 -11
 3669 0bf0 17       		.uleb128 0x17
 3670 0bf1 4A040000 		.4byte	.LASF172
 3671 0bf5 01       		.byte	0x1
 3672 0bf6 95       		.byte	0x95
 3673 0bf7 81000000 		.4byte	0x81
 3674 0bfb 02       		.uleb128 0x2
 3675 0bfc 91       		.byte	0x91
 3676 0bfd 77       		.sleb128 -9
 3677 0bfe 17       		.uleb128 0x17
 3678 0bff 3A050000 		.4byte	.LASF173
 3679 0c03 01       		.byte	0x1
 3680 0c04 96       		.byte	0x96
 3681 0c05 81000000 		.4byte	0x81
 3682 0c09 02       		.uleb128 0x2
 3683 0c0a 91       		.byte	0x91
 3684 0c0b 76       		.sleb128 -10
 3685 0c0c 00       		.byte	0
 3686 0c0d 18       		.uleb128 0x18
 3687 0c0e BF0A0000 		.4byte	.LASF174
 3688 0c12 01       		.byte	0x1
 3689 0c13 0C01     		.2byte	0x10c
 3690 0c15 00000000 		.4byte	.LFB67
 3691 0c19 34000000 		.4byte	.LFE67-.LFB67
 3692 0c1d 01       		.uleb128 0x1
 3693 0c1e 9C       		.byte	0x9c
 3694 0c1f 19       		.uleb128 0x19
 3695 0c20 19040000 		.4byte	.LASF176
 3696 0c24 01       		.byte	0x1
 3697 0c25 1C01     		.2byte	0x11c
 3698 0c27 00000000 		.4byte	.LFB68
 3699 0c2b 08010000 		.4byte	.LFE68-.LFB68
 3700 0c2f 01       		.uleb128 0x1
 3701 0c30 9C       		.byte	0x9c
 3702 0c31 960C0000 		.4byte	0xc96
 3703 0c35 1A       		.uleb128 0x1a
 3704 0c36 22010000 		.4byte	.LASF177
 3705 0c3a 01       		.byte	0x1
 3706 0c3b 1E01     		.2byte	0x11e
 3707 0c3d BD000000 		.4byte	0xbd
 3708 0c41 02       		.uleb128 0x2
ARM GAS  C:\Users\mgnocco\AppData\Local\Temp\ccuVecaK.s 			page 79


 3709 0c42 91       		.byte	0x91
 3710 0c43 74       		.sleb128 -12
 3711 0c44 1A       		.uleb128 0x1a
 3712 0c45 AB080000 		.4byte	.LASF178
 3713 0c49 01       		.byte	0x1
 3714 0c4a 2001     		.2byte	0x120
 3715 0c4c 81000000 		.4byte	0x81
 3716 0c50 02       		.uleb128 0x2
 3717 0c51 91       		.byte	0x91
 3718 0c52 73       		.sleb128 -13
 3719 0c53 1A       		.uleb128 0x1a
 3720 0c54 A6020000 		.4byte	.LASF179
 3721 0c58 01       		.byte	0x1
 3722 0c59 2201     		.2byte	0x122
 3723 0c5b 960C0000 		.4byte	0xc96
 3724 0c5f 02       		.uleb128 0x2
 3725 0c60 91       		.byte	0x91
 3726 0c61 6C       		.sleb128 -20
 3727 0c62 1A       		.uleb128 0x1a
 3728 0c63 5E020000 		.4byte	.LASF180
 3729 0c67 01       		.byte	0x1
 3730 0c68 2301     		.2byte	0x123
 3731 0c6a 81000000 		.4byte	0x81
 3732 0c6e 02       		.uleb128 0x2
 3733 0c6f 91       		.byte	0x91
 3734 0c70 6B       		.sleb128 -21
 3735 0c71 1A       		.uleb128 0x1a
 3736 0c72 D20A0000 		.4byte	.LASF181
 3737 0c76 01       		.byte	0x1
 3738 0c77 2801     		.2byte	0x128
 3739 0c79 BD000000 		.4byte	0xbd
 3740 0c7d 05       		.uleb128 0x5
 3741 0c7e 03       		.byte	0x3
 3742 0c7f 8C000000 		.4byte	prev_pwm.9731
 3743 0c83 1A       		.uleb128 0x1a
 3744 0c84 5D040000 		.4byte	.LASF182
 3745 0c88 01       		.byte	0x1
 3746 0c89 2B01     		.2byte	0x12b
 3747 0c8b 99000000 		.4byte	0x99
 3748 0c8f 05       		.uleb128 0x5
 3749 0c90 03       		.byte	0x3
 3750 0c91 90000000 		.4byte	position_counter.9732
 3751 0c95 00       		.byte	0
 3752 0c96 1B       		.uleb128 0x1b
 3753 0c97 04       		.byte	0x4
 3754 0c98 6C040000 		.4byte	0x46c
 3755 0c9c 1C       		.uleb128 0x1c
 3756 0c9d B5020000 		.4byte	.LASF186
 3757 0ca1 01       		.byte	0x1
 3758 0ca2 7401     		.2byte	0x174
 3759 0ca4 00000000 		.4byte	.LFB69
 3760 0ca8 1A000000 		.4byte	.LFE69-.LFB69
 3761 0cac 01       		.uleb128 0x1
 3762 0cad 9C       		.byte	0x9c
 3763 0cae D10C0000 		.4byte	0xcd1
 3764 0cb2 1D       		.uleb128 0x1d
 3765 0cb3 B5000000 		.4byte	.LASF183
ARM GAS  C:\Users\mgnocco\AppData\Local\Temp\ccuVecaK.s 			page 80


 3766 0cb7 01       		.byte	0x1
 3767 0cb8 7401     		.2byte	0x174
 3768 0cba 81000000 		.4byte	0x81
 3769 0cbe 02       		.uleb128 0x2
 3770 0cbf 91       		.byte	0x91
 3771 0cc0 77       		.sleb128 -9
 3772 0cc1 1D       		.uleb128 0x1d
 3773 0cc2 E2070000 		.4byte	.LASF184
 3774 0cc6 01       		.byte	0x1
 3775 0cc7 7401     		.2byte	0x174
 3776 0cc9 81000000 		.4byte	0x81
 3777 0ccd 02       		.uleb128 0x2
 3778 0cce 91       		.byte	0x91
 3779 0ccf 76       		.sleb128 -10
 3780 0cd0 00       		.byte	0
 3781 0cd1 1E       		.uleb128 0x1e
 3782 0cd2 A2090000 		.4byte	.LASF246
 3783 0cd6 01       		.byte	0x1
 3784 0cd7 7C01     		.2byte	0x17c
 3785 0cd9 00000000 		.4byte	.LFB70
 3786 0cdd 0C000000 		.4byte	.LFE70-.LFB70
 3787 0ce1 01       		.uleb128 0x1
 3788 0ce2 9C       		.byte	0x9c
 3789 0ce3 1F       		.uleb128 0x1f
 3790 0ce4 6D090000 		.4byte	.LASF185
 3791 0ce8 01       		.byte	0x1
 3792 0ce9 8301     		.2byte	0x183
 3793 0ceb 00000000 		.4byte	.LFB71
 3794 0cef 0C010000 		.4byte	.LFE71-.LFB71
 3795 0cf3 01       		.uleb128 0x1
 3796 0cf4 9C       		.byte	0x9c
 3797 0cf5 2A0D0000 		.4byte	0xd2a
 3798 0cf9 20       		.uleb128 0x20
 3799 0cfa 06000000 		.4byte	.LBB2
 3800 0cfe E6000000 		.4byte	.LBE2-.LBB2
 3801 0d02 21       		.uleb128 0x21
 3802 0d03 6900     		.ascii	"i\000"
 3803 0d05 01       		.byte	0x1
 3804 0d06 8501     		.2byte	0x185
 3805 0d08 81000000 		.4byte	0x81
 3806 0d0c 02       		.uleb128 0x2
 3807 0d0d 91       		.byte	0x91
 3808 0d0e 77       		.sleb128 -9
 3809 0d0f 20       		.uleb128 0x20
 3810 0d10 26000000 		.4byte	.LBB3
 3811 0d14 BA000000 		.4byte	.LBE3-.LBB3
 3812 0d18 1A       		.uleb128 0x1a
 3813 0d19 CE050000 		.4byte	.LASF39
 3814 0d1d 01       		.byte	0x1
 3815 0d1e 8701     		.2byte	0x187
 3816 0d20 BD000000 		.4byte	0xbd
 3817 0d24 02       		.uleb128 0x2
 3818 0d25 91       		.byte	0x91
 3819 0d26 70       		.sleb128 -16
 3820 0d27 00       		.byte	0
 3821 0d28 00       		.byte	0
 3822 0d29 00       		.byte	0
ARM GAS  C:\Users\mgnocco\AppData\Local\Temp\ccuVecaK.s 			page 81


 3823 0d2a 1C       		.uleb128 0x1c
 3824 0d2b D3020000 		.4byte	.LASF187
 3825 0d2f 01       		.byte	0x1
 3826 0d30 A501     		.2byte	0x1a5
 3827 0d32 00000000 		.4byte	.LFB72
 3828 0d36 A8000000 		.4byte	.LFE72-.LFB72
 3829 0d3a 01       		.uleb128 0x1
 3830 0d3b 9C       		.byte	0x9c
 3831 0d3c 7D0D0000 		.4byte	0xd7d
 3832 0d40 1D       		.uleb128 0x1d
 3833 0d41 5B080000 		.4byte	.LASF188
 3834 0d45 01       		.byte	0x1
 3835 0d46 A501     		.2byte	0x1a5
 3836 0d48 81000000 		.4byte	0x81
 3837 0d4c 02       		.uleb128 0x2
 3838 0d4d 91       		.byte	0x91
 3839 0d4e 6F       		.sleb128 -17
 3840 0d4f 1A       		.uleb128 0x1a
 3841 0d50 EC040000 		.4byte	.LASF189
 3842 0d54 01       		.byte	0x1
 3843 0d55 A701     		.2byte	0x1a7
 3844 0d57 81000000 		.4byte	0x81
 3845 0d5b 02       		.uleb128 0x2
 3846 0d5c 91       		.byte	0x91
 3847 0d5d 73       		.sleb128 -13
 3848 0d5e 1A       		.uleb128 0x1a
 3849 0d5f 9F080000 		.4byte	.LASF190
 3850 0d63 01       		.byte	0x1
 3851 0d64 A801     		.2byte	0x1a8
 3852 0d66 8D000000 		.4byte	0x8d
 3853 0d6a 02       		.uleb128 0x2
 3854 0d6b 91       		.byte	0x91
 3855 0d6c 76       		.sleb128 -10
 3856 0d6d 1A       		.uleb128 0x1a
 3857 0d6e E1080000 		.4byte	.LASF191
 3858 0d72 01       		.byte	0x1
 3859 0d73 A901     		.2byte	0x1a9
 3860 0d75 8D000000 		.4byte	0x8d
 3861 0d79 02       		.uleb128 0x2
 3862 0d7a 91       		.byte	0x91
 3863 0d7b 74       		.sleb128 -12
 3864 0d7c 00       		.byte	0
 3865 0d7d 19       		.uleb128 0x19
 3866 0d7e F5050000 		.4byte	.LASF192
 3867 0d82 01       		.byte	0x1
 3868 0d83 BD01     		.2byte	0x1bd
 3869 0d85 00000000 		.4byte	.LFB73
 3870 0d89 60060000 		.4byte	.LFE73-.LFB73
 3871 0d8d 01       		.uleb128 0x1
 3872 0d8e 9C       		.byte	0x9c
 3873 0d8f 150F0000 		.4byte	0xf15
 3874 0d93 1A       		.uleb128 0x1a
 3875 0d94 26000000 		.4byte	.LASF193
 3876 0d98 01       		.byte	0x1
 3877 0d99 BE01     		.2byte	0x1be
 3878 0d9b 81000000 		.4byte	0x81
 3879 0d9f 05       		.uleb128 0x5
ARM GAS  C:\Users\mgnocco\AppData\Local\Temp\ccuVecaK.s 			page 82


 3880 0da0 03       		.byte	0x3
 3881 0da1 94000000 		.4byte	pos_cycle_status.9759
 3882 0da5 1A       		.uleb128 0x1a
 3883 0da6 BB090000 		.4byte	.LASF194
 3884 0daa 01       		.byte	0x1
 3885 0dab BF01     		.2byte	0x1bf
 3886 0dad 18070000 		.4byte	0x718
 3887 0db1 05       		.uleb128 0x5
 3888 0db2 03       		.byte	0x3
 3889 0db3 A0000000 		.4byte	emg_cycle_status.9760
 3890 0db7 1A       		.uleb128 0x1a
 3891 0db8 CC080000 		.4byte	.LASF195
 3892 0dbc 01       		.byte	0x1
 3893 0dbd C001     		.2byte	0x1c0
 3894 0dbf 18070000 		.4byte	0x718
 3895 0dc3 05       		.uleb128 0x5
 3896 0dc4 03       		.byte	0x3
 3897 0dc5 A4000000 		.4byte	motion_status.9761
 3898 0dc9 1A       		.uleb128 0x1a
 3899 0dca 6F070000 		.4byte	.LASF196
 3900 0dce 01       		.byte	0x1
 3901 0dcf C101     		.2byte	0x1c1
 3902 0dd1 18070000 		.4byte	0x718
 3903 0dd5 05       		.uleb128 0x5
 3904 0dd6 03       		.byte	0x3
 3905 0dd7 B0000000 		.4byte	emg_excess_status.9762
 3906 0ddb 1A       		.uleb128 0x1a
 3907 0ddc 830B0000 		.4byte	.LASF197
 3908 0de0 01       		.byte	0x1
 3909 0de1 C201     		.2byte	0x1c2
 3910 0de3 81000000 		.4byte	0x81
 3911 0de7 05       		.uleb128 0x5
 3912 0de8 03       		.byte	0x3
 3913 0de9 C4000000 		.4byte	rest_cycle_status.9763
 3914 0ded 1A       		.uleb128 0x1a
 3915 0dee 76020000 		.4byte	.LASF198
 3916 0df2 01       		.byte	0x1
 3917 0df3 C301     		.2byte	0x1c3
 3918 0df5 BD000000 		.4byte	0xbd
 3919 0df9 05       		.uleb128 0x5
 3920 0dfa 03       		.byte	0x3
 3921 0dfb 00000000 		.4byte	bin_threshold.9764
 3922 0dff 1A       		.uleb128 0x1a
 3923 0e00 310B0000 		.4byte	.LASF199
 3924 0e04 01       		.byte	0x1
 3925 0e05 C401     		.2byte	0x1c4
 3926 0e07 BD000000 		.4byte	0xbd
 3927 0e0b 05       		.uleb128 0x5
 3928 0e0c 03       		.byte	0x3
 3929 0e0d 04000000 		.4byte	exc_act_thr.9765
 3930 0e11 1A       		.uleb128 0x1a
 3931 0e12 8F010000 		.4byte	.LASF200
 3932 0e16 01       		.byte	0x1
 3933 0e17 C501     		.2byte	0x1c5
 3934 0e19 BD000000 		.4byte	0xbd
 3935 0e1d 05       		.uleb128 0x5
 3936 0e1e 03       		.byte	0x3
ARM GAS  C:\Users\mgnocco\AppData\Local\Temp\ccuVecaK.s 			page 83


 3937 0e1f 98000000 		.4byte	thr_pos.9766
 3938 0e23 1A       		.uleb128 0x1a
 3939 0e24 9B070000 		.4byte	.LASF201
 3940 0e28 01       		.byte	0x1
 3941 0e29 C601     		.2byte	0x1c6
 3942 0e2b BD000000 		.4byte	0xbd
 3943 0e2f 05       		.uleb128 0x5
 3944 0e30 03       		.byte	0x3
 3945 0e31 9C000000 		.4byte	max_pos.9767
 3946 0e35 21       		.uleb128 0x21
 3947 0e36 6900     		.ascii	"i\000"
 3948 0e38 01       		.byte	0x1
 3949 0e39 C701     		.2byte	0x1c7
 3950 0e3b 81000000 		.4byte	0x81
 3951 0e3f 02       		.uleb128 0x2
 3952 0e40 91       		.byte	0x91
 3953 0e41 6F       		.sleb128 -17
 3954 0e42 1A       		.uleb128 0x1a
 3955 0e43 D3030000 		.4byte	.LASF202
 3956 0e47 01       		.byte	0x1
 3957 0e48 C701     		.2byte	0x1c7
 3958 0e4a 81000000 		.4byte	0x81
 3959 0e4e 02       		.uleb128 0x2
 3960 0e4f 91       		.byte	0x91
 3961 0e50 5B       		.sleb128 -37
 3962 0e51 1A       		.uleb128 0x1a
 3963 0e52 ED000000 		.4byte	.LASF203
 3964 0e56 01       		.byte	0x1
 3965 0e57 C701     		.2byte	0x1c7
 3966 0e59 81000000 		.4byte	0x81
 3967 0e5d 02       		.uleb128 0x2
 3968 0e5e 91       		.byte	0x91
 3969 0e5f 5A       		.sleb128 -38
 3970 0e60 1A       		.uleb128 0x1a
 3971 0e61 45090000 		.4byte	.LASF204
 3972 0e65 01       		.byte	0x1
 3973 0e66 C701     		.2byte	0x1c7
 3974 0e68 81000000 		.4byte	0x81
 3975 0e6c 02       		.uleb128 0x2
 3976 0e6d 91       		.byte	0x91
 3977 0e6e 59       		.sleb128 -39
 3978 0e6f 1A       		.uleb128 0x1a
 3979 0e70 4B090000 		.4byte	.LASF205
 3980 0e74 01       		.byte	0x1
 3981 0e75 C701     		.2byte	0x1c7
 3982 0e77 81000000 		.4byte	0x81
 3983 0e7b 02       		.uleb128 0x2
 3984 0e7c 91       		.byte	0x91
 3985 0e7d 58       		.sleb128 -40
 3986 0e7e 1A       		.uleb128 0x1a
 3987 0e7f 81090000 		.4byte	.LASF206
 3988 0e83 01       		.byte	0x1
 3989 0e84 C801     		.2byte	0x1c8
 3990 0e86 BD000000 		.4byte	0xbd
 3991 0e8a 02       		.uleb128 0x2
 3992 0e8b 91       		.byte	0x91
 3993 0e8c 64       		.sleb128 -28
ARM GAS  C:\Users\mgnocco\AppData\Local\Temp\ccuVecaK.s 			page 84


 3994 0e8d 1A       		.uleb128 0x1a
 3995 0e8e 5B030000 		.4byte	.LASF207
 3996 0e92 01       		.byte	0x1
 3997 0e93 C801     		.2byte	0x1c8
 3998 0e95 BD000000 		.4byte	0xbd
 3999 0e99 02       		.uleb128 0x2
 4000 0e9a 91       		.byte	0x91
 4001 0e9b 60       		.sleb128 -32
 4002 0e9c 1A       		.uleb128 0x1a
 4003 0e9d 7C0A0000 		.4byte	.LASF208
 4004 0ea1 01       		.byte	0x1
 4005 0ea2 C801     		.2byte	0x1c8
 4006 0ea4 BD000000 		.4byte	0xbd
 4007 0ea8 02       		.uleb128 0x2
 4008 0ea9 91       		.byte	0x91
 4009 0eaa 68       		.sleb128 -24
 4010 0eab 1A       		.uleb128 0x1a
 4011 0eac 28030000 		.4byte	.LASF209
 4012 0eb0 01       		.byte	0x1
 4013 0eb1 C901     		.2byte	0x1c9
 4014 0eb3 BD000000 		.4byte	0xbd
 4015 0eb7 02       		.uleb128 0x2
 4016 0eb8 91       		.byte	0x91
 4017 0eb9 5C       		.sleb128 -36
 4018 0eba 1A       		.uleb128 0x1a
 4019 0ebb B6040000 		.4byte	.LASF210
 4020 0ebf 01       		.byte	0x1
 4021 0ec0 CA01     		.2byte	0x1ca
 4022 0ec2 99000000 		.4byte	0x99
 4023 0ec6 05       		.uleb128 0x5
 4024 0ec7 03       		.byte	0x3
 4025 0ec8 C8000000 		.4byte	timer_value_s.9777
 4026 0ecc 1A       		.uleb128 0x1a
 4027 0ecd 6E040000 		.4byte	.LASF211
 4028 0ed1 01       		.byte	0x1
 4029 0ed2 CA01     		.2byte	0x1ca
 4030 0ed4 99000000 		.4byte	0x99
 4031 0ed8 05       		.uleb128 0x5
 4032 0ed9 03       		.byte	0x3
 4033 0eda CC000000 		.4byte	timer_value_e.9778
 4034 0ede 1A       		.uleb128 0x1a
 4035 0edf 0C0B0000 		.4byte	.LASF212
 4036 0ee3 01       		.byte	0x1
 4037 0ee4 CB01     		.2byte	0x1cb
 4038 0ee6 8D030000 		.4byte	0x38d
 4039 0eea 05       		.uleb128 0x5
 4040 0eeb 03       		.byte	0x3
 4041 0eec B4000000 		.4byte	timer_exc_s.9779
 4042 0ef0 1A       		.uleb128 0x1a
 4043 0ef1 F30A0000 		.4byte	.LASF213
 4044 0ef5 01       		.byte	0x1
 4045 0ef6 CB01     		.2byte	0x1cb
 4046 0ef8 8D030000 		.4byte	0x38d
 4047 0efc 05       		.uleb128 0x5
 4048 0efd 03       		.byte	0x3
 4049 0efe BC000000 		.4byte	timer_exc_e.9780
 4050 0f02 1A       		.uleb128 0x1a
ARM GAS  C:\Users\mgnocco\AppData\Local\Temp\ccuVecaK.s 			page 85


 4051 0f03 C4040000 		.4byte	.LASF214
 4052 0f07 01       		.byte	0x1
 4053 0f08 CC01     		.2byte	0x1cc
 4054 0f0a 7E020000 		.4byte	0x27e
 4055 0f0e 05       		.uleb128 0x5
 4056 0f0f 03       		.byte	0x3
 4057 0f10 A8000000 		.4byte	start_emg_pos.9781
 4058 0f14 00       		.byte	0
 4059 0f15 19       		.uleb128 0x19
 4060 0f16 04080000 		.4byte	.LASF215
 4061 0f1a 01       		.byte	0x1
 4062 0f1b 7802     		.2byte	0x278
 4063 0f1d 00000000 		.4byte	.LFB74
 4064 0f21 08010000 		.4byte	.LFE74-.LFB74
 4065 0f25 01       		.uleb128 0x1
 4066 0f26 9C       		.byte	0x9c
 4067 0f27 9B0F0000 		.4byte	0xf9b
 4068 0f2b 1A       		.uleb128 0x1a
 4069 0f2c 740B0000 		.4byte	.LASF216
 4070 0f30 01       		.byte	0x1
 4071 0f31 7A02     		.2byte	0x27a
 4072 0f33 EA000000 		.4byte	0xea
 4073 0f37 02       		.uleb128 0x2
 4074 0f38 91       		.byte	0x91
 4075 0f39 64       		.sleb128 -28
 4076 0f3a 1A       		.uleb128 0x1a
 4077 0f3b 62090000 		.4byte	.LASF217
 4078 0f3f 01       		.byte	0x1
 4079 0f40 7B02     		.2byte	0x27b
 4080 0f42 81000000 		.4byte	0x81
 4081 0f46 05       		.uleb128 0x5
 4082 0f47 03       		.byte	0x3
 4083 0f48 D4000000 		.4byte	row_number.9817
 4084 0f4c 1A       		.uleb128 0x1a
 4085 0f4d 51030000 		.4byte	.LASF218
 4086 0f51 01       		.byte	0x1
 4087 0f52 7C02     		.2byte	0x27c
 4088 0f54 81000000 		.4byte	0x81
 4089 0f58 02       		.uleb128 0x2
 4090 0f59 91       		.byte	0x91
 4091 0f5a 77       		.sleb128 -9
 4092 0f5b 1A       		.uleb128 0x1a
 4093 0f5c 0B0A0000 		.4byte	.LASF219
 4094 0f60 01       		.byte	0x1
 4095 0f61 7D02     		.2byte	0x27d
 4096 0f63 9B0F0000 		.4byte	0xf9b
 4097 0f67 02       		.uleb128 0x2
 4098 0f68 91       		.byte	0x91
 4099 0f69 70       		.sleb128 -16
 4100 0f6a 1A       		.uleb128 0x1a
 4101 0f6b F5000000 		.4byte	.LASF220
 4102 0f6f 01       		.byte	0x1
 4103 0f70 7E02     		.2byte	0x27e
 4104 0f72 9B0F0000 		.4byte	0xf9b
 4105 0f76 02       		.uleb128 0x2
 4106 0f77 91       		.byte	0x91
 4107 0f78 6C       		.sleb128 -20
ARM GAS  C:\Users\mgnocco\AppData\Local\Temp\ccuVecaK.s 			page 86


 4108 0f79 1A       		.uleb128 0x1a
 4109 0f7a 4F0C0000 		.4byte	.LASF221
 4110 0f7e 01       		.byte	0x1
 4111 0f7f 7F02     		.2byte	0x27f
 4112 0f81 81000000 		.4byte	0x81
 4113 0f85 02       		.uleb128 0x2
 4114 0f86 91       		.byte	0x91
 4115 0f87 6B       		.sleb128 -21
 4116 0f88 1A       		.uleb128 0x1a
 4117 0f89 81070000 		.4byte	.LASF222
 4118 0f8d 01       		.byte	0x1
 4119 0f8e 8002     		.2byte	0x280
 4120 0f90 9B0F0000 		.4byte	0xf9b
 4121 0f94 05       		.uleb128 0x5
 4122 0f95 03       		.byte	0x3
 4123 0f96 D0000000 		.4byte	m_addr.9822
 4124 0f9a 00       		.byte	0
 4125 0f9b 1B       		.uleb128 0x1b
 4126 0f9c 04       		.byte	0x4
 4127 0f9d 81000000 		.4byte	0x81
 4128 0fa1 07       		.uleb128 0x7
 4129 0fa2 B10F0000 		.4byte	0xfb1
 4130 0fa6 B10F0000 		.4byte	0xfb1
 4131 0faa 08       		.uleb128 0x8
 4132 0fab 0E010000 		.4byte	0x10e
 4133 0faf 1C       		.byte	0x1c
 4134 0fb0 00       		.byte	0
 4135 0fb1 22       		.uleb128 0x22
 4136 0fb2 81000000 		.4byte	0x81
 4137 0fb6 17       		.uleb128 0x17
 4138 0fb7 160A0000 		.4byte	.LASF223
 4139 0fbb 01       		.byte	0x1
 4140 0fbc 40       		.byte	0x40
 4141 0fbd C70F0000 		.4byte	0xfc7
 4142 0fc1 05       		.uleb128 0x5
 4143 0fc2 03       		.byte	0x3
 4144 0fc3 00000000 		.4byte	pwm_preload_values
 4145 0fc7 22       		.uleb128 0x22
 4146 0fc8 A10F0000 		.4byte	0xfa1
 4147 0fcc 23       		.uleb128 0x23
 4148 0fcd FF0A0000 		.4byte	.LASF224
 4149 0fd1 07       		.byte	0x7
 4150 0fd2 1207     		.2byte	0x712
 4151 0fd4 D80F0000 		.4byte	0xfd8
 4152 0fd8 06       		.uleb128 0x6
 4153 0fd9 76000000 		.4byte	0x76
 4154 0fdd 07       		.uleb128 0x7
 4155 0fde 8F010000 		.4byte	0x18f
 4156 0fe2 ED0F0000 		.4byte	0xfed
 4157 0fe6 08       		.uleb128 0x8
 4158 0fe7 0E010000 		.4byte	0x10e
 4159 0feb 02       		.byte	0x2
 4160 0fec 00       		.byte	0
 4161 0fed 23       		.uleb128 0x23
 4162 0fee D2040000 		.4byte	.LASF225
 4163 0ff2 06       		.byte	0x6
 4164 0ff3 2202     		.2byte	0x222
ARM GAS  C:\Users\mgnocco\AppData\Local\Temp\ccuVecaK.s 			page 87


 4165 0ff5 DD0F0000 		.4byte	0xfdd
 4166 0ff9 07       		.uleb128 0x7
 4167 0ffa CC010000 		.4byte	0x1cc
 4168 0ffe 09100000 		.4byte	0x1009
 4169 1002 08       		.uleb128 0x8
 4170 1003 0E010000 		.4byte	0x10e
 4171 1007 01       		.byte	0x1
 4172 1008 00       		.byte	0
 4173 1009 23       		.uleb128 0x23
 4174 100a AF040000 		.4byte	.LASF226
 4175 100e 06       		.byte	0x6
 4176 100f 2302     		.2byte	0x223
 4177 1011 F90F0000 		.4byte	0xff9
 4178 1015 23       		.uleb128 0x23
 4179 1016 F20B0000 		.4byte	.LASF227
 4180 101a 06       		.byte	0x6
 4181 101b 2402     		.2byte	0x224
 4182 101d 4D020000 		.4byte	0x24d
 4183 1021 23       		.uleb128 0x23
 4184 1022 93000000 		.4byte	.LASF228
 4185 1026 06       		.byte	0x6
 4186 1027 2602     		.2byte	0x226
 4187 1029 9E020000 		.4byte	0x29e
 4188 102d 23       		.uleb128 0x23
 4189 102e 57040000 		.4byte	.LASF229
 4190 1032 06       		.byte	0x6
 4191 1033 2702     		.2byte	0x227
 4192 1035 AB090000 		.4byte	0x9ab
 4193 1039 23       		.uleb128 0x23
 4194 103a 88070000 		.4byte	.LASF230
 4195 103e 06       		.byte	0x6
 4196 103f 2702     		.2byte	0x227
 4197 1041 AB090000 		.4byte	0x9ab
 4198 1045 23       		.uleb128 0x23
 4199 1046 F3080000 		.4byte	.LASF231
 4200 104a 06       		.byte	0x6
 4201 104b 2F02     		.2byte	0x22f
 4202 104d 8D000000 		.4byte	0x8d
 4203 1051 23       		.uleb128 0x23
 4204 1052 19090000 		.4byte	.LASF232
 4205 1056 06       		.byte	0x6
 4206 1057 3202     		.2byte	0x232
 4207 1059 2D020000 		.4byte	0x22d
 4208 105d 07       		.uleb128 0x7
 4209 105e 8D000000 		.4byte	0x8d
 4210 1062 6D100000 		.4byte	0x106d
 4211 1066 08       		.uleb128 0x8
 4212 1067 0E010000 		.4byte	0x10e
 4213 106b 02       		.byte	0x2
 4214 106c 00       		.byte	0
 4215 106d 23       		.uleb128 0x23
 4216 106e 660B0000 		.4byte	.LASF233
 4217 1072 06       		.byte	0x6
 4218 1073 3302     		.2byte	0x233
 4219 1075 5D100000 		.4byte	0x105d
 4220 1079 23       		.uleb128 0x23
 4221 107a A50A0000 		.4byte	.LASF234
ARM GAS  C:\Users\mgnocco\AppData\Local\Temp\ccuVecaK.s 			page 88


 4222 107e 06       		.byte	0x6
 4223 107f 3402     		.2byte	0x234
 4224 1081 5D100000 		.4byte	0x105d
 4225 1085 23       		.uleb128 0x23
 4226 1086 A1040000 		.4byte	.LASF235
 4227 108a 06       		.byte	0x6
 4228 108b 3902     		.2byte	0x239
 4229 108d 4A0B0000 		.4byte	0xb4a
 4230 1091 23       		.uleb128 0x23
 4231 1092 7C030000 		.4byte	.LASF236
 4232 1096 06       		.byte	0x6
 4233 1097 3A02     		.2byte	0x23a
 4234 1099 120B0000 		.4byte	0xb12
 4235 109d 23       		.uleb128 0x23
 4236 109e 0C030000 		.4byte	.LASF237
 4237 10a2 06       		.byte	0x6
 4238 10a3 3B02     		.2byte	0x23b
 4239 10a5 120B0000 		.4byte	0xb12
 4240 10a9 23       		.uleb128 0x23
 4241 10aa 19030000 		.4byte	.LASF238
 4242 10ae 06       		.byte	0x6
 4243 10af 4202     		.2byte	0x242
 4244 10b1 81000000 		.4byte	0x81
 4245 10b5 23       		.uleb128 0x23
 4246 10b6 D7000000 		.4byte	.LASF239
 4247 10ba 06       		.byte	0x6
 4248 10bb 4302     		.2byte	0x243
 4249 10bd 81000000 		.4byte	0x81
 4250 10c1 23       		.uleb128 0x23
 4251 10c2 790C0000 		.4byte	.LASF240
 4252 10c6 06       		.byte	0x6
 4253 10c7 4502     		.2byte	0x245
 4254 10c9 81000000 		.4byte	0x81
 4255 10cd 23       		.uleb128 0x23
 4256 10ce 72080000 		.4byte	.LASF241
 4257 10d2 06       		.byte	0x6
 4258 10d3 4602     		.2byte	0x246
 4259 10d5 81000000 		.4byte	0x81
 4260 10d9 23       		.uleb128 0x23
 4261 10da 9B030000 		.4byte	.LASF242
 4262 10de 06       		.byte	0x6
 4263 10df 5102     		.2byte	0x251
 4264 10e1 3D020000 		.4byte	0x23d
 4265 10e5 00       		.byte	0
 4266              		.section	.debug_abbrev,"",%progbits
 4267              	.Ldebug_abbrev0:
 4268 0000 01       		.uleb128 0x1
 4269 0001 11       		.uleb128 0x11
 4270 0002 01       		.byte	0x1
 4271 0003 25       		.uleb128 0x25
 4272 0004 0E       		.uleb128 0xe
 4273 0005 13       		.uleb128 0x13
 4274 0006 0B       		.uleb128 0xb
 4275 0007 03       		.uleb128 0x3
 4276 0008 0E       		.uleb128 0xe
 4277 0009 1B       		.uleb128 0x1b
 4278 000a 0E       		.uleb128 0xe
ARM GAS  C:\Users\mgnocco\AppData\Local\Temp\ccuVecaK.s 			page 89


 4279 000b 55       		.uleb128 0x55
 4280 000c 17       		.uleb128 0x17
 4281 000d 11       		.uleb128 0x11
 4282 000e 01       		.uleb128 0x1
 4283 000f 10       		.uleb128 0x10
 4284 0010 17       		.uleb128 0x17
 4285 0011 00       		.byte	0
 4286 0012 00       		.byte	0
 4287 0013 02       		.uleb128 0x2
 4288 0014 24       		.uleb128 0x24
 4289 0015 00       		.byte	0
 4290 0016 0B       		.uleb128 0xb
 4291 0017 0B       		.uleb128 0xb
 4292 0018 3E       		.uleb128 0x3e
 4293 0019 0B       		.uleb128 0xb
 4294 001a 03       		.uleb128 0x3
 4295 001b 0E       		.uleb128 0xe
 4296 001c 00       		.byte	0
 4297 001d 00       		.byte	0
 4298 001e 03       		.uleb128 0x3
 4299 001f 16       		.uleb128 0x16
 4300 0020 00       		.byte	0
 4301 0021 03       		.uleb128 0x3
 4302 0022 0E       		.uleb128 0xe
 4303 0023 3A       		.uleb128 0x3a
 4304 0024 0B       		.uleb128 0xb
 4305 0025 3B       		.uleb128 0x3b
 4306 0026 0B       		.uleb128 0xb
 4307 0027 49       		.uleb128 0x49
 4308 0028 13       		.uleb128 0x13
 4309 0029 00       		.byte	0
 4310 002a 00       		.byte	0
 4311 002b 04       		.uleb128 0x4
 4312 002c 24       		.uleb128 0x24
 4313 002d 00       		.byte	0
 4314 002e 0B       		.uleb128 0xb
 4315 002f 0B       		.uleb128 0xb
 4316 0030 3E       		.uleb128 0x3e
 4317 0031 0B       		.uleb128 0xb
 4318 0032 03       		.uleb128 0x3
 4319 0033 08       		.uleb128 0x8
 4320 0034 00       		.byte	0
 4321 0035 00       		.byte	0
 4322 0036 05       		.uleb128 0x5
 4323 0037 16       		.uleb128 0x16
 4324 0038 00       		.byte	0
 4325 0039 03       		.uleb128 0x3
 4326 003a 0E       		.uleb128 0xe
 4327 003b 3A       		.uleb128 0x3a
 4328 003c 0B       		.uleb128 0xb
 4329 003d 3B       		.uleb128 0x3b
 4330 003e 05       		.uleb128 0x5
 4331 003f 49       		.uleb128 0x49
 4332 0040 13       		.uleb128 0x13
 4333 0041 00       		.byte	0
 4334 0042 00       		.byte	0
 4335 0043 06       		.uleb128 0x6
ARM GAS  C:\Users\mgnocco\AppData\Local\Temp\ccuVecaK.s 			page 90


 4336 0044 35       		.uleb128 0x35
 4337 0045 00       		.byte	0
 4338 0046 49       		.uleb128 0x49
 4339 0047 13       		.uleb128 0x13
 4340 0048 00       		.byte	0
 4341 0049 00       		.byte	0
 4342 004a 07       		.uleb128 0x7
 4343 004b 01       		.uleb128 0x1
 4344 004c 01       		.byte	0x1
 4345 004d 49       		.uleb128 0x49
 4346 004e 13       		.uleb128 0x13
 4347 004f 01       		.uleb128 0x1
 4348 0050 13       		.uleb128 0x13
 4349 0051 00       		.byte	0
 4350 0052 00       		.byte	0
 4351 0053 08       		.uleb128 0x8
 4352 0054 21       		.uleb128 0x21
 4353 0055 00       		.byte	0
 4354 0056 49       		.uleb128 0x49
 4355 0057 13       		.uleb128 0x13
 4356 0058 2F       		.uleb128 0x2f
 4357 0059 0B       		.uleb128 0xb
 4358 005a 00       		.byte	0
 4359 005b 00       		.byte	0
 4360 005c 09       		.uleb128 0x9
 4361 005d 04       		.uleb128 0x4
 4362 005e 01       		.byte	0x1
 4363 005f 03       		.uleb128 0x3
 4364 0060 0E       		.uleb128 0xe
 4365 0061 0B       		.uleb128 0xb
 4366 0062 0B       		.uleb128 0xb
 4367 0063 49       		.uleb128 0x49
 4368 0064 13       		.uleb128 0x13
 4369 0065 3A       		.uleb128 0x3a
 4370 0066 0B       		.uleb128 0xb
 4371 0067 3B       		.uleb128 0x3b
 4372 0068 0B       		.uleb128 0xb
 4373 0069 01       		.uleb128 0x1
 4374 006a 13       		.uleb128 0x13
 4375 006b 00       		.byte	0
 4376 006c 00       		.byte	0
 4377 006d 0A       		.uleb128 0xa
 4378 006e 28       		.uleb128 0x28
 4379 006f 00       		.byte	0
 4380 0070 03       		.uleb128 0x3
 4381 0071 0E       		.uleb128 0xe
 4382 0072 1C       		.uleb128 0x1c
 4383 0073 0B       		.uleb128 0xb
 4384 0074 00       		.byte	0
 4385 0075 00       		.byte	0
 4386 0076 0B       		.uleb128 0xb
 4387 0077 13       		.uleb128 0x13
 4388 0078 01       		.byte	0x1
 4389 0079 03       		.uleb128 0x3
 4390 007a 0E       		.uleb128 0xe
 4391 007b 0B       		.uleb128 0xb
 4392 007c 0B       		.uleb128 0xb
ARM GAS  C:\Users\mgnocco\AppData\Local\Temp\ccuVecaK.s 			page 91


 4393 007d 3A       		.uleb128 0x3a
 4394 007e 0B       		.uleb128 0xb
 4395 007f 3B       		.uleb128 0x3b
 4396 0080 0B       		.uleb128 0xb
 4397 0081 01       		.uleb128 0x1
 4398 0082 13       		.uleb128 0x13
 4399 0083 00       		.byte	0
 4400 0084 00       		.byte	0
 4401 0085 0C       		.uleb128 0xc
 4402 0086 0D       		.uleb128 0xd
 4403 0087 00       		.byte	0
 4404 0088 03       		.uleb128 0x3
 4405 0089 08       		.uleb128 0x8
 4406 008a 3A       		.uleb128 0x3a
 4407 008b 0B       		.uleb128 0xb
 4408 008c 3B       		.uleb128 0x3b
 4409 008d 0B       		.uleb128 0xb
 4410 008e 49       		.uleb128 0x49
 4411 008f 13       		.uleb128 0x13
 4412 0090 38       		.uleb128 0x38
 4413 0091 0B       		.uleb128 0xb
 4414 0092 00       		.byte	0
 4415 0093 00       		.byte	0
 4416 0094 0D       		.uleb128 0xd
 4417 0095 0D       		.uleb128 0xd
 4418 0096 00       		.byte	0
 4419 0097 03       		.uleb128 0x3
 4420 0098 0E       		.uleb128 0xe
 4421 0099 3A       		.uleb128 0x3a
 4422 009a 0B       		.uleb128 0xb
 4423 009b 3B       		.uleb128 0x3b
 4424 009c 0B       		.uleb128 0xb
 4425 009d 49       		.uleb128 0x49
 4426 009e 13       		.uleb128 0x13
 4427 009f 38       		.uleb128 0x38
 4428 00a0 0B       		.uleb128 0xb
 4429 00a1 00       		.byte	0
 4430 00a2 00       		.byte	0
 4431 00a3 0E       		.uleb128 0xe
 4432 00a4 13       		.uleb128 0x13
 4433 00a5 01       		.byte	0x1
 4434 00a6 03       		.uleb128 0x3
 4435 00a7 0E       		.uleb128 0xe
 4436 00a8 0B       		.uleb128 0xb
 4437 00a9 0B       		.uleb128 0xb
 4438 00aa 3A       		.uleb128 0x3a
 4439 00ab 0B       		.uleb128 0xb
 4440 00ac 3B       		.uleb128 0x3b
 4441 00ad 05       		.uleb128 0x5
 4442 00ae 01       		.uleb128 0x1
 4443 00af 13       		.uleb128 0x13
 4444 00b0 00       		.byte	0
 4445 00b1 00       		.byte	0
 4446 00b2 0F       		.uleb128 0xf
 4447 00b3 0D       		.uleb128 0xd
 4448 00b4 00       		.byte	0
 4449 00b5 03       		.uleb128 0x3
ARM GAS  C:\Users\mgnocco\AppData\Local\Temp\ccuVecaK.s 			page 92


 4450 00b6 0E       		.uleb128 0xe
 4451 00b7 3A       		.uleb128 0x3a
 4452 00b8 0B       		.uleb128 0xb
 4453 00b9 3B       		.uleb128 0x3b
 4454 00ba 05       		.uleb128 0x5
 4455 00bb 49       		.uleb128 0x49
 4456 00bc 13       		.uleb128 0x13
 4457 00bd 38       		.uleb128 0x38
 4458 00be 0B       		.uleb128 0xb
 4459 00bf 00       		.byte	0
 4460 00c0 00       		.byte	0
 4461 00c1 10       		.uleb128 0x10
 4462 00c2 0D       		.uleb128 0xd
 4463 00c3 00       		.byte	0
 4464 00c4 03       		.uleb128 0x3
 4465 00c5 08       		.uleb128 0x8
 4466 00c6 3A       		.uleb128 0x3a
 4467 00c7 0B       		.uleb128 0xb
 4468 00c8 3B       		.uleb128 0x3b
 4469 00c9 05       		.uleb128 0x5
 4470 00ca 49       		.uleb128 0x49
 4471 00cb 13       		.uleb128 0x13
 4472 00cc 38       		.uleb128 0x38
 4473 00cd 0B       		.uleb128 0xb
 4474 00ce 00       		.byte	0
 4475 00cf 00       		.byte	0
 4476 00d0 11       		.uleb128 0x11
 4477 00d1 13       		.uleb128 0x13
 4478 00d2 01       		.byte	0x1
 4479 00d3 03       		.uleb128 0x3
 4480 00d4 0E       		.uleb128 0xe
 4481 00d5 0B       		.uleb128 0xb
 4482 00d6 05       		.uleb128 0x5
 4483 00d7 3A       		.uleb128 0x3a
 4484 00d8 0B       		.uleb128 0xb
 4485 00d9 3B       		.uleb128 0x3b
 4486 00da 05       		.uleb128 0x5
 4487 00db 01       		.uleb128 0x1
 4488 00dc 13       		.uleb128 0x13
 4489 00dd 00       		.byte	0
 4490 00de 00       		.byte	0
 4491 00df 12       		.uleb128 0x12
 4492 00e0 0D       		.uleb128 0xd
 4493 00e1 00       		.byte	0
 4494 00e2 03       		.uleb128 0x3
 4495 00e3 08       		.uleb128 0x8
 4496 00e4 3A       		.uleb128 0x3a
 4497 00e5 0B       		.uleb128 0xb
 4498 00e6 3B       		.uleb128 0x3b
 4499 00e7 05       		.uleb128 0x5
 4500 00e8 49       		.uleb128 0x49
 4501 00e9 13       		.uleb128 0x13
 4502 00ea 38       		.uleb128 0x38
 4503 00eb 05       		.uleb128 0x5
 4504 00ec 00       		.byte	0
 4505 00ed 00       		.byte	0
 4506 00ee 13       		.uleb128 0x13
ARM GAS  C:\Users\mgnocco\AppData\Local\Temp\ccuVecaK.s 			page 93


 4507 00ef 0D       		.uleb128 0xd
 4508 00f0 00       		.byte	0
 4509 00f1 03       		.uleb128 0x3
 4510 00f2 0E       		.uleb128 0xe
 4511 00f3 3A       		.uleb128 0x3a
 4512 00f4 0B       		.uleb128 0xb
 4513 00f5 3B       		.uleb128 0x3b
 4514 00f6 05       		.uleb128 0x5
 4515 00f7 49       		.uleb128 0x49
 4516 00f8 13       		.uleb128 0x13
 4517 00f9 38       		.uleb128 0x38
 4518 00fa 05       		.uleb128 0x5
 4519 00fb 00       		.byte	0
 4520 00fc 00       		.byte	0
 4521 00fd 14       		.uleb128 0x14
 4522 00fe 04       		.uleb128 0x4
 4523 00ff 01       		.byte	0x1
 4524 0100 0B       		.uleb128 0xb
 4525 0101 0B       		.uleb128 0xb
 4526 0102 49       		.uleb128 0x49
 4527 0103 13       		.uleb128 0x13
 4528 0104 3A       		.uleb128 0x3a
 4529 0105 0B       		.uleb128 0xb
 4530 0106 3B       		.uleb128 0x3b
 4531 0107 05       		.uleb128 0x5
 4532 0108 01       		.uleb128 0x1
 4533 0109 13       		.uleb128 0x13
 4534 010a 00       		.byte	0
 4535 010b 00       		.byte	0
 4536 010c 15       		.uleb128 0x15
 4537 010d 2E       		.uleb128 0x2e
 4538 010e 00       		.byte	0
 4539 010f 3F       		.uleb128 0x3f
 4540 0110 19       		.uleb128 0x19
 4541 0111 03       		.uleb128 0x3
 4542 0112 0E       		.uleb128 0xe
 4543 0113 3A       		.uleb128 0x3a
 4544 0114 0B       		.uleb128 0xb
 4545 0115 3B       		.uleb128 0x3b
 4546 0116 0B       		.uleb128 0xb
 4547 0117 27       		.uleb128 0x27
 4548 0118 19       		.uleb128 0x19
 4549 0119 11       		.uleb128 0x11
 4550 011a 01       		.uleb128 0x1
 4551 011b 12       		.uleb128 0x12
 4552 011c 06       		.uleb128 0x6
 4553 011d 40       		.uleb128 0x40
 4554 011e 18       		.uleb128 0x18
 4555 011f 9742     		.uleb128 0x2117
 4556 0121 19       		.uleb128 0x19
 4557 0122 00       		.byte	0
 4558 0123 00       		.byte	0
 4559 0124 16       		.uleb128 0x16
 4560 0125 2E       		.uleb128 0x2e
 4561 0126 01       		.byte	0x1
 4562 0127 3F       		.uleb128 0x3f
 4563 0128 19       		.uleb128 0x19
ARM GAS  C:\Users\mgnocco\AppData\Local\Temp\ccuVecaK.s 			page 94


 4564 0129 03       		.uleb128 0x3
 4565 012a 0E       		.uleb128 0xe
 4566 012b 3A       		.uleb128 0x3a
 4567 012c 0B       		.uleb128 0xb
 4568 012d 3B       		.uleb128 0x3b
 4569 012e 0B       		.uleb128 0xb
 4570 012f 11       		.uleb128 0x11
 4571 0130 01       		.uleb128 0x1
 4572 0131 12       		.uleb128 0x12
 4573 0132 06       		.uleb128 0x6
 4574 0133 40       		.uleb128 0x40
 4575 0134 18       		.uleb128 0x18
 4576 0135 9642     		.uleb128 0x2116
 4577 0137 19       		.uleb128 0x19
 4578 0138 01       		.uleb128 0x1
 4579 0139 13       		.uleb128 0x13
 4580 013a 00       		.byte	0
 4581 013b 00       		.byte	0
 4582 013c 17       		.uleb128 0x17
 4583 013d 34       		.uleb128 0x34
 4584 013e 00       		.byte	0
 4585 013f 03       		.uleb128 0x3
 4586 0140 0E       		.uleb128 0xe
 4587 0141 3A       		.uleb128 0x3a
 4588 0142 0B       		.uleb128 0xb
 4589 0143 3B       		.uleb128 0x3b
 4590 0144 0B       		.uleb128 0xb
 4591 0145 49       		.uleb128 0x49
 4592 0146 13       		.uleb128 0x13
 4593 0147 02       		.uleb128 0x2
 4594 0148 18       		.uleb128 0x18
 4595 0149 00       		.byte	0
 4596 014a 00       		.byte	0
 4597 014b 18       		.uleb128 0x18
 4598 014c 2E       		.uleb128 0x2e
 4599 014d 00       		.byte	0
 4600 014e 3F       		.uleb128 0x3f
 4601 014f 19       		.uleb128 0x19
 4602 0150 03       		.uleb128 0x3
 4603 0151 0E       		.uleb128 0xe
 4604 0152 3A       		.uleb128 0x3a
 4605 0153 0B       		.uleb128 0xb
 4606 0154 3B       		.uleb128 0x3b
 4607 0155 05       		.uleb128 0x5
 4608 0156 27       		.uleb128 0x27
 4609 0157 19       		.uleb128 0x19
 4610 0158 11       		.uleb128 0x11
 4611 0159 01       		.uleb128 0x1
 4612 015a 12       		.uleb128 0x12
 4613 015b 06       		.uleb128 0x6
 4614 015c 40       		.uleb128 0x40
 4615 015d 18       		.uleb128 0x18
 4616 015e 9642     		.uleb128 0x2116
 4617 0160 19       		.uleb128 0x19
 4618 0161 00       		.byte	0
 4619 0162 00       		.byte	0
 4620 0163 19       		.uleb128 0x19
ARM GAS  C:\Users\mgnocco\AppData\Local\Temp\ccuVecaK.s 			page 95


 4621 0164 2E       		.uleb128 0x2e
 4622 0165 01       		.byte	0x1
 4623 0166 3F       		.uleb128 0x3f
 4624 0167 19       		.uleb128 0x19
 4625 0168 03       		.uleb128 0x3
 4626 0169 0E       		.uleb128 0xe
 4627 016a 3A       		.uleb128 0x3a
 4628 016b 0B       		.uleb128 0xb
 4629 016c 3B       		.uleb128 0x3b
 4630 016d 05       		.uleb128 0x5
 4631 016e 11       		.uleb128 0x11
 4632 016f 01       		.uleb128 0x1
 4633 0170 12       		.uleb128 0x12
 4634 0171 06       		.uleb128 0x6
 4635 0172 40       		.uleb128 0x40
 4636 0173 18       		.uleb128 0x18
 4637 0174 9642     		.uleb128 0x2116
 4638 0176 19       		.uleb128 0x19
 4639 0177 01       		.uleb128 0x1
 4640 0178 13       		.uleb128 0x13
 4641 0179 00       		.byte	0
 4642 017a 00       		.byte	0
 4643 017b 1A       		.uleb128 0x1a
 4644 017c 34       		.uleb128 0x34
 4645 017d 00       		.byte	0
 4646 017e 03       		.uleb128 0x3
 4647 017f 0E       		.uleb128 0xe
 4648 0180 3A       		.uleb128 0x3a
 4649 0181 0B       		.uleb128 0xb
 4650 0182 3B       		.uleb128 0x3b
 4651 0183 05       		.uleb128 0x5
 4652 0184 49       		.uleb128 0x49
 4653 0185 13       		.uleb128 0x13
 4654 0186 02       		.uleb128 0x2
 4655 0187 18       		.uleb128 0x18
 4656 0188 00       		.byte	0
 4657 0189 00       		.byte	0
 4658 018a 1B       		.uleb128 0x1b
 4659 018b 0F       		.uleb128 0xf
 4660 018c 00       		.byte	0
 4661 018d 0B       		.uleb128 0xb
 4662 018e 0B       		.uleb128 0xb
 4663 018f 49       		.uleb128 0x49
 4664 0190 13       		.uleb128 0x13
 4665 0191 00       		.byte	0
 4666 0192 00       		.byte	0
 4667 0193 1C       		.uleb128 0x1c
 4668 0194 2E       		.uleb128 0x2e
 4669 0195 01       		.byte	0x1
 4670 0196 3F       		.uleb128 0x3f
 4671 0197 19       		.uleb128 0x19
 4672 0198 03       		.uleb128 0x3
 4673 0199 0E       		.uleb128 0xe
 4674 019a 3A       		.uleb128 0x3a
 4675 019b 0B       		.uleb128 0xb
 4676 019c 3B       		.uleb128 0x3b
 4677 019d 05       		.uleb128 0x5
ARM GAS  C:\Users\mgnocco\AppData\Local\Temp\ccuVecaK.s 			page 96


 4678 019e 27       		.uleb128 0x27
 4679 019f 19       		.uleb128 0x19
 4680 01a0 11       		.uleb128 0x11
 4681 01a1 01       		.uleb128 0x1
 4682 01a2 12       		.uleb128 0x12
 4683 01a3 06       		.uleb128 0x6
 4684 01a4 40       		.uleb128 0x40
 4685 01a5 18       		.uleb128 0x18
 4686 01a6 9742     		.uleb128 0x2117
 4687 01a8 19       		.uleb128 0x19
 4688 01a9 01       		.uleb128 0x1
 4689 01aa 13       		.uleb128 0x13
 4690 01ab 00       		.byte	0
 4691 01ac 00       		.byte	0
 4692 01ad 1D       		.uleb128 0x1d
 4693 01ae 05       		.uleb128 0x5
 4694 01af 00       		.byte	0
 4695 01b0 03       		.uleb128 0x3
 4696 01b1 0E       		.uleb128 0xe
 4697 01b2 3A       		.uleb128 0x3a
 4698 01b3 0B       		.uleb128 0xb
 4699 01b4 3B       		.uleb128 0x3b
 4700 01b5 05       		.uleb128 0x5
 4701 01b6 49       		.uleb128 0x49
 4702 01b7 13       		.uleb128 0x13
 4703 01b8 02       		.uleb128 0x2
 4704 01b9 18       		.uleb128 0x18
 4705 01ba 00       		.byte	0
 4706 01bb 00       		.byte	0
 4707 01bc 1E       		.uleb128 0x1e
 4708 01bd 2E       		.uleb128 0x2e
 4709 01be 00       		.byte	0
 4710 01bf 3F       		.uleb128 0x3f
 4711 01c0 19       		.uleb128 0x19
 4712 01c1 03       		.uleb128 0x3
 4713 01c2 0E       		.uleb128 0xe
 4714 01c3 3A       		.uleb128 0x3a
 4715 01c4 0B       		.uleb128 0xb
 4716 01c5 3B       		.uleb128 0x3b
 4717 01c6 05       		.uleb128 0x5
 4718 01c7 11       		.uleb128 0x11
 4719 01c8 01       		.uleb128 0x1
 4720 01c9 12       		.uleb128 0x12
 4721 01ca 06       		.uleb128 0x6
 4722 01cb 40       		.uleb128 0x40
 4723 01cc 18       		.uleb128 0x18
 4724 01cd 9742     		.uleb128 0x2117
 4725 01cf 19       		.uleb128 0x19
 4726 01d0 00       		.byte	0
 4727 01d1 00       		.byte	0
 4728 01d2 1F       		.uleb128 0x1f
 4729 01d3 2E       		.uleb128 0x2e
 4730 01d4 01       		.byte	0x1
 4731 01d5 3F       		.uleb128 0x3f
 4732 01d6 19       		.uleb128 0x19
 4733 01d7 03       		.uleb128 0x3
 4734 01d8 0E       		.uleb128 0xe
ARM GAS  C:\Users\mgnocco\AppData\Local\Temp\ccuVecaK.s 			page 97


 4735 01d9 3A       		.uleb128 0x3a
 4736 01da 0B       		.uleb128 0xb
 4737 01db 3B       		.uleb128 0x3b
 4738 01dc 05       		.uleb128 0x5
 4739 01dd 11       		.uleb128 0x11
 4740 01de 01       		.uleb128 0x1
 4741 01df 12       		.uleb128 0x12
 4742 01e0 06       		.uleb128 0x6
 4743 01e1 40       		.uleb128 0x40
 4744 01e2 18       		.uleb128 0x18
 4745 01e3 9742     		.uleb128 0x2117
 4746 01e5 19       		.uleb128 0x19
 4747 01e6 01       		.uleb128 0x1
 4748 01e7 13       		.uleb128 0x13
 4749 01e8 00       		.byte	0
 4750 01e9 00       		.byte	0
 4751 01ea 20       		.uleb128 0x20
 4752 01eb 0B       		.uleb128 0xb
 4753 01ec 01       		.byte	0x1
 4754 01ed 11       		.uleb128 0x11
 4755 01ee 01       		.uleb128 0x1
 4756 01ef 12       		.uleb128 0x12
 4757 01f0 06       		.uleb128 0x6
 4758 01f1 00       		.byte	0
 4759 01f2 00       		.byte	0
 4760 01f3 21       		.uleb128 0x21
 4761 01f4 34       		.uleb128 0x34
 4762 01f5 00       		.byte	0
 4763 01f6 03       		.uleb128 0x3
 4764 01f7 08       		.uleb128 0x8
 4765 01f8 3A       		.uleb128 0x3a
 4766 01f9 0B       		.uleb128 0xb
 4767 01fa 3B       		.uleb128 0x3b
 4768 01fb 05       		.uleb128 0x5
 4769 01fc 49       		.uleb128 0x49
 4770 01fd 13       		.uleb128 0x13
 4771 01fe 02       		.uleb128 0x2
 4772 01ff 18       		.uleb128 0x18
 4773 0200 00       		.byte	0
 4774 0201 00       		.byte	0
 4775 0202 22       		.uleb128 0x22
 4776 0203 26       		.uleb128 0x26
 4777 0204 00       		.byte	0
 4778 0205 49       		.uleb128 0x49
 4779 0206 13       		.uleb128 0x13
 4780 0207 00       		.byte	0
 4781 0208 00       		.byte	0
 4782 0209 23       		.uleb128 0x23
 4783 020a 34       		.uleb128 0x34
 4784 020b 00       		.byte	0
 4785 020c 03       		.uleb128 0x3
 4786 020d 0E       		.uleb128 0xe
 4787 020e 3A       		.uleb128 0x3a
 4788 020f 0B       		.uleb128 0xb
 4789 0210 3B       		.uleb128 0x3b
 4790 0211 05       		.uleb128 0x5
 4791 0212 49       		.uleb128 0x49
ARM GAS  C:\Users\mgnocco\AppData\Local\Temp\ccuVecaK.s 			page 98


 4792 0213 13       		.uleb128 0x13
 4793 0214 3F       		.uleb128 0x3f
 4794 0215 19       		.uleb128 0x19
 4795 0216 3C       		.uleb128 0x3c
 4796 0217 19       		.uleb128 0x19
 4797 0218 00       		.byte	0
 4798 0219 00       		.byte	0
 4799 021a 00       		.byte	0
 4800              		.section	.debug_aranges,"",%progbits
 4801 0000 6C000000 		.4byte	0x6c
 4802 0004 0200     		.2byte	0x2
 4803 0006 00000000 		.4byte	.Ldebug_info0
 4804 000a 04       		.byte	0x4
 4805 000b 00       		.byte	0
 4806 000c 0000     		.2byte	0
 4807 000e 0000     		.2byte	0
 4808 0010 00000000 		.4byte	.LFB64
 4809 0014 18000000 		.4byte	.LFE64-.LFB64
 4810 0018 00000000 		.4byte	.LFB65
 4811 001c 20000000 		.4byte	.LFE65-.LFB65
 4812 0020 00000000 		.4byte	.LFB66
 4813 0024 F4010000 		.4byte	.LFE66-.LFB66
 4814 0028 00000000 		.4byte	.LFB67
 4815 002c 34000000 		.4byte	.LFE67-.LFB67
 4816 0030 00000000 		.4byte	.LFB68
 4817 0034 08010000 		.4byte	.LFE68-.LFB68
 4818 0038 00000000 		.4byte	.LFB69
 4819 003c 1A000000 		.4byte	.LFE69-.LFB69
 4820 0040 00000000 		.4byte	.LFB70
 4821 0044 0C000000 		.4byte	.LFE70-.LFB70
 4822 0048 00000000 		.4byte	.LFB71
 4823 004c 0C010000 		.4byte	.LFE71-.LFB71
 4824 0050 00000000 		.4byte	.LFB72
 4825 0054 A8000000 		.4byte	.LFE72-.LFB72
 4826 0058 00000000 		.4byte	.LFB73
 4827 005c 60060000 		.4byte	.LFE73-.LFB73
 4828 0060 00000000 		.4byte	.LFB74
 4829 0064 08010000 		.4byte	.LFE74-.LFB74
 4830 0068 00000000 		.4byte	0
 4831 006c 00000000 		.4byte	0
 4832              		.section	.debug_ranges,"",%progbits
 4833              	.Ldebug_ranges0:
 4834 0000 00000000 		.4byte	.LFB64
 4835 0004 18000000 		.4byte	.LFE64
 4836 0008 00000000 		.4byte	.LFB65
 4837 000c 20000000 		.4byte	.LFE65
 4838 0010 00000000 		.4byte	.LFB66
 4839 0014 F4010000 		.4byte	.LFE66
 4840 0018 00000000 		.4byte	.LFB67
 4841 001c 34000000 		.4byte	.LFE67
 4842 0020 00000000 		.4byte	.LFB68
 4843 0024 08010000 		.4byte	.LFE68
 4844 0028 00000000 		.4byte	.LFB69
 4845 002c 1A000000 		.4byte	.LFE69
 4846 0030 00000000 		.4byte	.LFB70
 4847 0034 0C000000 		.4byte	.LFE70
 4848 0038 00000000 		.4byte	.LFB71
ARM GAS  C:\Users\mgnocco\AppData\Local\Temp\ccuVecaK.s 			page 99


 4849 003c 0C010000 		.4byte	.LFE71
 4850 0040 00000000 		.4byte	.LFB72
 4851 0044 A8000000 		.4byte	.LFE72
 4852 0048 00000000 		.4byte	.LFB73
 4853 004c 60060000 		.4byte	.LFE73
 4854 0050 00000000 		.4byte	.LFB74
 4855 0054 08010000 		.4byte	.LFE74
 4856 0058 00000000 		.4byte	0
 4857 005c 00000000 		.4byte	0
 4858              		.section	.debug_line,"",%progbits
 4859              	.Ldebug_line0:
 4860 0000 84040000 		.section	.debug_str,"MS",%progbits,1
 4860      02007701 
 4860      00000201 
 4860      FB0E0D00 
 4860      01010101 
 4861              	.LASF53:
 4862 0000 656D675F 		.ascii	"emg_act_counter\000"
 4862      6163745F 
 4862      636F756E 
 4862      74657200 
 4863              	.LASF24:
 4864 0010 73697A65 		.ascii	"sizetype\000"
 4864      74797065 
 4864      00
 4865              	.LASF60:
 4866 0019 706F7765 		.ascii	"power_cycles\000"
 4866      725F6379 
 4866      636C6573 
 4866      00
 4867              	.LASF193:
 4868 0026 706F735F 		.ascii	"pos_cycle_status\000"
 4868      6379636C 
 4868      655F7374 
 4868      61747573 
 4868      00
 4869              	.LASF144:
 4870 0037 77726973 		.ascii	"wrist_direction_association\000"
 4870      745F6469 
 4870      72656374 
 4870      696F6E5F 
 4870      6173736F 
 4871              	.LASF30:
 4872 0053 494E5055 		.ascii	"INPUT_MODE_EMG_FCFS_ADV\000"
 4872      545F4D4F 
 4872      44455F45 
 4872      4D475F46 
 4872      4346535F 
 4873              	.LASF119:
 4874 006b 72656164 		.ascii	"read_ADC_sensors_port_flag\000"
 4874      5F414443 
 4874      5F73656E 
 4874      736F7273 
 4874      5F706F72 
 4875              	.LASF149:
 4876 0086 75736572 		.ascii	"user\000"
 4876      00
ARM GAS  C:\Users\mgnocco\AppData\Local\Temp\ccuVecaK.s 			page 100


 4877              	.LASF10:
 4878 008b 696E7433 		.ascii	"int32_t\000"
 4878      325F7400 
 4879              	.LASF228:
 4880 0093 675F7278 		.ascii	"g_rx\000"
 4880      00
 4881              	.LASF48:
 4882 0098 73745F64 		.ascii	"st_data\000"
 4882      61746100 
 4883              	.LASF58:
 4884 00a0 746F7461 		.ascii	"total_runtime\000"
 4884      6C5F7275 
 4884      6E74696D 
 4884      6500
 4885              	.LASF13:
 4886 00ae 75696E74 		.ascii	"uint32\000"
 4886      333200
 4887              	.LASF183:
 4888 00b5 6E5F6C69 		.ascii	"n_line\000"
 4888      6E6500
 4889              	.LASF150:
 4890 00bc 4A4F595F 		.ascii	"JOY_spec\000"
 4890      73706563 
 4890      00
 4891              	.LASF87:
 4892 00c5 706F735F 		.ascii	"pos_lim_inf\000"
 4892      6C696D5F 
 4892      696E6600 
 4893              	.LASF166:
 4894 00d1 73746174 		.ascii	"state\000"
 4894      6500
 4895              	.LASF239:
 4896 00d7 6379636C 		.ascii	"cycles_interrupt_flag\000"
 4896      65735F69 
 4896      6E746572 
 4896      72757074 
 4896      5F666C61 
 4897              	.LASF203:
 4898 00ed 62696E5F 		.ascii	"bin_max\000"
 4898      6D617800 
 4899              	.LASF220:
 4900 00f5 61646472 		.ascii	"addr_start_c\000"
 4900      5F737461 
 4900      72745F63 
 4900      00
 4901              	.LASF29:
 4902 0102 494E5055 		.ascii	"INPUT_MODE_EMG_FCFS\000"
 4902      545F4D4F 
 4902      44455F45 
 4902      4D475F46 
 4902      43465300 
 4903              	.LASF91:
 4904 0116 63757272 		.ascii	"curr_lookup\000"
 4904      5F6C6F6F 
 4904      6B757000 
 4905              	.LASF177:
 4906 0122 70776D5F 		.ascii	"pwm_input\000"
ARM GAS  C:\Users\mgnocco\AppData\Local\Temp\ccuVecaK.s 			page 101


 4906      696E7075 
 4906      7400
 4907              	.LASF56:
 4908 012c 72657374 		.ascii	"rest_counter\000"
 4908      5F636F75 
 4908      6E746572 
 4908      00
 4909              	.LASF134:
 4910 0139 73745F4D 		.ascii	"st_MASTER_spec\000"
 4910      41535445 
 4910      525F7370 
 4910      656300
 4911              	.LASF28:
 4912 0148 494E5055 		.ascii	"INPUT_MODE_EMG_INTEGRAL\000"
 4912      545F4D4F 
 4912      44455F45 
 4912      4D475F49 
 4912      4E544547 
 4913              	.LASF171:
 4914 0160 72785F64 		.ascii	"rx_data\000"
 4914      61746100 
 4915              	.LASF14:
 4916 0168 696E7438 		.ascii	"int8\000"
 4916      00
 4917              	.LASF106:
 4918 016d 73745F65 		.ascii	"st_emg\000"
 4918      6D6700
 4919              	.LASF54:
 4920 0174 706F7369 		.ascii	"position_hist\000"
 4920      74696F6E 
 4920      5F686973 
 4920      7400
 4921              	.LASF158:
 4922 0182 50524550 		.ascii	"PREPARE_DATA\000"
 4922      4152455F 
 4922      44415441 
 4922      00
 4923              	.LASF200:
 4924 018f 7468725F 		.ascii	"thr_pos\000"
 4924      706F7300 
 4925              	.LASF141:
 4926 0197 73745F57 		.ascii	"st_WR_spec\000"
 4926      525F7370 
 4926      656300
 4927              	.LASF51:
 4928 01a2 72656164 		.ascii	"ready\000"
 4928      7900
 4929              	.LASF103:
 4930 01a8 456E635F 		.ascii	"Enc_idx_use_for_control\000"
 4930      6964785F 
 4930      7573655F 
 4930      666F725F 
 4930      636F6E74 
 4931              	.LASF64:
 4932 01c0 73745F64 		.ascii	"st_device\000"
 4932      65766963 
 4932      6500
ARM GAS  C:\Users\mgnocco\AppData\Local\Temp\ccuVecaK.s 			page 102


 4933              	.LASF27:
 4934 01ca 494E5055 		.ascii	"INPUT_MODE_EMG_PROPORTIONAL\000"
 4934      545F4D4F 
 4934      44455F45 
 4934      4D475F50 
 4934      524F504F 
 4935              	.LASF69:
 4936 01e6 7573655F 		.ascii	"use_2nd_motor_flag\000"
 4936      326E645F 
 4936      6D6F746F 
 4936      725F666C 
 4936      616700
 4937              	.LASF61:
 4938 01f9 65786365 		.ascii	"excessive_signal_activity\000"
 4938      73736976 
 4938      655F7369 
 4938      676E616C 
 4938      5F616374 
 4939              	.LASF154:
 4940 0213 53554D5F 		.ascii	"SUM_AND_MEAN\000"
 4940      414E445F 
 4940      4D45414E 
 4940      00
 4941              	.LASF113:
 4942 0220 72656164 		.ascii	"read_imu_flag\000"
 4942      5F696D75 
 4942      5F666C61 
 4942      6700
 4943              	.LASF121:
 4944 022e 7265636F 		.ascii	"record_EMG_history_on_SD\000"
 4944      72645F45 
 4944      4D475F68 
 4944      6973746F 
 4944      72795F6F 
 4945              	.LASF4:
 4946 0247 6C6F6E67 		.ascii	"long int\000"
 4946      20696E74 
 4946      00
 4947              	.LASF147:
 4948 0250 756E7573 		.ascii	"unused_bytes1\000"
 4948      65645F62 
 4948      79746573 
 4948      3100
 4949              	.LASF180:
 4950 025e 53485F45 		.ascii	"SH_ENC_L\000"
 4950      4E435F4C 
 4950      00
 4951              	.LASF68:
 4952 0267 72657365 		.ascii	"reset_counters\000"
 4952      745F636F 
 4952      756E7465 
 4952      727300
 4953              	.LASF198:
 4954 0276 62696E5F 		.ascii	"bin_threshold\000"
 4954      74687265 
 4954      73686F6C 
 4954      6400
ARM GAS  C:\Users\mgnocco\AppData\Local\Temp\ccuVecaK.s 			page 103


 4955              	.LASF124:
 4956 0284 75736572 		.ascii	"user_emg\000"
 4956      5F656D67 
 4956      00
 4957              	.LASF63:
 4958 028d 756E7573 		.ascii	"unused_bytes\000"
 4958      65645F62 
 4958      79746573 
 4958      00
 4959              	.LASF52:
 4960 029a 73745F63 		.ascii	"st_counters\000"
 4960      6F756E74 
 4960      65727300 
 4961              	.LASF179:
 4962 02a6 53485F4D 		.ascii	"SH_MOT\000"
 4962      4F5400
 4963              	.LASF17:
 4964 02ad 666C6F61 		.ascii	"float32\000"
 4964      74333200 
 4965              	.LASF186:
 4966 02b5 656E636F 		.ascii	"encoder_reading_SPI\000"
 4966      6465725F 
 4966      72656164 
 4966      696E675F 
 4966      53504900 
 4967              	.LASF161:
 4968 02c9 57524954 		.ascii	"WRITE_END\000"
 4968      455F454E 
 4968      4400
 4969              	.LASF187:
 4970 02d3 70776D5F 		.ascii	"pwm_limit_search\000"
 4970      6C696D69 
 4970      745F7365 
 4970      61726368 
 4970      00
 4971              	.LASF0:
 4972 02e4 7369676E 		.ascii	"signed char\000"
 4972      65642063 
 4972      68617200 
 4973              	.LASF123:
 4974 02f0 75736572 		.ascii	"user_code_string\000"
 4974      5F636F64 
 4974      655F7374 
 4974      72696E67 
 4974      00
 4975              	.LASF111:
 4976 0301 73776974 		.ascii	"switch_emg\000"
 4976      63685F65 
 4976      6D6700
 4977              	.LASF237:
 4978 030c 656D675F 		.ascii	"emg_2_status\000"
 4978      325F7374 
 4978      61747573 
 4978      00
 4979              	.LASF238:
 4980 0319 696E7465 		.ascii	"interrupt_flag\000"
 4980      72727570 
ARM GAS  C:\Users\mgnocco\AppData\Local\Temp\ccuVecaK.s 			page 104


 4980      745F666C 
 4980      616700
 4981              	.LASF209:
 4982 0328 73746570 		.ascii	"step\000"
 4982      00
 4983              	.LASF1:
 4984 032d 756E7369 		.ascii	"unsigned char\000"
 4984      676E6564 
 4984      20636861 
 4984      7200
 4985              	.LASF97:
 4986 033b 6E6F745F 		.ascii	"not_revers_motor_flag\000"
 4986      72657665 
 4986      72735F6D 
 4986      6F746F72 
 4986      5F666C61 
 4987              	.LASF218:
 4988 0351 726F775F 		.ascii	"row_start\000"
 4988      73746172 
 4988      7400
 4989              	.LASF207:
 4990 035b 63757272 		.ascii	"curr_off\000"
 4990      5F6F6666 
 4990      00
 4991              	.LASF67:
 4992 0364 72696768 		.ascii	"right_left\000"
 4992      745F6C65 
 4992      667400
 4993              	.LASF95:
 4994 036f 656E636F 		.ascii	"encoder_line\000"
 4994      6465725F 
 4994      6C696E65 
 4994      00
 4995              	.LASF236:
 4996 037c 656D675F 		.ascii	"emg_1_status\000"
 4996      315F7374 
 4996      61747573 
 4996      00
 4997              	.LASF20:
 4998 0389 63686172 		.ascii	"char\000"
 4998      00
 4999              	.LASF90:
 5000 038e 6D61785F 		.ascii	"max_step_pos\000"
 5000      73746570 
 5000      5F706F73 
 5000      00
 5001              	.LASF242:
 5002 039b 70776D5F 		.ascii	"pwm_sign\000"
 5002      7369676E 
 5002      00
 5003              	.LASF96:
 5004 03a4 70776D5F 		.ascii	"pwm_rate_limiter\000"
 5004      72617465 
 5004      5F6C696D 
 5004      69746572 
 5004      00
 5005              	.LASF76:
ARM GAS  C:\Users\mgnocco\AppData\Local\Temp\ccuVecaK.s 			page 105


 5006 03b5 6B5F645F 		.ascii	"k_d_c\000"
 5006      6300
 5007              	.LASF157:
 5008 03bb 6164635F 		.ascii	"adc_status\000"
 5008      73746174 
 5008      757300
 5009              	.LASF101:
 5010 03c6 6D5F6D75 		.ascii	"m_mult\000"
 5010      6C7400
 5011              	.LASF75:
 5012 03cd 6B5F695F 		.ascii	"k_i_c\000"
 5012      6300
 5013              	.LASF202:
 5014 03d3 62696E5F 		.ascii	"bin_st\000"
 5014      737400
 5015              	.LASF164:
 5016 03da 4953525F 		.ascii	"ISR_RS485_RX_ExInterrupt\000"
 5016      52533438 
 5016      355F5258 
 5016      5F457849 
 5016      6E746572 
 5017              	.LASF88:
 5018 03f3 706F735F 		.ascii	"pos_lim_sup\000"
 5018      6C696D5F 
 5018      73757000 
 5019              	.LASF109:
 5020 03ff 656D675F 		.ascii	"emg_speed\000"
 5020      73706565 
 5020      6400
 5021              	.LASF128:
 5022 0409 72657374 		.ascii	"rest_vel\000"
 5022      5F76656C 
 5022      00
 5023              	.LASF151:
 5024 0412 4E4F524D 		.ascii	"NORMAL\000"
 5024      414C00
 5025              	.LASF176:
 5026 0419 6D6F746F 		.ascii	"motor_control_SH\000"
 5026      725F636F 
 5026      6E74726F 
 5026      6C5F5348 
 5026      00
 5027              	.LASF120:
 5028 042a 4144435F 		.ascii	"ADC_conf\000"
 5028      636F6E66 
 5028      00
 5029              	.LASF78:
 5030 0433 6B5F695F 		.ascii	"k_i_dl\000"
 5030      646C00
 5031              	.LASF49:
 5032 043a 62756666 		.ascii	"buffer\000"
 5032      657200
 5033              	.LASF80:
 5034 0441 6B5F705F 		.ascii	"k_p_c_dl\000"
 5034      635F646C 
 5034      00
 5035              	.LASF172:
ARM GAS  C:\Users\mgnocco\AppData\Local\Temp\ccuVecaK.s 			page 106


 5036 044a 72785F64 		.ascii	"rx_data_type\000"
 5036      6174615F 
 5036      74797065 
 5036      00
 5037              	.LASF229:
 5038 0457 675F6D65 		.ascii	"g_mem\000"
 5038      6D00
 5039              	.LASF182:
 5040 045d 706F7369 		.ascii	"position_counter\000"
 5040      74696F6E 
 5040      5F636F75 
 5040      6E746572 
 5040      00
 5041              	.LASF211:
 5042 046e 74696D65 		.ascii	"timer_value_e\000"
 5042      725F7661 
 5042      6C75655F 
 5042      6500
 5043              	.LASF167:
 5044 047c 64617461 		.ascii	"data_packet_index\000"
 5044      5F706163 
 5044      6B65745F 
 5044      696E6465 
 5044      7800
 5045              	.LASF169:
 5046 048e 64617461 		.ascii	"data_packet_buffer\000"
 5046      5F706163 
 5046      6B65745F 
 5046      62756666 
 5046      657200
 5047              	.LASF235:
 5048 04a1 6379636C 		.ascii	"cycles_status\000"
 5048      65735F73 
 5048      74617475 
 5048      7300
 5049              	.LASF226:
 5050 04af 675F6D65 		.ascii	"g_meas\000"
 5050      617300
 5051              	.LASF210:
 5052 04b6 74696D65 		.ascii	"timer_value_s\000"
 5052      725F7661 
 5052      6C75655F 
 5052      7300
 5053              	.LASF214:
 5054 04c4 73746172 		.ascii	"start_emg_pos\000"
 5054      745F656D 
 5054      675F706F 
 5054      7300
 5055              	.LASF225:
 5056 04d2 675F7265 		.ascii	"g_ref\000"
 5056      6600
 5057              	.LASF25:
 5058 04d8 494E5055 		.ascii	"INPUT_MODE_EXTERNAL\000"
 5058      545F4D4F 
 5058      44455F45 
 5058      58544552 
 5058      4E414C00 
ARM GAS  C:\Users\mgnocco\AppData\Local\Temp\ccuVecaK.s 			page 107


 5059              	.LASF189:
 5060 04ec 696E6465 		.ascii	"index\000"
 5060      7800
 5061              	.LASF139:
 5062 04f2 6D617869 		.ascii	"maximum_pressure_kPa\000"
 5062      6D756D5F 
 5062      70726573 
 5062      73757265 
 5062      5F6B5061 
 5063              	.LASF129:
 5064 0507 72657374 		.ascii	"rest_position_flag\000"
 5064      5F706F73 
 5064      6974696F 
 5064      6E5F666C 
 5064      616700
 5065              	.LASF131:
 5066 051a 6A6F7973 		.ascii	"joystick_closure_speed\000"
 5066      7469636B 
 5066      5F636C6F 
 5066      73757265 
 5066      5F737065 
 5067              	.LASF81:
 5068 0531 6B5F695F 		.ascii	"k_i_c_dl\000"
 5068      635F646C 
 5068      00
 5069              	.LASF173:
 5070 053a 7061636B 		.ascii	"package_count\000"
 5070      6167655F 
 5070      636F756E 
 5070      7400
 5071              	.LASF38:
 5072 0548 43555252 		.ascii	"CURR_AND_POS_CONTROL\000"
 5072      5F414E44 
 5072      5F504F53 
 5072      5F434F4E 
 5072      54524F4C 
 5073              	.LASF5:
 5074 055d 6C6F6E67 		.ascii	"long unsigned int\000"
 5074      20756E73 
 5074      69676E65 
 5074      6420696E 
 5074      7400
 5075              	.LASF159:
 5076 056f 57524954 		.ascii	"WRITE_CYCLES\000"
 5076      455F4359 
 5076      434C4553 
 5076      00
 5077              	.LASF133:
 5078 057c 6A6F7973 		.ascii	"joystick_gains\000"
 5078      7469636B 
 5078      5F676169 
 5078      6E7300
 5079              	.LASF44:
 5080 058b 686F6C64 		.ascii	"hold_curr\000"
 5080      5F637572 
 5080      7200
 5081              	.LASF31:
ARM GAS  C:\Users\mgnocco\AppData\Local\Temp\ccuVecaK.s 			page 108


 5082 0595 494E5055 		.ascii	"INPUT_MODE_JOYSTICK\000"
 5082      545F4D4F 
 5082      44455F4A 
 5082      4F595354 
 5082      49434B00 
 5083              	.LASF59:
 5084 05a9 746F7461 		.ascii	"total_time_rest\000"
 5084      6C5F7469 
 5084      6D655F72 
 5084      65737400 
 5085              	.LASF83:
 5086 05b9 61637469 		.ascii	"activ\000"
 5086      7600
 5087              	.LASF100:
 5088 05bf 6D5F6F66 		.ascii	"m_off\000"
 5088      6600
 5089              	.LASF126:
 5090 05c5 72657374 		.ascii	"rest_pos\000"
 5090      5F706F73 
 5090      00
 5091              	.LASF39:
 5092 05ce 63757272 		.ascii	"curr\000"
 5092      00
 5093              	.LASF160:
 5094 05d3 57414954 		.ascii	"WAIT_QUERY\000"
 5094      5F515545 
 5094      525900
 5095              	.LASF93:
 5096 05de 696E7075 		.ascii	"input_mode\000"
 5096      745F6D6F 
 5096      646500
 5097              	.LASF36:
 5098 05e9 434F4E54 		.ascii	"CONTROL_PWM\000"
 5098      524F4C5F 
 5098      50574D00 
 5099              	.LASF192:
 5100 05f5 6379636C 		.ascii	"cycles_counter_update\000"
 5100      65735F63 
 5100      6F756E74 
 5100      65725F75 
 5100      70646174 
 5101              	.LASF243:
 5102 060b 474E5520 		.ascii	"GNU C11 5.4.1 20160609 (release) [ARM/embedded-5-br"
 5102      43313120 
 5102      352E342E 
 5102      31203230 
 5102      31363036 
 5103 063e 616E6368 		.ascii	"anch revision 237715] -mcpu=cortex-m3 -mthumb -g -O"
 5103      20726576 
 5103      6973696F 
 5103      6E203233 
 5103      37373135 
 5104 0671 30202D66 		.ascii	"0 -ffunction-sections -ffat-lto-objects\000"
 5104      66756E63 
 5104      74696F6E 
 5104      2D736563 
 5104      74696F6E 
ARM GAS  C:\Users\mgnocco\AppData\Local\Temp\ccuVecaK.s 			page 109


 5105              	.LASF41:
 5106 0699 73745F72 		.ascii	"st_ref\000"
 5106      656600
 5107              	.LASF125:
 5108 06a0 73745F53 		.ascii	"st_SH_spec\000"
 5108      485F7370 
 5108      656300
 5109              	.LASF137:
 5110 06ab 73745F46 		.ascii	"st_FB_spec\000"
 5110      425F7370 
 5110      656300
 5111              	.LASF6:
 5112 06b6 6C6F6E67 		.ascii	"long long int\000"
 5112      206C6F6E 
 5112      6720696E 
 5112      7400
 5113              	.LASF34:
 5114 06c4 53485F63 		.ascii	"SH_control_mode\000"
 5114      6F6E7472 
 5114      6F6C5F6D 
 5114      6F646500 
 5115              	.LASF19:
 5116 06d4 646F7562 		.ascii	"double\000"
 5116      6C6500
 5117              	.LASF175:
 5118 06db 696E7465 		.ascii	"interrupt_manager\000"
 5118      72727570 
 5118      745F6D61 
 5118      6E616765 
 5118      7200
 5119              	.LASF99:
 5120 06ed 456E635F 		.ascii	"Enc_raw_read_conf\000"
 5120      7261775F 
 5120      72656164 
 5120      5F636F6E 
 5120      6600
 5121              	.LASF89:
 5122 06ff 6D61785F 		.ascii	"max_step_neg\000"
 5122      73746570 
 5122      5F6E6567 
 5122      00
 5123              	.LASF245:
 5124 070c 433A5C55 		.ascii	"C:\\Users\\mgnocco\\Documents\\GitHub\\PSoC5\\Toast"
 5124      73657273 
 5124      5C6D676E 
 5124      6F63636F 
 5124      5C446F63 
 5125 0739 5C546F61 		.ascii	"\\Toast.cydsn\000"
 5125      73742E63 
 5125      7964736E 
 5125      00
 5126              	.LASF136:
 5127 0746 736C6176 		.ascii	"slave_ID\000"
 5127      655F4944 
 5127      00
 5128              	.LASF155:
 5129 074f 57414954 		.ascii	"WAIT\000"
ARM GAS  C:\Users\mgnocco\AppData\Local\Temp\ccuVecaK.s 			page 110


 5129      00
 5130              	.LASF18:
 5131 0754 666C6F61 		.ascii	"float\000"
 5131      7400
 5132              	.LASF115:
 5133 075a 494D555F 		.ascii	"IMU_conf\000"
 5133      636F6E66 
 5133      00
 5134              	.LASF45:
 5135 0763 73745F61 		.ascii	"st_adc_meas\000"
 5135      64635F6D 
 5135      65617300 
 5136              	.LASF196:
 5137 076f 656D675F 		.ascii	"emg_excess_status\000"
 5137      65786365 
 5137      73735F73 
 5137      74617475 
 5137      7300
 5138              	.LASF222:
 5139 0781 6D5F6164 		.ascii	"m_addr\000"
 5139      647200
 5140              	.LASF230:
 5141 0788 635F6D65 		.ascii	"c_mem\000"
 5141      6D00
 5142              	.LASF8:
 5143 078e 756E7369 		.ascii	"unsigned int\000"
 5143      676E6564 
 5143      20696E74 
 5143      00
 5144              	.LASF201:
 5145 079b 6D61785F 		.ascii	"max_pos\000"
 5145      706F7300 
 5146              	.LASF146:
 5147 07a3 666C6167 		.ascii	"flag\000"
 5147      00
 5148              	.LASF94:
 5149 07a8 636F6E74 		.ascii	"control_mode\000"
 5149      726F6C5F 
 5149      6D6F6465 
 5149      00
 5150              	.LASF21:
 5151 07b5 63797374 		.ascii	"cystatus\000"
 5151      61747573 
 5151      00
 5152              	.LASF26:
 5153 07be 494E5055 		.ascii	"INPUT_MODE_ENCODER3\000"
 5153      545F4D4F 
 5153      44455F45 
 5153      4E434F44 
 5153      45523300 
 5154              	.LASF112:
 5155 07d2 73745F69 		.ascii	"st_imu\000"
 5155      6D7500
 5156              	.LASF170:
 5157 07d9 72785F71 		.ascii	"rx_queue\000"
 5157      75657565 
 5157      00
ARM GAS  C:\Users\mgnocco\AppData\Local\Temp\ccuVecaK.s 			page 111


 5158              	.LASF184:
 5159 07e2 6173736F 		.ascii	"assoc_motor\000"
 5159      635F6D6F 
 5159      746F7200 
 5160              	.LASF46:
 5161 07ee 6164645F 		.ascii	"add_emg\000"
 5161      656D6700 
 5162              	.LASF107:
 5163 07f6 656D675F 		.ascii	"emg_threshold\000"
 5163      74687265 
 5163      73686F6C 
 5163      6400
 5164              	.LASF215:
 5165 0804 73617665 		.ascii	"save_cycles_eeprom\000"
 5165      5F637963 
 5165      6C65735F 
 5165      65657072 
 5165      6F6D00
 5166              	.LASF104:
 5167 0817 6D6F746F 		.ascii	"motor_handle_ratio\000"
 5167      725F6861 
 5167      6E646C65 
 5167      5F726174 
 5167      696F00
 5168              	.LASF55:
 5169 082a 63757272 		.ascii	"current_hist\000"
 5169      656E745F 
 5169      68697374 
 5169      00
 5170              	.LASF37:
 5171 0837 434F4E54 		.ascii	"CONTROL_CURRENT\000"
 5171      524F4C5F 
 5171      43555252 
 5171      454E5400 
 5172              	.LASF23:
 5173 0847 6C6F6E67 		.ascii	"long double\000"
 5173      20646F75 
 5173      626C6500 
 5174              	.LASF153:
 5175 0853 44495343 		.ascii	"DISCARD\000"
 5175      41524400 
 5176              	.LASF188:
 5177 085b 6D6F745F 		.ascii	"mot_idx\000"
 5177      69647800 
 5178              	.LASF62:
 5179 0863 6D6F7469 		.ascii	"motion_counter\000"
 5179      6F6E5F63 
 5179      6F756E74 
 5179      657200
 5180              	.LASF241:
 5181 0872 72657374 		.ascii	"rest_enabled\000"
 5181      5F656E61 
 5181      626C6564 
 5181      00
 5182              	.LASF117:
 5183 087f 63757272 		.ascii	"curr_time\000"
 5183      5F74696D 
ARM GAS  C:\Users\mgnocco\AppData\Local\Temp\ccuVecaK.s 			page 112


 5183      6500
 5184              	.LASF102:
 5185 0889 646F7562 		.ascii	"double_encoder_on_off\000"
 5185      6C655F65 
 5185      6E636F64 
 5185      65725F6F 
 5185      6E5F6F66 
 5186              	.LASF190:
 5187 089f 6D61785F 		.ascii	"max_tension\000"
 5187      74656E73 
 5187      696F6E00 
 5188              	.LASF178:
 5189 08ab 4D4F544F 		.ascii	"MOTOR_IDX\000"
 5189      525F4944 
 5189      5800
 5190              	.LASF7:
 5191 08b5 6C6F6E67 		.ascii	"long long unsigned int\000"
 5191      206C6F6E 
 5191      6720756E 
 5191      7369676E 
 5191      65642069 
 5192              	.LASF195:
 5193 08cc 6D6F7469 		.ascii	"motion_status\000"
 5193      6F6E5F73 
 5193      74617475 
 5193      7300
 5194              	.LASF50:
 5195 08da 6C656E67 		.ascii	"length\000"
 5195      746800
 5196              	.LASF191:
 5197 08e1 6D696E5F 		.ascii	"min_tension\000"
 5197      74656E73 
 5197      696F6E00 
 5198              	.LASF40:
 5199 08ed 6F6E6F66 		.ascii	"onoff\000"
 5199      6600
 5200              	.LASF231:
 5201 08f3 74696D65 		.ascii	"timer_value0\000"
 5201      725F7661 
 5201      6C756530 
 5201      00
 5202              	.LASF168:
 5203 0900 64617461 		.ascii	"data_packet_length\000"
 5203      5F706163 
 5203      6B65745F 
 5203      6C656E67 
 5203      746800
 5204              	.LASF74:
 5205 0913 6B5F705F 		.ascii	"k_p_c\000"
 5205      6300
 5206              	.LASF232:
 5207 0919 6465765F 		.ascii	"dev_tension\000"
 5207      74656E73 
 5207      696F6E00 
 5208              	.LASF85:
 5209 0925 6D6F746F 		.ascii	"motor_driver_type\000"
 5209      725F6472 
ARM GAS  C:\Users\mgnocco\AppData\Local\Temp\ccuVecaK.s 			page 113


 5209      69766572 
 5209      5F747970 
 5209      6500
 5210              	.LASF156:
 5211 0937 57414954 		.ascii	"WAIT_EoC\000"
 5211      5F456F43 
 5211      00
 5212              	.LASF22:
 5213 0940 72656738 		.ascii	"reg8\000"
 5213      00
 5214              	.LASF204:
 5215 0945 62696E5F 		.ascii	"bin_1\000"
 5215      3100
 5216              	.LASF205:
 5217 094b 62696E5F 		.ascii	"bin_2\000"
 5217      3200
 5218              	.LASF140:
 5219 0951 70726F70 		.ascii	"prop_err_fb_gain\000"
 5219      5F657272 
 5219      5F66625F 
 5219      6761696E 
 5219      00
 5220              	.LASF217:
 5221 0962 726F775F 		.ascii	"row_number\000"
 5221      6E756D62 
 5221      657200
 5222              	.LASF185:
 5223 096d 6F766572 		.ascii	"overcurrent_control\000"
 5223      63757272 
 5223      656E745F 
 5223      636F6E74 
 5223      726F6C00 
 5224              	.LASF206:
 5225 0981 63757272 		.ascii	"curr_pos\000"
 5225      5F706F73 
 5225      00
 5226              	.LASF152:
 5227 098a 52455345 		.ascii	"RESET\000"
 5227      5400
 5228              	.LASF135:
 5229 0990 736C6176 		.ascii	"slave_comm_active\000"
 5229      655F636F 
 5229      6D6D5F61 
 5229      63746976 
 5229      6500
 5230              	.LASF246:
 5231 09a2 616E616C 		.ascii	"analog_read_end\000"
 5231      6F675F72 
 5231      6561645F 
 5231      656E6400 
 5232              	.LASF72:
 5233 09b2 6465765F 		.ascii	"dev_type\000"
 5233      74797065 
 5233      00
 5234              	.LASF194:
 5235 09bb 656D675F 		.ascii	"emg_cycle_status\000"
 5235      6379636C 
ARM GAS  C:\Users\mgnocco\AppData\Local\Temp\ccuVecaK.s 			page 114


 5235      655F7374 
 5235      61747573 
 5235      00
 5236              	.LASF122:
 5237 09cc 73745F75 		.ascii	"st_user\000"
 5237      73657200 
 5238              	.LASF105:
 5239 09d4 67656172 		.ascii	"gears_params\000"
 5239      735F7061 
 5239      72616D73 
 5239      00
 5240              	.LASF116:
 5241 09e1 73745F65 		.ascii	"st_expansion\000"
 5241      7870616E 
 5241      73696F6E 
 5241      00
 5242              	.LASF110:
 5243 09ee 656D675F 		.ascii	"emg_calibration_flag\000"
 5243      63616C69 
 5243      62726174 
 5243      696F6E5F 
 5243      666C6167 
 5244              	.LASF42:
 5245 0a03 73745F6D 		.ascii	"st_meas\000"
 5245      65617300 
 5246              	.LASF219:
 5247 0a0b 61646472 		.ascii	"addr_start\000"
 5247      5F737461 
 5247      727400
 5248              	.LASF223:
 5249 0a16 70776D5F 		.ascii	"pwm_preload_values\000"
 5249      7072656C 
 5249      6F61645F 
 5249      76616C75 
 5249      657300
 5250              	.LASF132:
 5251 0a29 6A6F7973 		.ascii	"joystick_threshold\000"
 5251      7469636B 
 5251      5F746872 
 5251      6573686F 
 5251      6C6400
 5252              	.LASF32:
 5253 0a3c 494E5055 		.ascii	"INPUT_MODE_EMG_PROPORTIONAL_NC\000"
 5253      545F4D4F 
 5253      44455F45 
 5253      4D475F50 
 5253      524F504F 
 5254              	.LASF163:
 5255 0a5b 636F756E 		.ascii	"counter_status\000"
 5255      7465725F 
 5255      73746174 
 5255      757300
 5256              	.LASF11:
 5257 0a6a 75696E74 		.ascii	"uint8\000"
 5257      3800
 5258              	.LASF130:
 5259 0a70 73745F4A 		.ascii	"st_JOY_spec\000"
ARM GAS  C:\Users\mgnocco\AppData\Local\Temp\ccuVecaK.s 			page 115


 5259      4F595F73 
 5259      70656300 
 5260              	.LASF208:
 5261 0a7c 63757272 		.ascii	"curr_ref\000"
 5261      5F726566 
 5261      00
 5262              	.LASF2:
 5263 0a85 73686F72 		.ascii	"short int\000"
 5263      7420696E 
 5263      7400
 5264              	.LASF79:
 5265 0a8f 6B5F645F 		.ascii	"k_d_dl\000"
 5265      646C00
 5266              	.LASF47:
 5267 0a96 6A6F7973 		.ascii	"joystick\000"
 5267      7469636B 
 5267      00
 5268              	.LASF148:
 5269 0a9f 6D6F746F 		.ascii	"motor\000"
 5269      7200
 5270              	.LASF234:
 5271 0aa5 6465765F 		.ascii	"dev_pwm_sat\000"
 5271      70776D5F 
 5271      73617400 
 5272              	.LASF65:
 5273 0ab1 68775F6D 		.ascii	"hw_maint_date\000"
 5273      61696E74 
 5273      5F646174 
 5273      6500
 5274              	.LASF174:
 5275 0abf 66756E63 		.ascii	"function_scheduler\000"
 5275      74696F6E 
 5275      5F736368 
 5275      6564756C 
 5275      657200
 5276              	.LASF181:
 5277 0ad2 70726576 		.ascii	"prev_pwm\000"
 5277      5F70776D 
 5277      00
 5278              	.LASF66:
 5279 0adb 73746174 		.ascii	"stats_period_begin_date\000"
 5279      735F7065 
 5279      72696F64 
 5279      5F626567 
 5279      696E5F64 
 5280              	.LASF213:
 5281 0af3 74696D65 		.ascii	"timer_exc_e\000"
 5281      725F6578 
 5281      635F6500 
 5282              	.LASF224:
 5283 0aff 49544D5F 		.ascii	"ITM_RxBuffer\000"
 5283      52784275 
 5283      66666572 
 5283      00
 5284              	.LASF212:
 5285 0b0c 74696D65 		.ascii	"timer_exc_s\000"
 5285      725F6578 
ARM GAS  C:\Users\mgnocco\AppData\Local\Temp\ccuVecaK.s 			page 116


 5285      635F7300 
 5286              	.LASF15:
 5287 0b18 696E7431 		.ascii	"int16\000"
 5287      3600
 5288              	.LASF118:
 5289 0b1e 72656164 		.ascii	"read_exp_port_flag\000"
 5289      5F657870 
 5289      5F706F72 
 5289      745F666C 
 5289      616700
 5290              	.LASF199:
 5291 0b31 6578635F 		.ascii	"exc_act_thr\000"
 5291      6163745F 
 5291      74687200 
 5292              	.LASF84:
 5293 0b3d 61637469 		.ascii	"activate_pwm_rescaling\000"
 5293      76617465 
 5293      5F70776D 
 5293      5F726573 
 5293      63616C69 
 5294              	.LASF77:
 5295 0b54 6B5F705F 		.ascii	"k_p_dl\000"
 5295      646C00
 5296              	.LASF43:
 5297 0b5b 65737469 		.ascii	"estim_curr\000"
 5297      6D5F6375 
 5297      727200
 5298              	.LASF233:
 5299 0b66 6465765F 		.ascii	"dev_pwm_limit\000"
 5299      70776D5F 
 5299      6C696D69 
 5299      7400
 5300              	.LASF216:
 5301 0b74 73746174 		.ascii	"status\000"
 5301      757300
 5302              	.LASF71:
 5303 0b7b 75736572 		.ascii	"user_id\000"
 5303      5F696400 
 5304              	.LASF197:
 5305 0b83 72657374 		.ascii	"rest_cycle_status\000"
 5305      5F637963 
 5305      6C655F73 
 5305      74617475 
 5305      7300
 5306              	.LASF165:
 5307 0b95 4953525F 		.ascii	"ISR_CYCLES_Handler\000"
 5307      4359434C 
 5307      45535F48 
 5307      616E646C 
 5307      657200
 5308              	.LASF70:
 5309 0ba8 62617564 		.ascii	"baud_rate\000"
 5309      5F726174 
 5309      6500
 5310              	.LASF143:
 5311 0bb2 66617374 		.ascii	"fast_act_threshold\000"
 5311      5F616374 
ARM GAS  C:\Users\mgnocco\AppData\Local\Temp\ccuVecaK.s 			page 117


 5311      5F746872 
 5311      6573686F 
 5311      6C6400
 5312              	.LASF114:
 5313 0bc5 5350495F 		.ascii	"SPI_read_delay\000"
 5313      72656164 
 5313      5F64656C 
 5313      617900
 5314              	.LASF3:
 5315 0bd4 73686F72 		.ascii	"short unsigned int\000"
 5315      7420756E 
 5315      7369676E 
 5315      65642069 
 5315      6E7400
 5316              	.LASF98:
 5317 0be7 73745F65 		.ascii	"st_encoder\000"
 5317      6E636F64 
 5317      657200
 5318              	.LASF227:
 5319 0bf2 675F6164 		.ascii	"g_adc_meas\000"
 5319      635F6D65 
 5319      617300
 5320              	.LASF138:
 5321 0bfd 6D61785F 		.ascii	"max_residual_current\000"
 5321      72657369 
 5321      6475616C 
 5321      5F637572 
 5321      72656E74 
 5322              	.LASF145:
 5323 0c12 73745F65 		.ascii	"st_eeprom\000"
 5323      6570726F 
 5323      6D00
 5324              	.LASF244:
 5325 0c1c 2E2E5C73 		.ascii	"..\\src\\interruptions.c\000"
 5325      72635C69 
 5325      6E746572 
 5325      72757074 
 5325      696F6E73 
 5326              	.LASF16:
 5327 0c33 696E7433 		.ascii	"int32\000"
 5327      3200
 5328              	.LASF73:
 5329 0c39 73745F6D 		.ascii	"st_motor\000"
 5329      6F746F72 
 5329      00
 5330              	.LASF86:
 5331 0c42 706F735F 		.ascii	"pos_lim_flag\000"
 5331      6C696D5F 
 5331      666C6167 
 5331      00
 5332              	.LASF221:
 5333 0c4f 726F775F 		.ascii	"row_end\000"
 5333      656E6400 
 5334              	.LASF35:
 5335 0c57 434F4E54 		.ascii	"CONTROL_ANGLE\000"
 5335      524F4C5F 
 5335      414E474C 
ARM GAS  C:\Users\mgnocco\AppData\Local\Temp\ccuVecaK.s 			page 118


 5335      4500
 5336              	.LASF9:
 5337 0c65 5F5F696E 		.ascii	"__int32_t\000"
 5337      7433325F 
 5337      7400
 5338              	.LASF57:
 5339 0c6f 77697265 		.ascii	"wire_disp\000"
 5339      5F646973 
 5339      7000
 5340              	.LASF240:
 5341 0c79 63616E5F 		.ascii	"can_write\000"
 5341      77726974 
 5341      6500
 5342              	.LASF108:
 5343 0c83 656D675F 		.ascii	"emg_max_value\000"
 5343      6D61785F 
 5343      76616C75 
 5343      6500
 5344              	.LASF92:
 5345 0c91 63757272 		.ascii	"current_limit\000"
 5345      656E745F 
 5345      6C696D69 
 5345      7400
 5346              	.LASF33:
 5347 0c9f 53485F69 		.ascii	"SH_input_mode\000"
 5347      6E707574 
 5347      5F6D6F64 
 5347      6500
 5348              	.LASF162:
 5349 0cad 4E4F4E45 		.ascii	"NONE\000"
 5349      00
 5350              	.LASF142:
 5351 0cb2 61637469 		.ascii	"activation_mode\000"
 5351      76617469 
 5351      6F6E5F6D 
 5351      6F646500 
 5352              	.LASF12:
 5353 0cc2 75696E74 		.ascii	"uint16\000"
 5353      313600
 5354              	.LASF127:
 5355 0cc9 72657374 		.ascii	"rest_delay\000"
 5355      5F64656C 
 5355      617900
 5356              	.LASF82:
 5357 0cd4 6B5F645F 		.ascii	"k_d_c_dl\000"
 5357      635F646C 
 5357      00
 5358              		.ident	"GCC: (GNU Tools for ARM Embedded Processors) 5.4.1 20160609 (release) [ARM/embedded-5-bran
