ARM GAS  C:\Users\mgnocco\AppData\Local\Temp\ccuVecaK.s 			page 1


   1              		.syntax unified
   2              		.cpu cortex-m3
   3              		.fpu softvfp
   4              		.eabi_attribute 20, 1
   5              		.eabi_attribute 21, 1
   6              		.eabi_attribute 23, 3
   7              		.eabi_attribute 24, 1
   8              		.eabi_attribute 25, 1
   9              		.eabi_attribute 26, 1
  10              		.eabi_attribute 30, 6
  11              		.eabi_attribute 34, 1
  12              		.eabi_attribute 18, 4
  13              		.thumb
  14              		.syntax unified
  15              		.file	"interruptions.c"
  16              		.text
  17              	.Ltext0:
  18              		.cfi_sections	.debug_frame
  19              		.section	.rodata
  20              		.align	2
  21              		.type	pwm_preload_values, %object
  22              		.size	pwm_preload_values, 29
  23              	pwm_preload_values:
  24 0000 64       		.byte	100
  25 0001 53       		.byte	83
  26 0002 4E       		.byte	78
  27 0003 4C       		.byte	76
  28 0004 4A       		.byte	74
  29 0005 48       		.byte	72
  30 0006 46       		.byte	70
  31 0007 44       		.byte	68
  32 0008 43       		.byte	67
  33 0009 41       		.byte	65
  34 000a 40       		.byte	64
  35 000b 3F       		.byte	63
  36 000c 3E       		.byte	62
  37 000d 3D       		.byte	61
  38 000e 3C       		.byte	60
  39 000f 3B       		.byte	59
  40 0010 3A       		.byte	58
  41 0011 39       		.byte	57
  42 0012 38       		.byte	56
  43 0013 38       		.byte	56
  44 0014 37       		.byte	55
  45 0015 36       		.byte	54
  46 0016 36       		.byte	54
  47 0017 35       		.byte	53
  48 0018 34       		.byte	52
  49 0019 34       		.byte	52
  50 001a 34       		.byte	52
  51 001b 33       		.byte	51
  52 001c 33       		.byte	51
  53              		.section	.text.ISR_RS485_RX_ExInterrupt,"ax",%progbits
  54              		.align	2
  55              		.global	ISR_RS485_RX_ExInterrupt
  56              		.thumb
  57              		.thumb_func
ARM GAS  C:\Users\mgnocco\AppData\Local\Temp\ccuVecaK.s 			page 2


  58              		.type	ISR_RS485_RX_ExInterrupt, %function
  59              	ISR_RS485_RX_ExInterrupt:
  60              	.LFB64:
  61              		.file 1 "..\\src\\interruptions.c"
   1:..\src/interruptions.c **** // ----------------------------------------------------------------------------
   2:..\src/interruptions.c **** // BSD 3-Clause License
   3:..\src/interruptions.c **** 
   4:..\src/interruptions.c **** // Copyright (c) 2016, qbrobotics
   5:..\src/interruptions.c **** // Copyright (c) 2017-2020, Centro "E.Piaggio"
   6:..\src/interruptions.c **** // All rights reserved.
   7:..\src/interruptions.c **** 
   8:..\src/interruptions.c **** // Redistribution and use in source and binary forms, with or without
   9:..\src/interruptions.c **** // modification, are permitted provided that the following conditions are met:
  10:..\src/interruptions.c **** 
  11:..\src/interruptions.c **** // * Redistributions of source code must retain the above copyright notice, this
  12:..\src/interruptions.c **** //   list of conditions and the following disclaimer.
  13:..\src/interruptions.c **** 
  14:..\src/interruptions.c **** // * Redistributions in binary form must reproduce the above copyright notice,
  15:..\src/interruptions.c **** //   this list of conditions and the following disclaimer in the documentation
  16:..\src/interruptions.c **** //   and/or other materials provided with the distribution.
  17:..\src/interruptions.c **** 
  18:..\src/interruptions.c **** // * Neither the name of the copyright holder nor the names of its
  19:..\src/interruptions.c **** //   contributors may be used to endorse or promote products derived from
  20:..\src/interruptions.c **** //   this software without specific prior written permission.
  21:..\src/interruptions.c **** 
  22:..\src/interruptions.c **** // THIS SOFTWARE IS PROVIDED BY THE COPYRIGHT HOLDERS AND CONTRIBUTORS "AS IS"
  23:..\src/interruptions.c **** // AND ANY EXPRESS OR IMPLIED WARRANTIES, INCLUDING, BUT NOT LIMITED TO, THE
  24:..\src/interruptions.c **** // IMPLIED WARRANTIES OF MERCHANTABILITY AND FITNESS FOR A PARTICULAR PURPOSE ARE
  25:..\src/interruptions.c **** // DISCLAIMED. IN NO EVENT SHALL THE COPYRIGHT HOLDER OR CONTRIBUTORS BE LIABLE
  26:..\src/interruptions.c **** // FOR ANY DIRECT, INDIRECT, INCIDENTAL, SPECIAL, EXEMPLARY, OR CONSEQUENTIAL
  27:..\src/interruptions.c **** // DAMAGES (INCLUDING, BUT NOT LIMITED TO, PROCUREMENT OF SUBSTITUTE GOODS OR
  28:..\src/interruptions.c **** // SERVICES; LOSS OF USE, DATA, OR PROFITS; OR BUSINESS INTERRUPTION) HOWEVER
  29:..\src/interruptions.c **** // CAUSED AND ON ANY THEORY OF LIABILITY, WHETHER IN CONTRACT, STRICT LIABILITY,
  30:..\src/interruptions.c **** // OR TORT (INCLUDING NEGLIGENCE OR OTHERWISE) ARISING IN ANY WAY OUT OF THE USE
  31:..\src/interruptions.c **** // OF THIS SOFTWARE, EVEN IF ADVISED OF THE POSSIBILITY OF SUCH DAMAGE.
  32:..\src/interruptions.c **** // POSSIBILITY OF SUCH DAMAGE.
  33:..\src/interruptions.c **** // ----------------------------------------------------------------------------
  34:..\src/interruptions.c **** 
  35:..\src/interruptions.c **** /**
  36:..\src/interruptions.c **** * \file         interruptions.c
  37:..\src/interruptions.c **** *
  38:..\src/interruptions.c **** * \brief        Interruption handling and firmware core functions
  39:..\src/interruptions.c **** * \date         March 20th, 2020
  40:..\src/interruptions.c **** * \author       _Centro "E.Piaggio"_
  41:..\src/interruptions.c **** * \copyright    (C) 2012-2016 qbrobotics. All rights reserved.
  42:..\src/interruptions.c **** * \copyright    (C) 2017-2020 Centro "E.Piaggio". All rights reserved.
  43:..\src/interruptions.c **** */
  44:..\src/interruptions.c **** 
  45:..\src/interruptions.c **** 
  46:..\src/interruptions.c **** //=================================================================     includes
  47:..\src/interruptions.c **** #include "interruptions.h"
  48:..\src/interruptions.c **** 
  49:..\src/interruptions.c **** //==============================================================================
  50:..\src/interruptions.c **** //                                                            RS485 RX INTERRUPT
  51:..\src/interruptions.c **** //==============================================================================
  52:..\src/interruptions.c **** // Processing RS-485 data frame:
  53:..\src/interruptions.c **** //
ARM GAS  C:\Users\mgnocco\AppData\Local\Temp\ccuVecaK.s 			page 3


  54:..\src/interruptions.c **** // - 0:     Waits for beginning characters
  55:..\src/interruptions.c **** // - 1:     Waits for ID;
  56:..\src/interruptions.c **** // - 2:     Data length;
  57:..\src/interruptions.c **** // - 3:     Receive all bytes;
  58:..\src/interruptions.c **** // - 4:     Wait for another device end of transmission;
  59:..\src/interruptions.c **** //
  60:..\src/interruptions.c **** //==============================================================================
  61:..\src/interruptions.c **** 
  62:..\src/interruptions.c **** // PWM values needed to obtain 11.5 V given a certain input tension
  63:..\src/interruptions.c **** // Numbers are sperimentally calculated //[index] (millivolts)
  64:..\src/interruptions.c **** static const uint8 pwm_preload_values[29] = {100,    //0 (11500)
  65:..\src/interruptions.c ****                                               83,
  66:..\src/interruptions.c ****                                               78,
  67:..\src/interruptions.c ****                                               76,
  68:..\src/interruptions.c ****                                               74,
  69:..\src/interruptions.c ****                                               72,    //5 (14000)
  70:..\src/interruptions.c ****                                               70,
  71:..\src/interruptions.c ****                                               68,
  72:..\src/interruptions.c ****                                               67,
  73:..\src/interruptions.c ****                                               65,
  74:..\src/interruptions.c ****                                               64,    //10 (16500)
  75:..\src/interruptions.c ****                                               63,
  76:..\src/interruptions.c ****                                               62,
  77:..\src/interruptions.c ****                                               61,
  78:..\src/interruptions.c ****                                               60,
  79:..\src/interruptions.c ****                                               59,    //15 (19000)
  80:..\src/interruptions.c ****                                               58,
  81:..\src/interruptions.c ****                                               57,
  82:..\src/interruptions.c ****                                               56,
  83:..\src/interruptions.c ****                                               56,
  84:..\src/interruptions.c ****                                               55,    //20 (21500)
  85:..\src/interruptions.c ****                                               54,
  86:..\src/interruptions.c ****                                               54,
  87:..\src/interruptions.c ****                                               53,
  88:..\src/interruptions.c ****                                               52,
  89:..\src/interruptions.c ****                                               52,    //25 (24000)
  90:..\src/interruptions.c ****                                               52,
  91:..\src/interruptions.c ****                                               51,
  92:..\src/interruptions.c ****                                               51};   //28 (25500)
  93:..\src/interruptions.c **** 
  94:..\src/interruptions.c **** //==============================================================================
  95:..\src/interruptions.c **** //                                                            RS485 RX INTERRUPT
  96:..\src/interruptions.c **** //==============================================================================
  97:..\src/interruptions.c **** 
  98:..\src/interruptions.c **** CY_ISR(ISR_RS485_RX_ExInterrupt) {
  62              		.loc 1 98 0
  63              		.cfi_startproc
  64              		@ args = 0, pretend = 0, frame = 0
  65              		@ frame_needed = 1, uses_anonymous_args = 0
  66              		@ link register save eliminated.
  67 0000 80B4     		push	{r7}
  68              		.cfi_def_cfa_offset 4
  69              		.cfi_offset 7, -4
  70 0002 00AF     		add	r7, sp, #0
  71              		.cfi_def_cfa_register 7
  99:..\src/interruptions.c **** 
 100:..\src/interruptions.c ****     // Set RS485 flag
ARM GAS  C:\Users\mgnocco\AppData\Local\Temp\ccuVecaK.s 			page 4


 101:..\src/interruptions.c ****     
 102:..\src/interruptions.c ****     interrupt_flag = TRUE;
  72              		.loc 1 102 0
  73 0004 034B     		ldr	r3, .L2
  74 0006 0122     		movs	r2, #1
  75 0008 1A70     		strb	r2, [r3]
 103:..\src/interruptions.c ****      
 104:..\src/interruptions.c **** }
  76              		.loc 1 104 0
  77 000a 00BF     		nop
  78 000c BD46     		mov	sp, r7
  79              		.cfi_def_cfa_register 13
  80              		@ sp needed
  81 000e 80BC     		pop	{r7}
  82              		.cfi_restore 7
  83              		.cfi_def_cfa_offset 0
  84 0010 7047     		bx	lr
  85              	.L3:
  86 0012 00BF     		.align	2
  87              	.L2:
  88 0014 00000000 		.word	interrupt_flag
  89              		.cfi_endproc
  90              	.LFE64:
  91              		.size	ISR_RS485_RX_ExInterrupt, .-ISR_RS485_RX_ExInterrupt
  92              		.section	.text.ISR_CYCLES_Handler,"ax",%progbits
  93              		.align	2
  94              		.global	ISR_CYCLES_Handler
  95              		.thumb
  96              		.thumb_func
  97              		.type	ISR_CYCLES_Handler, %function
  98              	ISR_CYCLES_Handler:
  99              	.LFB65:
 105:..\src/interruptions.c **** 
 106:..\src/interruptions.c **** //==============================================================================
 107:..\src/interruptions.c **** //                                                        CYCLES TIMER INTERRUPT
 108:..\src/interruptions.c **** //==============================================================================
 109:..\src/interruptions.c **** CY_ISR(ISR_CYCLES_Handler){
 100              		.loc 1 109 0
 101              		.cfi_startproc
 102              		@ args = 0, pretend = 0, frame = 0
 103              		@ frame_needed = 1, uses_anonymous_args = 0
 104              		@ link register save eliminated.
 105 0000 80B4     		push	{r7}
 106              		.cfi_def_cfa_offset 4
 107              		.cfi_offset 7, -4
 108 0002 00AF     		add	r7, sp, #0
 109              		.cfi_def_cfa_register 7
 110:..\src/interruptions.c **** 
 111:..\src/interruptions.c ****     // Set cycles interrupt flag
 112:..\src/interruptions.c ****     
 113:..\src/interruptions.c ****     cycles_interrupt_flag = TRUE;
 110              		.loc 1 113 0
 111 0004 044B     		ldr	r3, .L5
 112 0006 0122     		movs	r2, #1
 113 0008 1A70     		strb	r2, [r3]
 114:..\src/interruptions.c ****     
 115:..\src/interruptions.c ****     CYCLES_TIMER_STATUS;
ARM GAS  C:\Users\mgnocco\AppData\Local\Temp\ccuVecaK.s 			page 5


 114              		.loc 1 115 0
 115 000a 044B     		ldr	r3, .L5+4
 116 000c 1B78     		ldrb	r3, [r3]
 116:..\src/interruptions.c **** 
 117:..\src/interruptions.c **** }
 117              		.loc 1 117 0
 118 000e 00BF     		nop
 119 0010 BD46     		mov	sp, r7
 120              		.cfi_def_cfa_register 13
 121              		@ sp needed
 122 0012 80BC     		pop	{r7}
 123              		.cfi_restore 7
 124              		.cfi_def_cfa_offset 0
 125 0014 7047     		bx	lr
 126              	.L6:
 127 0016 00BF     		.align	2
 128              	.L5:
 129 0018 00000000 		.word	cycles_interrupt_flag
 130 001c 034F0040 		.word	1073762051
 131              		.cfi_endproc
 132              	.LFE65:
 133              		.size	ISR_CYCLES_Handler, .-ISR_CYCLES_Handler
 134              		.section	.text.interrupt_manager,"ax",%progbits
 135              		.align	2
 136              		.global	interrupt_manager
 137              		.thumb
 138              		.thumb_func
 139              		.type	interrupt_manager, %function
 140              	interrupt_manager:
 141              	.LFB66:
 118:..\src/interruptions.c **** 
 119:..\src/interruptions.c **** //==============================================================================
 120:..\src/interruptions.c **** //                                                             INTERRUPT MANAGER
 121:..\src/interruptions.c **** //==============================================================================
 122:..\src/interruptions.c **** // Manage interrupt from RS485 
 123:..\src/interruptions.c **** //==============================================================================
 124:..\src/interruptions.c **** // Processing RS-485 data frame:
 125:..\src/interruptions.c **** //
 126:..\src/interruptions.c **** // - WAIT_START:    Waits for beginning characters;
 127:..\src/interruptions.c **** // - WAIT_ID:       Waits for ID;
 128:..\src/interruptions.c **** // - WAIT_LENGTH:   Data length;
 129:..\src/interruptions.c **** // - RECEIVE:       Receive all bytes;
 130:..\src/interruptions.c **** // - UNLOAD:        Wait for another device end of transmission;
 131:..\src/interruptions.c **** //
 132:..\src/interruptions.c **** //==============================================================================
 133:..\src/interruptions.c **** 
 134:..\src/interruptions.c **** void interrupt_manager(){
 142              		.loc 1 134 0
 143              		.cfi_startproc
 144              		@ args = 0, pretend = 0, frame = 8
 145              		@ frame_needed = 1, uses_anonymous_args = 0
 146 0000 80B5     		push	{r7, lr}
 147              		.cfi_def_cfa_offset 8
 148              		.cfi_offset 7, -8
 149              		.cfi_offset 14, -4
 150 0002 82B0     		sub	sp, sp, #8
 151              		.cfi_def_cfa_offset 16
ARM GAS  C:\Users\mgnocco\AppData\Local\Temp\ccuVecaK.s 			page 6


 152 0004 00AF     		add	r7, sp, #0
 153              		.cfi_def_cfa_register 7
 135:..\src/interruptions.c **** 
 136:..\src/interruptions.c ****     
 137:..\src/interruptions.c ****     //===========================================     local variables definition
 138:..\src/interruptions.c **** 
 139:..\src/interruptions.c ****     static uint8 CYDATA state = WAIT_START;                      // state
 140:..\src/interruptions.c ****     
 141:..\src/interruptions.c ****     //------------------------------------------------- local data packet
 142:..\src/interruptions.c ****     static uint8 CYDATA data_packet_index;
 143:..\src/interruptions.c ****     static uint8 CYDATA data_packet_length;
 144:..\src/interruptions.c ****     static uint8 data_packet_buffer[128];                     
 145:..\src/interruptions.c ****     static uint8 CYDATA rx_queue[3];                    // last 2 bytes received
 146:..\src/interruptions.c ****     //-------------------------------------------------
 147:..\src/interruptions.c **** 
 148:..\src/interruptions.c ****     uint8 CYDATA    rx_data;                            // RS485 UART rx data
 149:..\src/interruptions.c ****     CYBIT           rx_data_type = TRUE;                       // my id?
 154              		.loc 1 149 0
 155 0006 0123     		movs	r3, #1
 156 0008 FB71     		strb	r3, [r7, #7]
 150:..\src/interruptions.c ****     uint8 CYDATA    package_count = 0;                     
 157              		.loc 1 150 0
 158 000a 0023     		movs	r3, #0
 159 000c BB71     		strb	r3, [r7, #6]
 151:..\src/interruptions.c **** 
 152:..\src/interruptions.c ****     //======================================================     receive routine
 153:..\src/interruptions.c ****     
 154:..\src/interruptions.c ****     while(UART_RS485_GetRxBufferSize() && (package_count < 100)){
 160              		.loc 1 154 0
 161 000e D6E0     		b	.L8
 162              	.L28:
 155:..\src/interruptions.c ****         // 100 - estimated maximum number of packets we can read without blocking firmware executio
 156:..\src/interruptions.c **** 
 157:..\src/interruptions.c ****         // Get next char
 158:..\src/interruptions.c ****         rx_data = UART_RS485_GetChar();
 163              		.loc 1 158 0
 164 0010 FFF7FEFF 		bl	UART_RS485_GetChar
 165 0014 0346     		mov	r3, r0
 166 0016 7B71     		strb	r3, [r7, #5]
 159:..\src/interruptions.c ****         
 160:..\src/interruptions.c ****         switch (state) {
 167              		.loc 1 160 0
 168 0018 6F4B     		ldr	r3, .L31
 169 001a 1B78     		ldrb	r3, [r3]	@ zero_extendqisi2
 170 001c 042B     		cmp	r3, #4
 171 001e 00F2CE80 		bhi	.L8
 172 0022 01A2     		adr	r2, .L10
 173 0024 52F823F0 		ldr	pc, [r2, r3, lsl #2]
 174              		.p2align 2
 175              	.L10:
 176 0028 3D000000 		.word	.L9+1
 177 002c A3000000 		.word	.L11+1
 178 0030 CD000000 		.word	.L12+1
 179 0034 1B010000 		.word	.L13+1
 180 0038 85010000 		.word	.L14+1
 181              		.p2align 1
 182              	.L9:
ARM GAS  C:\Users\mgnocco\AppData\Local\Temp\ccuVecaK.s 			page 7


 161:..\src/interruptions.c ****             //-----     wait for frame start     -------------------------------
 162:..\src/interruptions.c ****             case WAIT_START:
 163:..\src/interruptions.c ****             
 164:..\src/interruptions.c ****                 rx_queue[0] = rx_queue[1];
 183              		.loc 1 164 0
 184 003c 674B     		ldr	r3, .L31+4
 185 003e 5A78     		ldrb	r2, [r3, #1]	@ zero_extendqisi2
 186 0040 664B     		ldr	r3, .L31+4
 187 0042 1A70     		strb	r2, [r3]
 165:..\src/interruptions.c ****                 rx_queue[1] = rx_queue[2];
 188              		.loc 1 165 0
 189 0044 654B     		ldr	r3, .L31+4
 190 0046 9A78     		ldrb	r2, [r3, #2]	@ zero_extendqisi2
 191 0048 644B     		ldr	r3, .L31+4
 192 004a 5A70     		strb	r2, [r3, #1]
 166:..\src/interruptions.c ****                 rx_queue[2] = rx_data;
 193              		.loc 1 166 0
 194 004c 634A     		ldr	r2, .L31+4
 195 004e 7B79     		ldrb	r3, [r7, #5]
 196 0050 9370     		strb	r3, [r2, #2]
 167:..\src/interruptions.c ****                 
 168:..\src/interruptions.c ****                 // Check for header configuration package
 169:..\src/interruptions.c ****                 if ((rx_queue[1] == 58) && (rx_queue[2] == 58)) {
 197              		.loc 1 169 0
 198 0052 624B     		ldr	r3, .L31+4
 199 0054 5B78     		ldrb	r3, [r3, #1]	@ zero_extendqisi2
 200 0056 3A2B     		cmp	r3, #58
 201 0058 10D1     		bne	.L15
 202              		.loc 1 169 0 is_stmt 0 discriminator 1
 203 005a 604B     		ldr	r3, .L31+4
 204 005c 9B78     		ldrb	r3, [r3, #2]	@ zero_extendqisi2
 205 005e 3A2B     		cmp	r3, #58
 206 0060 0CD1     		bne	.L15
 170:..\src/interruptions.c ****                     rx_queue[0] = 0;
 207              		.loc 1 170 0 is_stmt 1
 208 0062 5E4B     		ldr	r3, .L31+4
 209 0064 0022     		movs	r2, #0
 210 0066 1A70     		strb	r2, [r3]
 171:..\src/interruptions.c ****                     rx_queue[1] = 0;
 211              		.loc 1 171 0
 212 0068 5C4B     		ldr	r3, .L31+4
 213 006a 0022     		movs	r2, #0
 214 006c 5A70     		strb	r2, [r3, #1]
 172:..\src/interruptions.c ****                     rx_queue[2] = 0;
 215              		.loc 1 172 0
 216 006e 5B4B     		ldr	r3, .L31+4
 217 0070 0022     		movs	r2, #0
 218 0072 9A70     		strb	r2, [r3, #2]
 173:..\src/interruptions.c ****                     state       = WAIT_ID;                    
 219              		.loc 1 173 0
 220 0074 584B     		ldr	r3, .L31
 221 0076 0122     		movs	r2, #1
 222 0078 1A70     		strb	r2, [r3]
 223 007a 11E0     		b	.L16
 224              	.L15:
 174:..\src/interruptions.c ****                 }else
 175:..\src/interruptions.c ****                     if ((rx_queue[0] == 63) &&      //ASCII - ?
ARM GAS  C:\Users\mgnocco\AppData\Local\Temp\ccuVecaK.s 			page 8


 225              		.loc 1 175 0
 226 007c 574B     		ldr	r3, .L31+4
 227 007e 1B78     		ldrb	r3, [r3]	@ zero_extendqisi2
 228 0080 3F2B     		cmp	r3, #63
 229 0082 40F09C80 		bne	.L8
 176:..\src/interruptions.c ****                         (rx_queue[1] == 13) &&      //ASCII - CR
 230              		.loc 1 176 0 discriminator 1
 231 0086 554B     		ldr	r3, .L31+4
 232 0088 5B78     		ldrb	r3, [r3, #1]	@ zero_extendqisi2
 175:..\src/interruptions.c ****                         (rx_queue[1] == 13) &&      //ASCII - CR
 233              		.loc 1 175 0 discriminator 1
 234 008a 0D2B     		cmp	r3, #13
 235 008c 40F09780 		bne	.L8
 177:..\src/interruptions.c ****                         (rx_queue[2] == 10))        //ASCII - LF)
 236              		.loc 1 177 0
 237 0090 524B     		ldr	r3, .L31+4
 238 0092 9B78     		ldrb	r3, [r3, #2]	@ zero_extendqisi2
 176:..\src/interruptions.c ****                         (rx_queue[1] == 13) &&      //ASCII - CR
 239              		.loc 1 176 0
 240 0094 0A2B     		cmp	r3, #10
 241 0096 40F09280 		bne	.L8
 178:..\src/interruptions.c ****                         infoGet(INFO_ALL);
 242              		.loc 1 178 0
 243 009a 0020     		movs	r0, #0
 244 009c FFF7FEFF 		bl	infoGet
 245              	.L16:
 179:..\src/interruptions.c ****                 break;
 246              		.loc 1 179 0
 247 00a0 8DE0     		b	.L8
 248              	.L11:
 180:..\src/interruptions.c **** 
 181:..\src/interruptions.c ****             //-----     wait for id     ----------------------------------------
 182:..\src/interruptions.c ****             case  WAIT_ID:
 183:..\src/interruptions.c **** 
 184:..\src/interruptions.c ****                 // packet is for my ID or is broadcast
 185:..\src/interruptions.c **** #ifdef MASTER_FW
 186:..\src/interruptions.c ****                 if (rx_data == c_mem.dev.id || rx_data == 0 || (c_mem.MS.slave_comm_active && rx_da
 187:..\src/interruptions.c ****                    rx_data_type = FALSE;
 188:..\src/interruptions.c ****                 else                //packet is for others
 189:..\src/interruptions.c ****                     rx_data_type = TRUE;
 190:..\src/interruptions.c **** #else
 191:..\src/interruptions.c ****                 if (rx_data == c_mem.dev.id || rx_data == 0)
 249              		.loc 1 191 0
 250 00a2 4F4B     		ldr	r3, .L31+8
 251 00a4 93F8A030 		ldrb	r3, [r3, #160]	@ zero_extendqisi2
 252 00a8 7A79     		ldrb	r2, [r7, #5]	@ zero_extendqisi2
 253 00aa 9A42     		cmp	r2, r3
 254 00ac 02D0     		beq	.L17
 255              		.loc 1 191 0 is_stmt 0 discriminator 1
 256 00ae 7B79     		ldrb	r3, [r7, #5]	@ zero_extendqisi2
 257 00b0 002B     		cmp	r3, #0
 258 00b2 02D1     		bne	.L18
 259              	.L17:
 192:..\src/interruptions.c ****                     rx_data_type = FALSE;
 260              		.loc 1 192 0 is_stmt 1
 261 00b4 0023     		movs	r3, #0
 262 00b6 FB71     		strb	r3, [r7, #7]
ARM GAS  C:\Users\mgnocco\AppData\Local\Temp\ccuVecaK.s 			page 9


 263 00b8 01E0     		b	.L19
 264              	.L18:
 193:..\src/interruptions.c ****                 else                //packet is for others
 194:..\src/interruptions.c ****                     rx_data_type = TRUE;
 265              		.loc 1 194 0
 266 00ba 0123     		movs	r3, #1
 267 00bc FB71     		strb	r3, [r7, #7]
 268              	.L19:
 195:..\src/interruptions.c **** #endif                
 196:..\src/interruptions.c ****                 data_packet_length = 0;
 269              		.loc 1 196 0
 270 00be 494B     		ldr	r3, .L31+12
 271 00c0 0022     		movs	r2, #0
 272 00c2 1A70     		strb	r2, [r3]
 197:..\src/interruptions.c ****                 state = WAIT_LENGTH;
 273              		.loc 1 197 0
 274 00c4 444B     		ldr	r3, .L31
 275 00c6 0222     		movs	r2, #2
 276 00c8 1A70     		strb	r2, [r3]
 198:..\src/interruptions.c ****                 break;
 277              		.loc 1 198 0
 278 00ca 78E0     		b	.L8
 279              	.L12:
 199:..\src/interruptions.c **** 
 200:..\src/interruptions.c ****             //-----     wait for length     ------------------------------------
 201:..\src/interruptions.c ****             case  WAIT_LENGTH:
 202:..\src/interruptions.c **** 
 203:..\src/interruptions.c ****                 data_packet_length = rx_data;
 280              		.loc 1 203 0
 281 00cc 454A     		ldr	r2, .L31+12
 282 00ce 7B79     		ldrb	r3, [r7, #5]
 283 00d0 1370     		strb	r3, [r2]
 204:..\src/interruptions.c ****                 // check validity of pack length
 205:..\src/interruptions.c ****                 if (data_packet_length <= 1) {
 284              		.loc 1 205 0
 285 00d2 444B     		ldr	r3, .L31+12
 286 00d4 1B78     		ldrb	r3, [r3]	@ zero_extendqisi2
 287 00d6 012B     		cmp	r3, #1
 288 00d8 06D8     		bhi	.L20
 206:..\src/interruptions.c ****                     data_packet_length = 0;
 289              		.loc 1 206 0
 290 00da 424B     		ldr	r3, .L31+12
 291 00dc 0022     		movs	r2, #0
 292 00de 1A70     		strb	r2, [r3]
 207:..\src/interruptions.c ****                     state = WAIT_START;
 293              		.loc 1 207 0
 294 00e0 3D4B     		ldr	r3, .L31
 295 00e2 0022     		movs	r2, #0
 296 00e4 1A70     		strb	r2, [r3]
 297 00e6 6AE0     		b	.L8
 298              	.L20:
 208:..\src/interruptions.c ****                 } else if (data_packet_length > 128) {
 299              		.loc 1 208 0
 300 00e8 3E4B     		ldr	r3, .L31+12
 301 00ea 1B78     		ldrb	r3, [r3]	@ zero_extendqisi2
 302 00ec 802B     		cmp	r3, #128
 303 00ee 06D9     		bls	.L22
ARM GAS  C:\Users\mgnocco\AppData\Local\Temp\ccuVecaK.s 			page 10


 209:..\src/interruptions.c ****                     data_packet_length = 0;
 304              		.loc 1 209 0
 305 00f0 3C4B     		ldr	r3, .L31+12
 306 00f2 0022     		movs	r2, #0
 307 00f4 1A70     		strb	r2, [r3]
 210:..\src/interruptions.c ****                     state = WAIT_START;
 308              		.loc 1 210 0
 309 00f6 384B     		ldr	r3, .L31
 310 00f8 0022     		movs	r2, #0
 311 00fa 1A70     		strb	r2, [r3]
 312 00fc 5FE0     		b	.L8
 313              	.L22:
 211:..\src/interruptions.c ****                 } else {
 212:..\src/interruptions.c ****                     data_packet_index = 0;
 314              		.loc 1 212 0
 315 00fe 3A4B     		ldr	r3, .L31+16
 316 0100 0022     		movs	r2, #0
 317 0102 1A70     		strb	r2, [r3]
 213:..\src/interruptions.c ****                     
 214:..\src/interruptions.c ****                     if(rx_data_type == FALSE)
 318              		.loc 1 214 0
 319 0104 FB79     		ldrb	r3, [r7, #7]	@ zero_extendqisi2
 320 0106 002B     		cmp	r3, #0
 321 0108 03D1     		bne	.L23
 215:..\src/interruptions.c ****                         state = RECEIVE;          // packet for me or broadcast
 322              		.loc 1 215 0
 323 010a 334B     		ldr	r3, .L31
 324 010c 0322     		movs	r2, #3
 325 010e 1A70     		strb	r2, [r3]
 326 0110 55E0     		b	.L8
 327              	.L23:
 216:..\src/interruptions.c ****                     else
 217:..\src/interruptions.c ****                         state = UNLOAD;           // packet for others
 328              		.loc 1 217 0
 329 0112 314B     		ldr	r3, .L31
 330 0114 0422     		movs	r2, #4
 331 0116 1A70     		strb	r2, [r3]
 218:..\src/interruptions.c ****                 }
 219:..\src/interruptions.c ****                 break;
 332              		.loc 1 219 0
 333 0118 51E0     		b	.L8
 334              	.L13:
 220:..\src/interruptions.c **** 
 221:..\src/interruptions.c ****             //-----     receiving     -------------------------------------------
 222:..\src/interruptions.c ****             case RECEIVE:
 223:..\src/interruptions.c **** 
 224:..\src/interruptions.c ****                 data_packet_buffer[data_packet_index] = rx_data;
 335              		.loc 1 224 0
 336 011a 334B     		ldr	r3, .L31+16
 337 011c 1B78     		ldrb	r3, [r3]	@ zero_extendqisi2
 338 011e 1946     		mov	r1, r3
 339 0120 324A     		ldr	r2, .L31+20
 340 0122 7B79     		ldrb	r3, [r7, #5]
 341 0124 5354     		strb	r3, [r2, r1]
 225:..\src/interruptions.c ****                 data_packet_index++;
 342              		.loc 1 225 0
 343 0126 304B     		ldr	r3, .L31+16
ARM GAS  C:\Users\mgnocco\AppData\Local\Temp\ccuVecaK.s 			page 11


 344 0128 1B78     		ldrb	r3, [r3]	@ zero_extendqisi2
 345 012a 0133     		adds	r3, r3, #1
 346 012c DAB2     		uxtb	r2, r3
 347 012e 2E4B     		ldr	r3, .L31+16
 348 0130 1A70     		strb	r2, [r3]
 226:..\src/interruptions.c ****                 
 227:..\src/interruptions.c ****                 // check end of transmission
 228:..\src/interruptions.c ****                 if (data_packet_index >= data_packet_length) {
 349              		.loc 1 228 0
 350 0132 2D4B     		ldr	r3, .L31+16
 351 0134 1A78     		ldrb	r2, [r3]	@ zero_extendqisi2
 352 0136 2B4B     		ldr	r3, .L31+12
 353 0138 1B78     		ldrb	r3, [r3]	@ zero_extendqisi2
 354 013a 9A42     		cmp	r2, r3
 355 013c 3FD3     		bcc	.L8
 229:..\src/interruptions.c ****                     // verify if frame ID corresponded to the device ID
 230:..\src/interruptions.c ****                     if (rx_data_type == FALSE) {
 356              		.loc 1 230 0
 357 013e FB79     		ldrb	r3, [r7, #7]	@ zero_extendqisi2
 358 0140 002B     		cmp	r3, #0
 359 0142 12D1     		bne	.L25
 231:..\src/interruptions.c ****                         // copying data from buffer to global packet
 232:..\src/interruptions.c ****                         memcpy(g_rx.buffer, data_packet_buffer, data_packet_length);
 360              		.loc 1 232 0
 361 0144 274B     		ldr	r3, .L31+12
 362 0146 1B78     		ldrb	r3, [r3]	@ zero_extendqisi2
 363 0148 1A46     		mov	r2, r3
 364 014a 2849     		ldr	r1, .L31+20
 365 014c 2848     		ldr	r0, .L31+24
 366 014e FFF7FEFF 		bl	memcpy
 233:..\src/interruptions.c ****                         g_rx.length = data_packet_length;
 367              		.loc 1 233 0
 368 0152 244B     		ldr	r3, .L31+12
 369 0154 1B78     		ldrb	r3, [r3]	@ zero_extendqisi2
 370 0156 1AB2     		sxth	r2, r3
 371 0158 254B     		ldr	r3, .L31+24
 372 015a A3F88020 		strh	r2, [r3, #128]	@ movhi
 234:..\src/interruptions.c ****                         g_rx.ready  = 1;
 373              		.loc 1 234 0
 374 015e 244B     		ldr	r3, .L31+24
 375 0160 0122     		movs	r2, #1
 376 0162 83F88420 		strb	r2, [r3, #132]
 235:..\src/interruptions.c ****                         commProcess();
 377              		.loc 1 235 0
 378 0166 FFF7FEFF 		bl	commProcess
 379              	.L25:
 236:..\src/interruptions.c ****                     }
 237:..\src/interruptions.c ****                     
 238:..\src/interruptions.c ****                     data_packet_index  = 0;
 380              		.loc 1 238 0
 381 016a 1F4B     		ldr	r3, .L31+16
 382 016c 0022     		movs	r2, #0
 383 016e 1A70     		strb	r2, [r3]
 239:..\src/interruptions.c ****                     data_packet_length = 0;
 384              		.loc 1 239 0
 385 0170 1C4B     		ldr	r3, .L31+12
 386 0172 0022     		movs	r2, #0
ARM GAS  C:\Users\mgnocco\AppData\Local\Temp\ccuVecaK.s 			page 12


 387 0174 1A70     		strb	r2, [r3]
 240:..\src/interruptions.c ****                     state              = WAIT_START;
 388              		.loc 1 240 0
 389 0176 184B     		ldr	r3, .L31
 390 0178 0022     		movs	r2, #0
 391 017a 1A70     		strb	r2, [r3]
 241:..\src/interruptions.c ****                     package_count++;
 392              		.loc 1 241 0
 393 017c BB79     		ldrb	r3, [r7, #6]	@ zero_extendqisi2
 394 017e 0133     		adds	r3, r3, #1
 395 0180 BB71     		strb	r3, [r7, #6]
 242:..\src/interruptions.c ****                 
 243:..\src/interruptions.c ****                 }
 244:..\src/interruptions.c ****                 break;
 396              		.loc 1 244 0
 397 0182 1CE0     		b	.L8
 398              	.L14:
 245:..\src/interruptions.c **** 
 246:..\src/interruptions.c ****             //-----     other device is receving     ---------------------------
 247:..\src/interruptions.c ****             case UNLOAD:
 248:..\src/interruptions.c ****                 if (!(--data_packet_length)) {
 399              		.loc 1 248 0
 400 0184 174B     		ldr	r3, .L31+12
 401 0186 1B78     		ldrb	r3, [r3]	@ zero_extendqisi2
 402 0188 013B     		subs	r3, r3, #1
 403 018a DAB2     		uxtb	r2, r3
 404 018c 154B     		ldr	r3, .L31+12
 405 018e 1A70     		strb	r2, [r3]
 406 0190 144B     		ldr	r3, .L31+12
 407 0192 1B78     		ldrb	r3, [r3]	@ zero_extendqisi2
 408 0194 002B     		cmp	r3, #0
 409 0196 11D1     		bne	.L30
 249:..\src/interruptions.c ****                     data_packet_index  = 0;
 410              		.loc 1 249 0
 411 0198 134B     		ldr	r3, .L31+16
 412 019a 0022     		movs	r2, #0
 413 019c 1A70     		strb	r2, [r3]
 250:..\src/interruptions.c ****                     data_packet_length = 0;
 414              		.loc 1 250 0
 415 019e 114B     		ldr	r3, .L31+12
 416 01a0 0022     		movs	r2, #0
 417 01a2 1A70     		strb	r2, [r3]
 251:..\src/interruptions.c ****                     RS485_CTS_Write(1);
 418              		.loc 1 251 0
 419 01a4 0120     		movs	r0, #1
 420 01a6 FFF7FEFF 		bl	RS485_CTS_Write
 252:..\src/interruptions.c ****                     RS485_CTS_Write(0);
 421              		.loc 1 252 0
 422 01aa 0020     		movs	r0, #0
 423 01ac FFF7FEFF 		bl	RS485_CTS_Write
 253:..\src/interruptions.c ****                     state              = WAIT_START;
 424              		.loc 1 253 0
 425 01b0 094B     		ldr	r3, .L31
 426 01b2 0022     		movs	r2, #0
 427 01b4 1A70     		strb	r2, [r3]
 254:..\src/interruptions.c ****                     package_count++;
 428              		.loc 1 254 0
ARM GAS  C:\Users\mgnocco\AppData\Local\Temp\ccuVecaK.s 			page 13


 429 01b6 BB79     		ldrb	r3, [r7, #6]	@ zero_extendqisi2
 430 01b8 0133     		adds	r3, r3, #1
 431 01ba BB71     		strb	r3, [r7, #6]
 432              	.L30:
 255:..\src/interruptions.c ****                 }
 256:..\src/interruptions.c ****                 break;
 433              		.loc 1 256 0
 434 01bc 00BF     		nop
 435              	.L8:
 154:..\src/interruptions.c ****         // 100 - estimated maximum number of packets we can read without blocking firmware executio
 436              		.loc 1 154 0
 437 01be FFF7FEFF 		bl	UART_RS485_GetRxBufferSize
 438 01c2 0346     		mov	r3, r0
 439 01c4 002B     		cmp	r3, #0
 440 01c6 03D0     		beq	.L29
 154:..\src/interruptions.c ****         // 100 - estimated maximum number of packets we can read without blocking firmware executio
 441              		.loc 1 154 0 is_stmt 0 discriminator 1
 442 01c8 BB79     		ldrb	r3, [r7, #6]	@ zero_extendqisi2
 443 01ca 632B     		cmp	r3, #99
 444 01cc 7FF620AF 		bls	.L28
 445              	.L29:
 257:..\src/interruptions.c ****         }
 258:..\src/interruptions.c ****     }
 259:..\src/interruptions.c **** }
 446              		.loc 1 259 0 is_stmt 1
 447 01d0 00BF     		nop
 448 01d2 0837     		adds	r7, r7, #8
 449              		.cfi_def_cfa_offset 8
 450 01d4 BD46     		mov	sp, r7
 451              		.cfi_def_cfa_register 13
 452              		@ sp needed
 453 01d6 80BD     		pop	{r7, pc}
 454              	.L32:
 455              		.align	2
 456              	.L31:
 457 01d8 00000000 		.word	state.9705
 458 01dc 04000000 		.word	rx_queue.9709
 459 01e0 00000000 		.word	c_mem
 460 01e4 07000000 		.word	data_packet_length.9707
 461 01e8 08000000 		.word	data_packet_index.9706
 462 01ec 0C000000 		.word	data_packet_buffer.9708
 463 01f0 00000000 		.word	g_rx
 464              		.cfi_endproc
 465              	.LFE66:
 466              		.size	interrupt_manager, .-interrupt_manager
 467              		.section	.text.function_scheduler,"ax",%progbits
 468              		.align	2
 469              		.global	function_scheduler
 470              		.thumb
 471              		.thumb_func
 472              		.type	function_scheduler, %function
 473              	function_scheduler:
 474              	.LFB67:
 260:..\src/interruptions.c **** //==============================================================================
 261:..\src/interruptions.c **** //                                                            FUNCTION SCHEDULER
 262:..\src/interruptions.c **** //==============================================================================
 263:..\src/interruptions.c **** // Call all the function with the right frequency
ARM GAS  C:\Users\mgnocco\AppData\Local\Temp\ccuVecaK.s 			page 14


 264:..\src/interruptions.c **** //==============================================================================
 265:..\src/interruptions.c **** // Base frequency 5000 Hz (110 us - max. 200 us cycle time)
 266:..\src/interruptions.c **** //==============================================================================
 267:..\src/interruptions.c **** 
 268:..\src/interruptions.c **** void function_scheduler(void) {
 475              		.loc 1 268 0
 476              		.cfi_startproc
 477              		@ args = 0, pretend = 0, frame = 0
 478              		@ frame_needed = 1, uses_anonymous_args = 0
 479 0000 80B5     		push	{r7, lr}
 480              		.cfi_def_cfa_offset 8
 481              		.cfi_offset 7, -8
 482              		.cfi_offset 14, -4
 483 0002 00AF     		add	r7, sp, #0
 484              		.cfi_def_cfa_register 7
 269:..\src/interruptions.c ****  
 270:..\src/interruptions.c **** 
 271:..\src/interruptions.c ****     MY_TIMER_REG_Write(0x00);
 485              		.loc 1 271 0
 486 0004 0020     		movs	r0, #0
 487 0006 FFF7FEFF 		bl	MY_TIMER_REG_Write
 272:..\src/interruptions.c ****     timer_value0 = (uint32)MY_TIMER_ReadCounter();
 488              		.loc 1 272 0
 489 000a FFF7FEFF 		bl	MY_TIMER_ReadCounter
 490 000e 0346     		mov	r3, r0
 491 0010 1A46     		mov	r2, r3
 492 0012 064B     		ldr	r3, .L36
 493 0014 1A80     		strh	r2, [r3]	@ movhi
 273:..\src/interruptions.c ****         
 274:..\src/interruptions.c ****     if (interrupt_flag){
 494              		.loc 1 274 0
 495 0016 064B     		ldr	r3, .L36+4
 496 0018 1B78     		ldrb	r3, [r3]	@ zero_extendqisi2
 497 001a 002B     		cmp	r3, #0
 498 001c 04D0     		beq	.L35
 275:..\src/interruptions.c ****         interrupt_flag = FALSE;
 499              		.loc 1 275 0
 500 001e 044B     		ldr	r3, .L36+4
 501 0020 0022     		movs	r2, #0
 502 0022 1A70     		strb	r2, [r3]
 276:..\src/interruptions.c ****         interrupt_manager();
 503              		.loc 1 276 0
 504 0024 FFF7FEFF 		bl	interrupt_manager
 505              	.L35:
 277:..\src/interruptions.c ****     }
 278:..\src/interruptions.c ****          
 279:..\src/interruptions.c ****     }
 506              		.loc 1 279 0
 507 0028 00BF     		nop
 508 002a 80BD     		pop	{r7, pc}
 509              	.L37:
 510              		.align	2
 511              	.L36:
 512 002c 00000000 		.word	timer_value0
 513 0030 00000000 		.word	interrupt_flag
 514              		.cfi_endproc
 515              	.LFE67:
ARM GAS  C:\Users\mgnocco\AppData\Local\Temp\ccuVecaK.s 			page 15


 516              		.size	function_scheduler, .-function_scheduler
 517              		.section	.text.motor_control_SH,"ax",%progbits
 518              		.align	2
 519              		.global	motor_control_SH
 520              		.thumb
 521              		.thumb_func
 522              		.type	motor_control_SH, %function
 523              	motor_control_SH:
 524              	.LFB68:
 280:..\src/interruptions.c ****     
 281:..\src/interruptions.c ****      
 282:..\src/interruptions.c ****    
 283:..\src/interruptions.c **** 
 284:..\src/interruptions.c **** void motor_control_SH() {
 525              		.loc 1 284 0
 526              		.cfi_startproc
 527              		@ args = 0, pretend = 0, frame = 16
 528              		@ frame_needed = 1, uses_anonymous_args = 0
 529 0000 80B5     		push	{r7, lr}
 530              		.cfi_def_cfa_offset 8
 531              		.cfi_offset 7, -8
 532              		.cfi_offset 14, -4
 533 0002 84B0     		sub	sp, sp, #16
 534              		.cfi_def_cfa_offset 24
 535 0004 00AF     		add	r7, sp, #0
 536              		.cfi_def_cfa_register 7
 285:..\src/interruptions.c **** 
 286:..\src/interruptions.c ****     int32 CYDATA pwm_input = 0;
 537              		.loc 1 286 0
 538 0006 0023     		movs	r3, #0
 539 0008 FB60     		str	r3, [r7, #12]
 287:..\src/interruptions.c ****     
 288:..\src/interruptions.c ****     uint8 MOTOR_IDX = 0;
 540              		.loc 1 288 0
 541 000a 0023     		movs	r3, #0
 542 000c FB72     		strb	r3, [r7, #11]
 289:..\src/interruptions.c ****     
 290:..\src/interruptions.c ****     struct st_motor* SH_MOT = &c_mem.motor[MOTOR_IDX];      // SoftHand default motor
 543              		.loc 1 290 0
 544 000e FA7A     		ldrb	r2, [r7, #11]	@ zero_extendqisi2
 545 0010 1346     		mov	r3, r2
 546 0012 DB00     		lsls	r3, r3, #3
 547 0014 9B1A     		subs	r3, r3, r2
 548 0016 1B01     		lsls	r3, r3, #4
 549 0018 B033     		adds	r3, r3, #176
 550 001a 374A     		ldr	r2, .L54
 551 001c 1344     		add	r3, r3, r2
 552 001e 7B60     		str	r3, [r7, #4]
 291:..\src/interruptions.c ****     uint8 SH_ENC_L = SH_MOT->encoder_line;          // Associated encoder line
 553              		.loc 1 291 0
 554 0020 7B68     		ldr	r3, [r7, #4]
 555 0022 93F86030 		ldrb	r3, [r3, #96]
 556 0026 FB70     		strb	r3, [r7, #3]
 292:..\src/interruptions.c ****     
 293:..\src/interruptions.c ****     
 294:..\src/interruptions.c **** 
 295:..\src/interruptions.c ****     // Static Variables
ARM GAS  C:\Users\mgnocco\AppData\Local\Temp\ccuVecaK.s 			page 16


 296:..\src/interruptions.c ****     static int32 prev_pwm;
 297:..\src/interruptions.c **** 
 298:..\src/interruptions.c ****    
 299:..\src/interruptions.c ****     static uint32 position_counter = 0;
 300:..\src/interruptions.c ****   
 301:..\src/interruptions.c ****     // ======================= UPDATE MOTOR REFERENCE ==========================            
 302:..\src/interruptions.c ****    
 303:..\src/interruptions.c ****      
 304:..\src/interruptions.c ****     switch(SH_MOT->control_mode) {
 557              		.loc 1 304 0
 558 0028 7B68     		ldr	r3, [r7, #4]
 559 002a 93F85F30 		ldrb	r3, [r3, #95]	@ zero_extendqisi2
 560 002e 032B     		cmp	r3, #3
 561 0030 1BD8     		bhi	.L39
 562 0032 01A2     		adr	r2, .L41
 563 0034 52F823F0 		ldr	pc, [r2, r3, lsl #2]
 564              		.p2align 2
 565              	.L41:
 566 0038 6B000000 		.word	.L39+1
 567 003c 49000000 		.word	.L42+1
 568 0040 6B000000 		.word	.L39+1
 569 0044 6B000000 		.word	.L39+1
 570              		.p2align 1
 571              	.L42:
 305:..\src/interruptions.c ****         // ======================= CURRENT AND POSITION CONTROL =======================
 306:..\src/interruptions.c ****         case CURR_AND_POS_CONTROL:
 307:..\src/interruptions.c ****         break;
 308:..\src/interruptions.c **** 
 309:..\src/interruptions.c ****         // ============================== POSITION CONTROL =====================
 310:..\src/interruptions.c ****         case CONTROL_ANGLE:
 311:..\src/interruptions.c ****         break;
 312:..\src/interruptions.c **** 
 313:..\src/interruptions.c ****         // ========================== CURRENT CONTROL ==========================
 314:..\src/interruptions.c ****         case CONTROL_CURRENT:
 315:..\src/interruptions.c ****         break;
 316:..\src/interruptions.c ****         
 317:..\src/interruptions.c ****         // ================= DIRECT PWM CONTROL ================================
 318:..\src/interruptions.c ****         case CONTROL_PWM:
 319:..\src/interruptions.c **** 
 320:..\src/interruptions.c ****             pwm_input = g_ref[0].pwm;
 572              		.loc 1 320 0
 573 0048 2C4B     		ldr	r3, .L54+4
 574 004a 9B68     		ldr	r3, [r3, #8]
 575 004c FB60     		str	r3, [r7, #12]
 321:..\src/interruptions.c **** 
 322:..\src/interruptions.c ****          
 323:..\src/interruptions.c **** 
 324:..\src/interruptions.c ****             // pwm_input saturation
 325:..\src/interruptions.c ****             if (pwm_input < -PWM_MAX_VALUE_DC) 
 576              		.loc 1 325 0
 577 004e FB68     		ldr	r3, [r7, #12]
 578 0050 13F1640F 		cmn	r3, #100
 579 0054 03DA     		bge	.L45
 326:..\src/interruptions.c ****                 pwm_input = -PWM_MAX_VALUE_DC;
 580              		.loc 1 326 0
 581 0056 6FF06303 		mvn	r3, #99
 582 005a FB60     		str	r3, [r7, #12]
ARM GAS  C:\Users\mgnocco\AppData\Local\Temp\ccuVecaK.s 			page 17


 327:..\src/interruptions.c ****             else {
 328:..\src/interruptions.c **** 				if (pwm_input > PWM_MAX_VALUE_DC) 
 329:..\src/interruptions.c ****                 	pwm_input = PWM_MAX_VALUE_DC;
 330:..\src/interruptions.c ****         	}
 331:..\src/interruptions.c **** 
 332:..\src/interruptions.c ****         break;
 583              		.loc 1 332 0
 584 005c 04E0     		b	.L53
 585              	.L45:
 328:..\src/interruptions.c ****                 	pwm_input = PWM_MAX_VALUE_DC;
 586              		.loc 1 328 0
 587 005e FB68     		ldr	r3, [r7, #12]
 588 0060 642B     		cmp	r3, #100
 589 0062 01DD     		ble	.L53
 329:..\src/interruptions.c ****         	}
 590              		.loc 1 329 0
 591 0064 6423     		movs	r3, #100
 592 0066 FB60     		str	r3, [r7, #12]
 593              	.L53:
 594              		.loc 1 332 0
 595 0068 00BF     		nop
 596              	.L39:
 333:..\src/interruptions.c ****             
 334:..\src/interruptions.c ****     }
 335:..\src/interruptions.c **** 
 336:..\src/interruptions.c ****     ////////////////////////////////////////////////////////////////////////////
 337:..\src/interruptions.c **** 
 338:..\src/interruptions.c **** 
 339:..\src/interruptions.c ****    
 340:..\src/interruptions.c ****     //// RATE LIMITER ////
 341:..\src/interruptions.c ****     if((pwm_input-prev_pwm) > SH_MOT->pwm_rate_limiter){
 597              		.loc 1 341 0
 598 006a 254B     		ldr	r3, .L54+8
 599 006c 1B68     		ldr	r3, [r3]
 600 006e FA68     		ldr	r2, [r7, #12]
 601 0070 D31A     		subs	r3, r2, r3
 602 0072 7A68     		ldr	r2, [r7, #4]
 603 0074 92F86120 		ldrb	r2, [r2, #97]	@ zero_extendqisi2
 604 0078 9342     		cmp	r3, r2
 605 007a 08DD     		ble	.L47
 342:..\src/interruptions.c ****         pwm_input =  prev_pwm + SH_MOT->pwm_rate_limiter;
 606              		.loc 1 342 0
 607 007c 7B68     		ldr	r3, [r7, #4]
 608 007e 93F86130 		ldrb	r3, [r3, #97]	@ zero_extendqisi2
 609 0082 1A46     		mov	r2, r3
 610 0084 1E4B     		ldr	r3, .L54+8
 611 0086 1B68     		ldr	r3, [r3]
 612 0088 1344     		add	r3, r3, r2
 613 008a FB60     		str	r3, [r7, #12]
 614 008c 10E0     		b	.L48
 615              	.L47:
 343:..\src/interruptions.c ****     }
 344:..\src/interruptions.c ****     else {
 345:..\src/interruptions.c ****         if((pwm_input-prev_pwm) < -SH_MOT->pwm_rate_limiter)
 616              		.loc 1 345 0
 617 008e 1C4B     		ldr	r3, .L54+8
 618 0090 1B68     		ldr	r3, [r3]
ARM GAS  C:\Users\mgnocco\AppData\Local\Temp\ccuVecaK.s 			page 18


 619 0092 FA68     		ldr	r2, [r7, #12]
 620 0094 D21A     		subs	r2, r2, r3
 621 0096 7B68     		ldr	r3, [r7, #4]
 622 0098 93F86130 		ldrb	r3, [r3, #97]	@ zero_extendqisi2
 623 009c 5B42     		negs	r3, r3
 624 009e 9A42     		cmp	r2, r3
 625 00a0 06DA     		bge	.L48
 346:..\src/interruptions.c ****             pwm_input =  prev_pwm - SH_MOT->pwm_rate_limiter;
 626              		.loc 1 346 0
 627 00a2 174B     		ldr	r3, .L54+8
 628 00a4 1B68     		ldr	r3, [r3]
 629 00a6 7A68     		ldr	r2, [r7, #4]
 630 00a8 92F86120 		ldrb	r2, [r2, #97]	@ zero_extendqisi2
 631 00ac 9B1A     		subs	r3, r3, r2
 632 00ae FB60     		str	r3, [r7, #12]
 633              	.L48:
 347:..\src/interruptions.c ****     }
 348:..\src/interruptions.c ****     
 349:..\src/interruptions.c ****     if(pwm_input >  PWM_MAX_VALUE_DC) 
 634              		.loc 1 349 0
 635 00b0 FB68     		ldr	r3, [r7, #12]
 636 00b2 642B     		cmp	r3, #100
 637 00b4 01DD     		ble	.L49
 350:..\src/interruptions.c ****         pwm_input =  PWM_MAX_VALUE_DC;
 638              		.loc 1 350 0
 639 00b6 6423     		movs	r3, #100
 640 00b8 FB60     		str	r3, [r7, #12]
 641              	.L49:
 351:..\src/interruptions.c ****     if(pwm_input < -PWM_MAX_VALUE_DC) 
 642              		.loc 1 351 0
 643 00ba FB68     		ldr	r3, [r7, #12]
 644 00bc 13F1640F 		cmn	r3, #100
 645 00c0 02DA     		bge	.L50
 352:..\src/interruptions.c ****         pwm_input = -PWM_MAX_VALUE_DC;
 646              		.loc 1 352 0
 647 00c2 6FF06303 		mvn	r3, #99
 648 00c6 FB60     		str	r3, [r7, #12]
 649              	.L50:
 353:..\src/interruptions.c ****     
 354:..\src/interruptions.c ****     prev_pwm = pwm_input;
 650              		.loc 1 354 0
 651 00c8 0D4A     		ldr	r2, .L54+8
 652 00ca FB68     		ldr	r3, [r7, #12]
 653 00cc 1360     		str	r3, [r2]
 355:..\src/interruptions.c **** 	
 356:..\src/interruptions.c ****     pwm_sign[0] = SIGN(pwm_input);   
 654              		.loc 1 356 0
 655 00ce FB68     		ldr	r3, [r7, #12]
 656 00d0 002B     		cmp	r3, #0
 657 00d2 01DB     		blt	.L51
 658              		.loc 1 356 0 is_stmt 0 discriminator 1
 659 00d4 0122     		movs	r2, #1
 660 00d6 01E0     		b	.L52
 661              	.L51:
 662              		.loc 1 356 0 discriminator 2
 663 00d8 4FF0FF32 		mov	r2, #-1
 664              	.L52:
ARM GAS  C:\Users\mgnocco\AppData\Local\Temp\ccuVecaK.s 			page 19


 665              		.loc 1 356 0 discriminator 4
 666 00dc 094B     		ldr	r3, .L54+12
 667 00de 1A70     		strb	r2, [r3]
 357:..\src/interruptions.c ****     
 358:..\src/interruptions.c ****         PWM_MOTORS_WriteCompare1(abs(pwm_input));
 668              		.loc 1 358 0 is_stmt 1 discriminator 4
 669 00e0 FB68     		ldr	r3, [r7, #12]
 670 00e2 002B     		cmp	r3, #0
 671 00e4 B8BF     		it	lt
 672 00e6 5B42     		rsblt	r3, r3, #0
 673 00e8 DBB2     		uxtb	r3, r3
 674 00ea 1846     		mov	r0, r3
 675 00ec FFF7FEFF 		bl	PWM_MOTORS_WriteCompare1
 359:..\src/interruptions.c ****   
 360:..\src/interruptions.c ****         
 361:..\src/interruptions.c **** 
 362:..\src/interruptions.c ****    
 363:..\src/interruptions.c **** }
 676              		.loc 1 363 0 discriminator 4
 677 00f0 00BF     		nop
 678 00f2 1037     		adds	r7, r7, #16
 679              		.cfi_def_cfa_offset 8
 680 00f4 BD46     		mov	sp, r7
 681              		.cfi_def_cfa_register 13
 682              		@ sp needed
 683 00f6 80BD     		pop	{r7, pc}
 684              	.L55:
 685              		.align	2
 686              	.L54:
 687 00f8 00000000 		.word	c_mem
 688 00fc 00000000 		.word	g_ref
 689 0100 8C000000 		.word	prev_pwm.9731
 690 0104 00000000 		.word	pwm_sign
 691              		.cfi_endproc
 692              	.LFE68:
 693              		.size	motor_control_SH, .-motor_control_SH
 694              		.section	.text.encoder_reading_SPI,"ax",%progbits
 695              		.align	2
 696              		.global	encoder_reading_SPI
 697              		.thumb
 698              		.thumb_func
 699              		.type	encoder_reading_SPI, %function
 700              	encoder_reading_SPI:
 701              	.LFB69:
 364:..\src/interruptions.c **** 
 365:..\src/interruptions.c **** //==============================================================================
 366:..\src/interruptions.c **** //                                                         MOTOR CONTROL GENERIC
 367:..\src/interruptions.c **** 
 368:..\src/interruptions.c **** //==============================================================================
 369:..\src/interruptions.c **** //                                                           ENCODER READING SPI
 370:..\src/interruptions.c **** //==============================================================================
 371:..\src/interruptions.c **** 
 372:..\src/interruptions.c **** void encoder_reading_SPI(uint8 n_line, uint8 assoc_motor) {
 702              		.loc 1 372 0
 703              		.cfi_startproc
 704              		@ args = 0, pretend = 0, frame = 8
 705              		@ frame_needed = 1, uses_anonymous_args = 0
ARM GAS  C:\Users\mgnocco\AppData\Local\Temp\ccuVecaK.s 			page 20


 706              		@ link register save eliminated.
 707 0000 80B4     		push	{r7}
 708              		.cfi_def_cfa_offset 4
 709              		.cfi_offset 7, -4
 710 0002 83B0     		sub	sp, sp, #12
 711              		.cfi_def_cfa_offset 16
 712 0004 00AF     		add	r7, sp, #0
 713              		.cfi_def_cfa_register 7
 714 0006 0346     		mov	r3, r0
 715 0008 0A46     		mov	r2, r1
 716 000a FB71     		strb	r3, [r7, #7]
 717 000c 1346     		mov	r3, r2
 718 000e BB71     		strb	r3, [r7, #6]
 373:..\src/interruptions.c ****  
 374:..\src/interruptions.c **** }
 719              		.loc 1 374 0
 720 0010 00BF     		nop
 721 0012 0C37     		adds	r7, r7, #12
 722              		.cfi_def_cfa_offset 4
 723 0014 BD46     		mov	sp, r7
 724              		.cfi_def_cfa_register 13
 725              		@ sp needed
 726 0016 80BC     		pop	{r7}
 727              		.cfi_restore 7
 728              		.cfi_def_cfa_offset 0
 729 0018 7047     		bx	lr
 730              		.cfi_endproc
 731              	.LFE69:
 732              		.size	encoder_reading_SPI, .-encoder_reading_SPI
 733 001a 00BF     		.section	.text.analog_read_end,"ax",%progbits
 734              		.align	2
 735              		.global	analog_read_end
 736              		.thumb
 737              		.thumb_func
 738              		.type	analog_read_end, %function
 739              	analog_read_end:
 740              	.LFB70:
 375:..\src/interruptions.c **** 
 376:..\src/interruptions.c **** //==============================================================================
 377:..\src/interruptions.c **** //                                                           ANALOG MEASUREMENTS
 378:..\src/interruptions.c **** //==============================================================================
 379:..\src/interruptions.c **** 
 380:..\src/interruptions.c **** void analog_read_end() {   
 741              		.loc 1 380 0
 742              		.cfi_startproc
 743              		@ args = 0, pretend = 0, frame = 0
 744              		@ frame_needed = 1, uses_anonymous_args = 0
 745              		@ link register save eliminated.
 746 0000 80B4     		push	{r7}
 747              		.cfi_def_cfa_offset 4
 748              		.cfi_offset 7, -4
 749 0002 00AF     		add	r7, sp, #0
 750              		.cfi_def_cfa_register 7
 381:..\src/interruptions.c **** }
 751              		.loc 1 381 0
 752 0004 00BF     		nop
 753 0006 BD46     		mov	sp, r7
ARM GAS  C:\Users\mgnocco\AppData\Local\Temp\ccuVecaK.s 			page 21


 754              		.cfi_def_cfa_register 13
 755              		@ sp needed
 756 0008 80BC     		pop	{r7}
 757              		.cfi_restore 7
 758              		.cfi_def_cfa_offset 0
 759 000a 7047     		bx	lr
 760              		.cfi_endproc
 761              	.LFE70:
 762              		.size	analog_read_end, .-analog_read_end
 763              		.section	.text.overcurrent_control,"ax",%progbits
 764              		.align	2
 765              		.global	overcurrent_control
 766              		.thumb
 767              		.thumb_func
 768              		.type	overcurrent_control, %function
 769              	overcurrent_control:
 770              	.LFB71:
 382:..\src/interruptions.c **** 
 383:..\src/interruptions.c **** //==============================================================================
 384:..\src/interruptions.c **** //                                                           OVERCURRENT CONTROL
 385:..\src/interruptions.c **** //==============================================================================
 386:..\src/interruptions.c **** 
 387:..\src/interruptions.c **** void overcurrent_control() {
 771              		.loc 1 387 0
 772              		.cfi_startproc
 773              		@ args = 0, pretend = 0, frame = 8
 774              		@ frame_needed = 1, uses_anonymous_args = 0
 775              		@ link register save eliminated.
 776 0000 80B4     		push	{r7}
 777              		.cfi_def_cfa_offset 4
 778              		.cfi_offset 7, -4
 779 0002 83B0     		sub	sp, sp, #12
 780              		.cfi_def_cfa_offset 16
 781 0004 00AF     		add	r7, sp, #0
 782              		.cfi_def_cfa_register 7
 783              	.LBB2:
 388:..\src/interruptions.c ****     
 389:..\src/interruptions.c ****     for (uint8 i = 0; i <NUM_OF_MOTORS; i++) {
 784              		.loc 1 389 0
 785 0006 0023     		movs	r3, #0
 786 0008 FB71     		strb	r3, [r7, #7]
 787 000a 6CE0     		b	.L59
 788              	.L64:
 390:..\src/interruptions.c ****         if (c_mem.motor[i].current_limit != 0) {
 789              		.loc 1 390 0
 790 000c FA79     		ldrb	r2, [r7, #7]	@ zero_extendqisi2
 791 000e 3A49     		ldr	r1, .L66
 792 0010 1346     		mov	r3, r2
 793 0012 DB00     		lsls	r3, r3, #3
 794 0014 9B1A     		subs	r3, r3, r2
 795 0016 1B01     		lsls	r3, r3, #4
 796 0018 0B44     		add	r3, r3, r1
 797 001a 03F58673 		add	r3, r3, #268
 798 001e B3F90030 		ldrsh	r3, [r3]
 799 0022 002B     		cmp	r3, #0
 800 0024 5CD0     		beq	.L60
 801              	.LBB3:
ARM GAS  C:\Users\mgnocco\AppData\Local\Temp\ccuVecaK.s 			page 22


 391:..\src/interruptions.c ****             int32 curr = g_meas[g_mem.motor[i].encoder_line].curr;
 802              		.loc 1 391 0
 803 0026 FA79     		ldrb	r2, [r7, #7]	@ zero_extendqisi2
 804 0028 3449     		ldr	r1, .L66+4
 805 002a 1346     		mov	r3, r2
 806 002c DB00     		lsls	r3, r3, #3
 807 002e 9B1A     		subs	r3, r3, r2
 808 0030 1B01     		lsls	r3, r3, #4
 809 0032 0B44     		add	r3, r3, r1
 810 0034 03F58873 		add	r3, r3, #272
 811 0038 1B78     		ldrb	r3, [r3]	@ zero_extendqisi2
 812 003a 1946     		mov	r1, r3
 813 003c 304A     		ldr	r2, .L66+8
 814 003e 3423     		movs	r3, #52
 815 0040 03FB01F3 		mul	r3, r3, r1
 816 0044 1344     		add	r3, r3, r2
 817 0046 0C33     		adds	r3, r3, #12
 818 0048 1B68     		ldr	r3, [r3]
 819 004a 3B60     		str	r3, [r7]
 392:..\src/interruptions.c ****             // check if the current is over the limit
 393:..\src/interruptions.c ****           //  if (c_mem.dev.dev_type == SOFTHAND_2_MOTORS){
 394:..\src/interruptions.c ****                 if (curr < 0){
 820              		.loc 1 394 0
 821 004c 3B68     		ldr	r3, [r7]
 822 004e 002B     		cmp	r3, #0
 823 0050 02DA     		bge	.L61
 395:..\src/interruptions.c ****                     curr = -curr;       // Invert sign to have a positive current reading in this f
 824              		.loc 1 395 0
 825 0052 3B68     		ldr	r3, [r7]
 826 0054 5B42     		negs	r3, r3
 827 0056 3B60     		str	r3, [r7]
 828              	.L61:
 396:..\src/interruptions.c ****                 }
 397:..\src/interruptions.c ****          //   }
 398:..\src/interruptions.c ****             if (curr > c_mem.motor[i].current_limit) {
 829              		.loc 1 398 0
 830 0058 FA79     		ldrb	r2, [r7, #7]	@ zero_extendqisi2
 831 005a 2749     		ldr	r1, .L66
 832 005c 1346     		mov	r3, r2
 833 005e DB00     		lsls	r3, r3, #3
 834 0060 9B1A     		subs	r3, r3, r2
 835 0062 1B01     		lsls	r3, r3, #4
 836 0064 0B44     		add	r3, r3, r1
 837 0066 03F58673 		add	r3, r3, #268
 838 006a B3F90030 		ldrsh	r3, [r3]
 839 006e 1A46     		mov	r2, r3
 840 0070 3B68     		ldr	r3, [r7]
 841 0072 9A42     		cmp	r2, r3
 842 0074 09DA     		bge	.L62
 399:..\src/interruptions.c ****                 //decrease pwm_limit
 400:..\src/interruptions.c ****                 dev_pwm_limit[i]--;
 843              		.loc 1 400 0
 844 0076 FB79     		ldrb	r3, [r7, #7]	@ zero_extendqisi2
 845 0078 224A     		ldr	r2, .L66+12
 846 007a 32F81320 		ldrh	r2, [r2, r3, lsl #1]
 847 007e 013A     		subs	r2, r2, #1
 848 0080 91B2     		uxth	r1, r2
ARM GAS  C:\Users\mgnocco\AppData\Local\Temp\ccuVecaK.s 			page 23


 849 0082 204A     		ldr	r2, .L66+12
 850 0084 22F81310 		strh	r1, [r2, r3, lsl #1]	@ movhi
 851 0088 18E0     		b	.L65
 852              	.L62:
 401:..\src/interruptions.c ****             // check if the current is in the safe zone
 402:..\src/interruptions.c ****             } else if (curr < (c_mem.motor[i].current_limit - CURRENT_HYSTERESIS)) {
 853              		.loc 1 402 0
 854 008a FA79     		ldrb	r2, [r7, #7]	@ zero_extendqisi2
 855 008c 1A49     		ldr	r1, .L66
 856 008e 1346     		mov	r3, r2
 857 0090 DB00     		lsls	r3, r3, #3
 858 0092 9B1A     		subs	r3, r3, r2
 859 0094 1B01     		lsls	r3, r3, #4
 860 0096 0B44     		add	r3, r3, r1
 861 0098 03F58673 		add	r3, r3, #268
 862 009c B3F90030 		ldrsh	r3, [r3]
 863 00a0 A3F10A02 		sub	r2, r3, #10
 864 00a4 3B68     		ldr	r3, [r7]
 865 00a6 9A42     		cmp	r2, r3
 866 00a8 08DD     		ble	.L65
 403:..\src/interruptions.c ****                 //increase pwm_limit
 404:..\src/interruptions.c ****                 dev_pwm_limit[i]++;
 867              		.loc 1 404 0
 868 00aa FB79     		ldrb	r3, [r7, #7]	@ zero_extendqisi2
 869 00ac 154A     		ldr	r2, .L66+12
 870 00ae 32F81320 		ldrh	r2, [r2, r3, lsl #1]
 871 00b2 0132     		adds	r2, r2, #1
 872 00b4 91B2     		uxth	r1, r2
 873 00b6 134A     		ldr	r2, .L66+12
 874 00b8 22F81310 		strh	r1, [r2, r3, lsl #1]	@ movhi
 875              	.L65:
 405:..\src/interruptions.c ****             }
 406:..\src/interruptions.c **** 
 407:..\src/interruptions.c ****             // Bound pwm_limit
 408:..\src/interruptions.c ****             if (dev_pwm_limit[i] < 0) 
 409:..\src/interruptions.c ****                 dev_pwm_limit[i] = 0;
 410:..\src/interruptions.c ****             else 
 411:..\src/interruptions.c ****                 if (dev_pwm_limit[i] > dev_pwm_sat[i]) 
 876              		.loc 1 411 0
 877 00bc FB79     		ldrb	r3, [r7, #7]	@ zero_extendqisi2
 878 00be 114A     		ldr	r2, .L66+12
 879 00c0 32F81320 		ldrh	r2, [r2, r3, lsl #1]
 880 00c4 FB79     		ldrb	r3, [r7, #7]	@ zero_extendqisi2
 881 00c6 1049     		ldr	r1, .L66+16
 882 00c8 31F81330 		ldrh	r3, [r1, r3, lsl #1]
 883 00cc 9A42     		cmp	r2, r3
 884 00ce 07D9     		bls	.L60
 412:..\src/interruptions.c ****                     dev_pwm_limit[i] = dev_pwm_sat[i];
 885              		.loc 1 412 0
 886 00d0 FB79     		ldrb	r3, [r7, #7]	@ zero_extendqisi2
 887 00d2 FA79     		ldrb	r2, [r7, #7]	@ zero_extendqisi2
 888 00d4 0C49     		ldr	r1, .L66+16
 889 00d6 31F81210 		ldrh	r1, [r1, r2, lsl #1]
 890 00da 0A4A     		ldr	r2, .L66+12
 891 00dc 22F81310 		strh	r1, [r2, r3, lsl #1]	@ movhi
 892              	.L60:
 893              	.LBE3:
ARM GAS  C:\Users\mgnocco\AppData\Local\Temp\ccuVecaK.s 			page 24


 389:..\src/interruptions.c ****         if (c_mem.motor[i].current_limit != 0) {
 894              		.loc 1 389 0 discriminator 2
 895 00e0 FB79     		ldrb	r3, [r7, #7]	@ zero_extendqisi2
 896 00e2 0133     		adds	r3, r3, #1
 897 00e4 FB71     		strb	r3, [r7, #7]
 898              	.L59:
 389:..\src/interruptions.c ****         if (c_mem.motor[i].current_limit != 0) {
 899              		.loc 1 389 0 is_stmt 0 discriminator 1
 900 00e6 FB79     		ldrb	r3, [r7, #7]	@ zero_extendqisi2
 901 00e8 022B     		cmp	r3, #2
 902 00ea 8FD9     		bls	.L64
 903              	.LBE2:
 413:..\src/interruptions.c ****         }
 414:..\src/interruptions.c ****     }
 415:..\src/interruptions.c **** }
 904              		.loc 1 415 0 is_stmt 1
 905 00ec 00BF     		nop
 906 00ee 0C37     		adds	r7, r7, #12
 907              		.cfi_def_cfa_offset 4
 908 00f0 BD46     		mov	sp, r7
 909              		.cfi_def_cfa_register 13
 910              		@ sp needed
 911 00f2 80BC     		pop	{r7}
 912              		.cfi_restore 7
 913              		.cfi_def_cfa_offset 0
 914 00f4 7047     		bx	lr
 915              	.L67:
 916 00f6 00BF     		.align	2
 917              	.L66:
 918 00f8 00000000 		.word	c_mem
 919 00fc 00000000 		.word	g_mem
 920 0100 00000000 		.word	g_meas
 921 0104 00000000 		.word	dev_pwm_limit
 922 0108 00000000 		.word	dev_pwm_sat
 923              		.cfi_endproc
 924              	.LFE71:
 925              		.size	overcurrent_control, .-overcurrent_control
 926              		.section	.text.pwm_limit_search,"ax",%progbits
 927              		.align	2
 928              		.global	pwm_limit_search
 929              		.thumb
 930              		.thumb_func
 931              		.type	pwm_limit_search, %function
 932              	pwm_limit_search:
 933              	.LFB72:
 416:..\src/interruptions.c **** 
 417:..\src/interruptions.c **** //==============================================================================
 418:..\src/interruptions.c **** //                                                              PWM_LIMIT_SEARCH
 419:..\src/interruptions.c **** //==============================================================================
 420:..\src/interruptions.c **** 
 421:..\src/interruptions.c **** void pwm_limit_search(uint8 mot_idx) {
 934              		.loc 1 421 0
 935              		.cfi_startproc
 936              		@ args = 0, pretend = 0, frame = 16
 937              		@ frame_needed = 1, uses_anonymous_args = 0
 938              		@ link register save eliminated.
 939 0000 80B4     		push	{r7}
ARM GAS  C:\Users\mgnocco\AppData\Local\Temp\ccuVecaK.s 			page 25


 940              		.cfi_def_cfa_offset 4
 941              		.cfi_offset 7, -4
 942 0002 85B0     		sub	sp, sp, #20
 943              		.cfi_def_cfa_offset 24
 944 0004 00AF     		add	r7, sp, #0
 945              		.cfi_def_cfa_register 7
 946 0006 0346     		mov	r3, r0
 947 0008 FB71     		strb	r3, [r7, #7]
 422:..\src/interruptions.c **** 
 423:..\src/interruptions.c ****     uint8 CYDATA index;
 424:..\src/interruptions.c ****     uint16 CYDATA max_tension = 26500;
 948              		.loc 1 424 0
 949 000a 46F28473 		movw	r3, #26500
 950 000e FB81     		strh	r3, [r7, #14]	@ movhi
 425:..\src/interruptions.c ****     uint16 CYDATA min_tension = 11500;
 951              		.loc 1 425 0
 952 0010 42F6EC43 		movw	r3, #11500
 953 0014 BB81     		strh	r3, [r7, #12]	@ movhi
 426:..\src/interruptions.c ****     
 427:..\src/interruptions.c ****     if (dev_tension[mot_idx] > max_tension) {
 954              		.loc 1 427 0
 955 0016 FB79     		ldrb	r3, [r7, #7]	@ zero_extendqisi2
 956 0018 1F4A     		ldr	r2, .L75
 957 001a 52F82320 		ldr	r2, [r2, r3, lsl #2]
 958 001e FB89     		ldrh	r3, [r7, #14]
 959 0020 9A42     		cmp	r2, r3
 960 0022 05DD     		ble	.L69
 428:..\src/interruptions.c ****         dev_pwm_sat[mot_idx] = 0;
 961              		.loc 1 428 0
 962 0024 FB79     		ldrb	r3, [r7, #7]	@ zero_extendqisi2
 963 0026 1D4A     		ldr	r2, .L75+4
 964 0028 0021     		movs	r1, #0
 965 002a 22F81310 		strh	r1, [r2, r3, lsl #1]	@ movhi
 429:..\src/interruptions.c ****     } else if (dev_tension[mot_idx] < min_tension) {
 430:..\src/interruptions.c ****         if (c_mem.motor[mot_idx].motor_driver_type == DRIVER_BRUSHLESS){
 431:..\src/interruptions.c ****             dev_pwm_sat[mot_idx] = PWM_MAX_VALUE_ESC;
 432:..\src/interruptions.c ****         } else {
 433:..\src/interruptions.c ****             dev_pwm_sat[mot_idx] = PWM_MAX_VALUE_DC;
 434:..\src/interruptions.c ****         }
 435:..\src/interruptions.c ****     } else {
 436:..\src/interruptions.c ****         index = (uint8)((dev_tension[mot_idx] - min_tension) >> 9);
 437:..\src/interruptions.c ****         dev_pwm_sat[mot_idx] = pwm_preload_values[index];
 438:..\src/interruptions.c ****     }
 439:..\src/interruptions.c **** }
 966              		.loc 1 439 0
 967 002e 2EE0     		b	.L74
 968              	.L69:
 429:..\src/interruptions.c ****     } else if (dev_tension[mot_idx] < min_tension) {
 969              		.loc 1 429 0
 970 0030 FB79     		ldrb	r3, [r7, #7]	@ zero_extendqisi2
 971 0032 194A     		ldr	r2, .L75
 972 0034 52F82320 		ldr	r2, [r2, r3, lsl #2]
 973 0038 BB89     		ldrh	r3, [r7, #12]
 974 003a 9A42     		cmp	r2, r3
 975 003c 17DA     		bge	.L71
 430:..\src/interruptions.c ****             dev_pwm_sat[mot_idx] = PWM_MAX_VALUE_ESC;
 976              		.loc 1 430 0
ARM GAS  C:\Users\mgnocco\AppData\Local\Temp\ccuVecaK.s 			page 26


 977 003e FA79     		ldrb	r2, [r7, #7]	@ zero_extendqisi2
 978 0040 1749     		ldr	r1, .L75+8
 979 0042 1346     		mov	r3, r2
 980 0044 DB00     		lsls	r3, r3, #3
 981 0046 9B1A     		subs	r3, r3, r2
 982 0048 1B01     		lsls	r3, r3, #4
 983 004a 0B44     		add	r3, r3, r1
 984 004c E233     		adds	r3, r3, #226
 985 004e 1B78     		ldrb	r3, [r3]	@ zero_extendqisi2
 986 0050 022B     		cmp	r3, #2
 987 0052 06D1     		bne	.L72
 431:..\src/interruptions.c ****         } else {
 988              		.loc 1 431 0
 989 0054 FB79     		ldrb	r3, [r7, #7]	@ zero_extendqisi2
 990 0056 114A     		ldr	r2, .L75+4
 991 0058 40F6A931 		movw	r1, #2985
 992 005c 22F81310 		strh	r1, [r2, r3, lsl #1]	@ movhi
 993              		.loc 1 439 0
 994 0060 15E0     		b	.L74
 995              	.L72:
 433:..\src/interruptions.c ****         }
 996              		.loc 1 433 0
 997 0062 FB79     		ldrb	r3, [r7, #7]	@ zero_extendqisi2
 998 0064 0D4A     		ldr	r2, .L75+4
 999 0066 6421     		movs	r1, #100
 1000 0068 22F81310 		strh	r1, [r2, r3, lsl #1]	@ movhi
 1001              		.loc 1 439 0
 1002 006c 0FE0     		b	.L74
 1003              	.L71:
 436:..\src/interruptions.c ****         dev_pwm_sat[mot_idx] = pwm_preload_values[index];
 1004              		.loc 1 436 0
 1005 006e FB79     		ldrb	r3, [r7, #7]	@ zero_extendqisi2
 1006 0070 094A     		ldr	r2, .L75
 1007 0072 52F82320 		ldr	r2, [r2, r3, lsl #2]
 1008 0076 BB89     		ldrh	r3, [r7, #12]
 1009 0078 D31A     		subs	r3, r2, r3
 1010 007a 5B12     		asrs	r3, r3, #9
 1011 007c FB72     		strb	r3, [r7, #11]
 437:..\src/interruptions.c ****     }
 1012              		.loc 1 437 0
 1013 007e FB79     		ldrb	r3, [r7, #7]	@ zero_extendqisi2
 1014 0080 FA7A     		ldrb	r2, [r7, #11]	@ zero_extendqisi2
 1015 0082 0849     		ldr	r1, .L75+12
 1016 0084 8A5C     		ldrb	r2, [r1, r2]	@ zero_extendqisi2
 1017 0086 91B2     		uxth	r1, r2
 1018 0088 044A     		ldr	r2, .L75+4
 1019 008a 22F81310 		strh	r1, [r2, r3, lsl #1]	@ movhi
 1020              	.L74:
 1021              		.loc 1 439 0
 1022 008e 00BF     		nop
 1023 0090 1437     		adds	r7, r7, #20
 1024              		.cfi_def_cfa_offset 4
 1025 0092 BD46     		mov	sp, r7
 1026              		.cfi_def_cfa_register 13
 1027              		@ sp needed
 1028 0094 80BC     		pop	{r7}
 1029              		.cfi_restore 7
ARM GAS  C:\Users\mgnocco\AppData\Local\Temp\ccuVecaK.s 			page 27


 1030              		.cfi_def_cfa_offset 0
 1031 0096 7047     		bx	lr
 1032              	.L76:
 1033              		.align	2
 1034              	.L75:
 1035 0098 00000000 		.word	dev_tension
 1036 009c 00000000 		.word	dev_pwm_sat
 1037 00a0 00000000 		.word	c_mem
 1038 00a4 00000000 		.word	pwm_preload_values
 1039              		.cfi_endproc
 1040              	.LFE72:
 1041              		.size	pwm_limit_search, .-pwm_limit_search
 1042              		.global	__aeabi_ui2f
 1043              		.global	__aeabi_f2d
 1044              		.global	__aeabi_ddiv
 1045              		.global	__aeabi_dcmpgt
 1046              		.section	.text.cycles_counter_update,"ax",%progbits
 1047              		.align	2
 1048              		.global	cycles_counter_update
 1049              		.thumb
 1050              		.thumb_func
 1051              		.type	cycles_counter_update, %function
 1052              	cycles_counter_update:
 1053              	.LFB73:
 440:..\src/interruptions.c **** 
 441:..\src/interruptions.c **** //==============================================================================
 442:..\src/interruptions.c **** //                                                         CYCLES COUNTER UPDATE
 443:..\src/interruptions.c **** //==============================================================================
 444:..\src/interruptions.c **** 
 445:..\src/interruptions.c **** void cycles_counter_update() {
 1054              		.loc 1 445 0
 1055              		.cfi_startproc
 1056              		@ args = 0, pretend = 0, frame = 24
 1057              		@ frame_needed = 1, uses_anonymous_args = 0
 1058 0000 90B5     		push	{r4, r7, lr}
 1059              		.cfi_def_cfa_offset 12
 1060              		.cfi_offset 4, -12
 1061              		.cfi_offset 7, -8
 1062              		.cfi_offset 14, -4
 1063 0002 87B0     		sub	sp, sp, #28
 1064              		.cfi_def_cfa_offset 40
 1065 0004 00AF     		add	r7, sp, #0
 1066              		.cfi_def_cfa_register 7
 446:..\src/interruptions.c **** 	static uint8 pos_cycle_status = STATE_INACTIVE;
 447:..\src/interruptions.c ****     static uint8 emg_cycle_status[2] = {STATE_INACTIVE, STATE_INACTIVE};
 448:..\src/interruptions.c ****     static uint8 motion_status[2] = {STATE_INACTIVE, STATE_INACTIVE};
 449:..\src/interruptions.c ****     static uint8 emg_excess_status[2] = {STATE_INACTIVE, STATE_INACTIVE};
 450:..\src/interruptions.c ****     static uint8 rest_cycle_status = STATE_INACTIVE;
 451:..\src/interruptions.c ****     static int32 bin_threshold = 250;
 452:..\src/interruptions.c ****     static int32 exc_act_thr = 980; //0.95*1024
 453:..\src/interruptions.c ****     static int32 thr_pos = 0;
 454:..\src/interruptions.c ****     static int32 max_pos = 0;
 455:..\src/interruptions.c ****     uint8 i, bin_st, bin_max, bin_1, bin_2;
 456:..\src/interruptions.c ****     int32 curr_pos = 0, curr_off = 0, curr_ref = 0;
 1067              		.loc 1 456 0
 1068 0006 0023     		movs	r3, #0
 1069 0008 FB60     		str	r3, [r7, #12]
ARM GAS  C:\Users\mgnocco\AppData\Local\Temp\ccuVecaK.s 			page 28


 1070 000a 0023     		movs	r3, #0
 1071 000c BB60     		str	r3, [r7, #8]
 1072 000e 0023     		movs	r3, #0
 1073 0010 3B61     		str	r3, [r7, #16]
 457:..\src/interruptions.c ****     int32 step;
 458:..\src/interruptions.c ****     static uint32 timer_value_s, timer_value_e;
 459:..\src/interruptions.c ****     static uint32 timer_exc_s[2], timer_exc_e[2];
 460:..\src/interruptions.c ****     static int32 start_emg_pos[2] = {0,0};
 461:..\src/interruptions.c **** 
 462:..\src/interruptions.c ****     curr_pos = (int32)(g_meas[g_mem.motor[0].encoder_line].pos[0] >> g_mem.enc[g_mem.motor[0].encod
 1074              		.loc 1 462 0
 1075 0012 A64B     		ldr	r3, .L155
 1076 0014 93F81031 		ldrb	r3, [r3, #272]	@ zero_extendqisi2
 1077 0018 1946     		mov	r1, r3
 1078 001a A54A     		ldr	r2, .L155+4
 1079 001c 3423     		movs	r3, #52
 1080 001e 03FB01F3 		mul	r3, r3, r1
 1081 0022 1344     		add	r3, r3, r2
 1082 0024 1A68     		ldr	r2, [r3]
 1083 0026 A14B     		ldr	r3, .L155
 1084 0028 93F81031 		ldrb	r3, [r3, #272]	@ zero_extendqisi2
 1085 002c 1846     		mov	r0, r3
 1086 002e 9F49     		ldr	r1, .L155
 1087 0030 0346     		mov	r3, r0
 1088 0032 5B00     		lsls	r3, r3, #1
 1089 0034 0344     		add	r3, r3, r0
 1090 0036 1B01     		lsls	r3, r3, #4
 1091 0038 0B44     		add	r3, r3, r1
 1092 003a 03F20523 		addw	r3, r3, #517
 1093 003e 1B78     		ldrb	r3, [r3]	@ zero_extendqisi2
 1094 0040 42FA03F3 		asr	r3, r2, r3
 1095 0044 FB60     		str	r3, [r7, #12]
 463:..\src/interruptions.c ****         
 464:..\src/interruptions.c ****     // State machine - Evaluate position counter update
 465:..\src/interruptions.c ****     switch (pos_cycle_status){
 1096              		.loc 1 465 0
 1097 0046 9B4B     		ldr	r3, .L155+8
 1098 0048 1B78     		ldrb	r3, [r3]	@ zero_extendqisi2
 1099 004a 012B     		cmp	r3, #1
 1100 004c 3DD0     		beq	.L79
 1101 004e 022B     		cmp	r3, #2
 1102 0050 74D0     		beq	.L80
 1103 0052 002B     		cmp	r3, #0
 1104 0054 40F02781 		bne	.L78
 466:..\src/interruptions.c ****         case STATE_INACTIVE:
 467:..\src/interruptions.c ****             if ((g_mem.motor[0].input_mode != INPUT_MODE_EMG_PROPORTIONAL_NC && pwm_sign[0] == 1) |
 1105              		.loc 1 467 0
 1106 0058 944B     		ldr	r3, .L155
 1107 005a 93F80E31 		ldrb	r3, [r3, #270]	@ zero_extendqisi2
 1108 005e 072B     		cmp	r3, #7
 1109 0060 04D0     		beq	.L82
 1110              		.loc 1 467 0 is_stmt 0 discriminator 1
 1111 0062 954B     		ldr	r3, .L155+12
 1112 0064 93F90030 		ldrsb	r3, [r3]
 1113 0068 012B     		cmp	r3, #1
 1114 006a 0CD0     		beq	.L83
 1115              	.L82:
ARM GAS  C:\Users\mgnocco\AppData\Local\Temp\ccuVecaK.s 			page 29


 1116              		.loc 1 467 0 discriminator 3
 1117 006c 8F4B     		ldr	r3, .L155
 1118 006e 93F80E31 		ldrb	r3, [r3, #270]	@ zero_extendqisi2
 1119 0072 072B     		cmp	r3, #7
 1120 0074 40F01481 		bne	.L145
 1121              		.loc 1 467 0 discriminator 4
 1122 0078 8F4B     		ldr	r3, .L155+12
 1123 007a 93F90030 		ldrsb	r3, [r3]
 1124 007e B3F1FF3F 		cmp	r3, #-1
 1125 0082 40F00D81 		bne	.L145
 1126              	.L83:
 468:..\src/interruptions.c ****                 thr_pos = curr_pos; 
 1127              		.loc 1 468 0 is_stmt 1
 1128 0086 8D4A     		ldr	r2, .L155+16
 1129 0088 FB68     		ldr	r3, [r7, #12]
 1130 008a 1360     		str	r3, [r2]
 469:..\src/interruptions.c ****                 curr_off = (max_pos>thr_pos)?(max_pos-thr_pos):(thr_pos-max_pos);
 1131              		.loc 1 469 0
 1132 008c 8C4B     		ldr	r3, .L155+20
 1133 008e 1A68     		ldr	r2, [r3]
 1134 0090 8A4B     		ldr	r3, .L155+16
 1135 0092 1B68     		ldr	r3, [r3]
 1136 0094 9A42     		cmp	r2, r3
 1137 0096 05DD     		ble	.L85
 1138              		.loc 1 469 0 is_stmt 0 discriminator 1
 1139 0098 894B     		ldr	r3, .L155+20
 1140 009a 1A68     		ldr	r2, [r3]
 1141 009c 874B     		ldr	r3, .L155+16
 1142 009e 1B68     		ldr	r3, [r3]
 1143 00a0 D31A     		subs	r3, r2, r3
 1144 00a2 04E0     		b	.L86
 1145              	.L85:
 1146              		.loc 1 469 0 discriminator 2
 1147 00a4 854B     		ldr	r3, .L155+16
 1148 00a6 1A68     		ldr	r2, [r3]
 1149 00a8 854B     		ldr	r3, .L155+20
 1150 00aa 1B68     		ldr	r3, [r3]
 1151 00ac D31A     		subs	r3, r2, r3
 1152              	.L86:
 1153              		.loc 1 469 0 discriminator 4
 1154 00ae BB60     		str	r3, [r7, #8]
 470:..\src/interruptions.c ****                 if (curr_off > 20){    // it has to be a sensible movement to update counter (to av
 1155              		.loc 1 470 0 is_stmt 1 discriminator 4
 1156 00b0 BB68     		ldr	r3, [r7, #8]
 1157 00b2 142B     		cmp	r3, #20
 1158 00b4 05DD     		ble	.L87
 471:..\src/interruptions.c ****                     g_mem.cnt.wire_disp = g_mem.cnt.wire_disp + curr_off;     //sum opening track
 1159              		.loc 1 471 0
 1160 00b6 7D4B     		ldr	r3, .L155
 1161 00b8 5A6D     		ldr	r2, [r3, #84]
 1162 00ba BB68     		ldr	r3, [r7, #8]
 1163 00bc 1344     		add	r3, r3, r2
 1164 00be 7B4A     		ldr	r2, .L155
 1165 00c0 5365     		str	r3, [r2, #84]
 1166              	.L87:
 472:..\src/interruptions.c ****                 }
 473:..\src/interruptions.c ****                 pos_cycle_status = STATE_ACTIVE;
ARM GAS  C:\Users\mgnocco\AppData\Local\Temp\ccuVecaK.s 			page 30


 1167              		.loc 1 473 0
 1168 00c2 7C4B     		ldr	r3, .L155+8
 1169 00c4 0122     		movs	r2, #1
 1170 00c6 1A70     		strb	r2, [r3]
 474:..\src/interruptions.c ****             }
 475:..\src/interruptions.c ****             break;
 1171              		.loc 1 475 0
 1172 00c8 EAE0     		b	.L145
 1173              	.L79:
 476:..\src/interruptions.c ****         case STATE_ACTIVE:
 477:..\src/interruptions.c ****             if ((g_mem.motor[0].input_mode != INPUT_MODE_EMG_PROPORTIONAL_NC && pwm_sign[0] == -1) 
 1174              		.loc 1 477 0
 1175 00ca 784B     		ldr	r3, .L155
 1176 00cc 93F80E31 		ldrb	r3, [r3, #270]	@ zero_extendqisi2
 1177 00d0 072B     		cmp	r3, #7
 1178 00d2 05D0     		beq	.L88
 1179              		.loc 1 477 0 is_stmt 0 discriminator 1
 1180 00d4 784B     		ldr	r3, .L155+12
 1181 00d6 93F90030 		ldrsb	r3, [r3]
 1182 00da B3F1FF3F 		cmp	r3, #-1
 1183 00de 0BD0     		beq	.L89
 1184              	.L88:
 1185              		.loc 1 477 0 discriminator 3
 1186 00e0 724B     		ldr	r3, .L155
 1187 00e2 93F80E31 		ldrb	r3, [r3, #270]	@ zero_extendqisi2
 1188 00e6 072B     		cmp	r3, #7
 1189 00e8 40F0DC80 		bne	.L146
 1190              		.loc 1 477 0 discriminator 4
 1191 00ec 724B     		ldr	r3, .L155+12
 1192 00ee 93F90030 		ldrsb	r3, [r3]
 1193 00f2 012B     		cmp	r3, #1
 1194 00f4 40F0D680 		bne	.L146
 1195              	.L89:
 478:..\src/interruptions.c ****                 max_pos = curr_pos;
 1196              		.loc 1 478 0 is_stmt 1
 1197 00f8 714A     		ldr	r2, .L155+20
 1198 00fa FB68     		ldr	r3, [r7, #12]
 1199 00fc 1360     		str	r3, [r2]
 479:..\src/interruptions.c ****                 curr_off = (max_pos>thr_pos)?(max_pos-thr_pos):(thr_pos-max_pos);
 1200              		.loc 1 479 0
 1201 00fe 704B     		ldr	r3, .L155+20
 1202 0100 1A68     		ldr	r2, [r3]
 1203 0102 6E4B     		ldr	r3, .L155+16
 1204 0104 1B68     		ldr	r3, [r3]
 1205 0106 9A42     		cmp	r2, r3
 1206 0108 05DD     		ble	.L91
 1207              		.loc 1 479 0 is_stmt 0 discriminator 1
 1208 010a 6D4B     		ldr	r3, .L155+20
 1209 010c 1A68     		ldr	r2, [r3]
 1210 010e 6B4B     		ldr	r3, .L155+16
 1211 0110 1B68     		ldr	r3, [r3]
 1212 0112 D31A     		subs	r3, r2, r3
 1213 0114 04E0     		b	.L92
 1214              	.L91:
 1215              		.loc 1 479 0 discriminator 2
 1216 0116 694B     		ldr	r3, .L155+16
 1217 0118 1A68     		ldr	r2, [r3]
ARM GAS  C:\Users\mgnocco\AppData\Local\Temp\ccuVecaK.s 			page 31


 1218 011a 694B     		ldr	r3, .L155+20
 1219 011c 1B68     		ldr	r3, [r3]
 1220 011e D31A     		subs	r3, r2, r3
 1221              	.L92:
 1222              		.loc 1 479 0 discriminator 4
 1223 0120 BB60     		str	r3, [r7, #8]
 480:..\src/interruptions.c ****                 if (curr_off > 20){    // it has to be a sensible movement to update counter (to av
 1224              		.loc 1 480 0 is_stmt 1 discriminator 4
 1225 0122 BB68     		ldr	r3, [r7, #8]
 1226 0124 142B     		cmp	r3, #20
 1227 0126 05DD     		ble	.L93
 481:..\src/interruptions.c ****                    g_mem.cnt.wire_disp = g_mem.cnt.wire_disp + curr_off;     //sum closure track
 1228              		.loc 1 481 0
 1229 0128 604B     		ldr	r3, .L155
 1230 012a 5A6D     		ldr	r2, [r3, #84]
 1231 012c BB68     		ldr	r3, [r7, #8]
 1232 012e 1344     		add	r3, r3, r2
 1233 0130 5E4A     		ldr	r2, .L155
 1234 0132 5365     		str	r3, [r2, #84]
 1235              	.L93:
 482:..\src/interruptions.c ****                 }
 483:..\src/interruptions.c ****                 pos_cycle_status = COUNTER_INC;
 1236              		.loc 1 483 0
 1237 0134 5F4B     		ldr	r3, .L155+8
 1238 0136 0222     		movs	r2, #2
 1239 0138 1A70     		strb	r2, [r3]
 484:..\src/interruptions.c ****             }
 485:..\src/interruptions.c ****             break;
 1240              		.loc 1 485 0
 1241 013a B3E0     		b	.L146
 1242              	.L80:
 486:..\src/interruptions.c ****         case COUNTER_INC:
 487:..\src/interruptions.c **** 
 488:..\src/interruptions.c ****             curr_off = (max_pos>thr_pos)?(max_pos-thr_pos):(thr_pos-max_pos);
 1243              		.loc 1 488 0
 1244 013c 604B     		ldr	r3, .L155+20
 1245 013e 1A68     		ldr	r2, [r3]
 1246 0140 5E4B     		ldr	r3, .L155+16
 1247 0142 1B68     		ldr	r3, [r3]
 1248 0144 9A42     		cmp	r2, r3
 1249 0146 05DD     		ble	.L94
 1250              		.loc 1 488 0 is_stmt 0 discriminator 1
 1251 0148 5D4B     		ldr	r3, .L155+20
 1252 014a 1A68     		ldr	r2, [r3]
 1253 014c 5B4B     		ldr	r3, .L155+16
 1254 014e 1B68     		ldr	r3, [r3]
 1255 0150 D31A     		subs	r3, r2, r3
 1256 0152 04E0     		b	.L95
 1257              	.L94:
 1258              		.loc 1 488 0 discriminator 2
 1259 0154 594B     		ldr	r3, .L155+16
 1260 0156 1A68     		ldr	r2, [r3]
 1261 0158 594B     		ldr	r3, .L155+20
 1262 015a 1B68     		ldr	r3, [r3]
 1263 015c D31A     		subs	r3, r2, r3
 1264              	.L95:
 1265              		.loc 1 488 0 discriminator 4
ARM GAS  C:\Users\mgnocco\AppData\Local\Temp\ccuVecaK.s 			page 32


 1266 015e BB60     		str	r3, [r7, #8]
 489:..\src/interruptions.c ****             if (curr_off > bin_threshold){
 1267              		.loc 1 489 0 is_stmt 1 discriminator 4
 1268 0160 584B     		ldr	r3, .L155+24
 1269 0162 1B68     		ldr	r3, [r3]
 1270 0164 BA68     		ldr	r2, [r7, #8]
 1271 0166 9A42     		cmp	r2, r3
 1272 0168 40F39680 		ble	.L96
 490:..\src/interruptions.c ****                 //update position histogram
 491:..\src/interruptions.c ****                 step = ((int32)(g_mem.motor[0].pos_lim_sup >> g_mem.enc[g_mem.motor[0].encoder_line
 1273              		.loc 1 491 0
 1274 016c 4F4B     		ldr	r3, .L155
 1275 016e D3F8E820 		ldr	r2, [r3, #232]
 1276 0172 4E4B     		ldr	r3, .L155
 1277 0174 93F81031 		ldrb	r3, [r3, #272]	@ zero_extendqisi2
 1278 0178 1846     		mov	r0, r3
 1279 017a 4C49     		ldr	r1, .L155
 1280 017c 0346     		mov	r3, r0
 1281 017e 5B00     		lsls	r3, r3, #1
 1282 0180 0344     		add	r3, r3, r0
 1283 0182 1B01     		lsls	r3, r3, #4
 1284 0184 0B44     		add	r3, r3, r1
 1285 0186 03F20523 		addw	r3, r3, #517
 1286 018a 1B78     		ldrb	r3, [r3]	@ zero_extendqisi2
 1287 018c 42FA03F3 		asr	r3, r2, r3
 1288 0190 4D4A     		ldr	r2, .L155+28
 1289 0192 82FB0312 		smull	r1, r2, r2, r3
 1290 0196 9210     		asrs	r2, r2, #2
 1291 0198 DB17     		asrs	r3, r3, #31
 1292 019a D31A     		subs	r3, r2, r3
 1293 019c 7B60     		str	r3, [r7, #4]
 492:..\src/interruptions.c ****                 bin_st  = (uint8)(thr_pos/step);
 1294              		.loc 1 492 0
 1295 019e 474B     		ldr	r3, .L155+16
 1296 01a0 1A68     		ldr	r2, [r3]
 1297 01a2 7B68     		ldr	r3, [r7, #4]
 1298 01a4 92FBF3F3 		sdiv	r3, r2, r3
 1299 01a8 FB70     		strb	r3, [r7, #3]
 493:..\src/interruptions.c ****                 bin_max = (uint8)(max_pos/step);
 1300              		.loc 1 493 0
 1301 01aa 454B     		ldr	r3, .L155+20
 1302 01ac 1A68     		ldr	r2, [r3]
 1303 01ae 7B68     		ldr	r3, [r7, #4]
 1304 01b0 92FBF3F3 		sdiv	r3, r2, r3
 1305 01b4 BB70     		strb	r3, [r7, #2]
 494:..\src/interruptions.c ****                 
 495:..\src/interruptions.c ****                 // Bin computation valid for both NO and NC working
 496:..\src/interruptions.c ****                 bin_1 = (bin_st<bin_max)?bin_st:bin_max;
 1306              		.loc 1 496 0
 1307 01b6 BA78     		ldrb	r2, [r7, #2]	@ zero_extendqisi2
 1308 01b8 FB78     		ldrb	r3, [r7, #3]	@ zero_extendqisi2
 1309 01ba 9342     		cmp	r3, r2
 1310 01bc 28BF     		it	cs
 1311 01be 1346     		movcs	r3, r2
 1312 01c0 7B70     		strb	r3, [r7, #1]
 497:..\src/interruptions.c ****                 bin_2 = (bin_st<bin_max)?bin_max:bin_st;    
 1313              		.loc 1 497 0
ARM GAS  C:\Users\mgnocco\AppData\Local\Temp\ccuVecaK.s 			page 33


 1314 01c2 FA78     		ldrb	r2, [r7, #3]	@ zero_extendqisi2
 1315 01c4 BB78     		ldrb	r3, [r7, #2]	@ zero_extendqisi2
 1316 01c6 9342     		cmp	r3, r2
 1317 01c8 38BF     		it	cc
 1318 01ca 1346     		movcc	r3, r2
 1319 01cc 3B70     		strb	r3, [r7]
 498:..\src/interruptions.c ****                 for (i=bin_1; i<= bin_2 && i <10; i++){
 1320              		.loc 1 498 0
 1321 01ce 7B78     		ldrb	r3, [r7, #1]
 1322 01d0 FB75     		strb	r3, [r7, #23]
 1323 01d2 0DE0     		b	.L97
 1324              	.L99:
 499:..\src/interruptions.c ****                     //position_hist counts how many times the SoftHand stays in bin while moving
 500:..\src/interruptions.c ****                     g_mem.cnt.position_hist[i] = g_mem.cnt.position_hist[i] + 1;
 1325              		.loc 1 500 0 discriminator 4
 1326 01d4 FB7D     		ldrb	r3, [r7, #23]	@ zero_extendqisi2
 1327 01d6 FA7D     		ldrb	r2, [r7, #23]	@ zero_extendqisi2
 1328 01d8 3449     		ldr	r1, .L155
 1329 01da 0632     		adds	r2, r2, #6
 1330 01dc 51F82220 		ldr	r2, [r1, r2, lsl #2]
 1331 01e0 0132     		adds	r2, r2, #1
 1332 01e2 3249     		ldr	r1, .L155
 1333 01e4 0633     		adds	r3, r3, #6
 1334 01e6 41F82320 		str	r2, [r1, r3, lsl #2]
 498:..\src/interruptions.c ****                 for (i=bin_1; i<= bin_2 && i <10; i++){
 1335              		.loc 1 498 0 discriminator 4
 1336 01ea FB7D     		ldrb	r3, [r7, #23]	@ zero_extendqisi2
 1337 01ec 0133     		adds	r3, r3, #1
 1338 01ee FB75     		strb	r3, [r7, #23]
 1339              	.L97:
 498:..\src/interruptions.c ****                 for (i=bin_1; i<= bin_2 && i <10; i++){
 1340              		.loc 1 498 0 is_stmt 0 discriminator 1
 1341 01f0 FA7D     		ldrb	r2, [r7, #23]	@ zero_extendqisi2
 1342 01f2 3B78     		ldrb	r3, [r7]	@ zero_extendqisi2
 1343 01f4 9A42     		cmp	r2, r3
 1344 01f6 02D8     		bhi	.L98
 498:..\src/interruptions.c ****                 for (i=bin_1; i<= bin_2 && i <10; i++){
 1345              		.loc 1 498 0 discriminator 3
 1346 01f8 FB7D     		ldrb	r3, [r7, #23]	@ zero_extendqisi2
 1347 01fa 092B     		cmp	r3, #9
 1348 01fc EAD9     		bls	.L99
 1349              	.L98:
 501:..\src/interruptions.c ****                 }
 502:..\src/interruptions.c ****                 
 503:..\src/interruptions.c ****                 //update current histogram (only positive current measures)
 504:..\src/interruptions.c ****                 step = ((int32)(g_mem.motor[0].current_limit) / 4);
 1350              		.loc 1 504 0 is_stmt 1
 1351 01fe 2B4B     		ldr	r3, .L155
 1352 0200 B3F90C31 		ldrsh	r3, [r3, #268]
 1353 0204 002B     		cmp	r3, #0
 1354 0206 00DA     		bge	.L100
 1355 0208 0333     		adds	r3, r3, #3
 1356              	.L100:
 1357 020a 9B10     		asrs	r3, r3, #2
 1358 020c 1BB2     		sxth	r3, r3
 1359 020e 7B60     		str	r3, [r7, #4]
 505:..\src/interruptions.c ****                 if (g_mem.motor[0].not_revers_motor_flag == TRUE)
ARM GAS  C:\Users\mgnocco\AppData\Local\Temp\ccuVecaK.s 			page 34


 1360              		.loc 1 505 0
 1361 0210 264B     		ldr	r3, .L155
 1362 0212 93F81231 		ldrb	r3, [r3, #274]	@ zero_extendqisi2
 1363 0216 012B     		cmp	r3, #1
 1364 0218 0CD1     		bne	.L101
 506:..\src/interruptions.c ****                     curr_ref = g_meas[g_mem.motor[0].encoder_line].hold_curr; 
 1365              		.loc 1 506 0
 1366 021a 244B     		ldr	r3, .L155
 1367 021c 93F81031 		ldrb	r3, [r3, #272]	@ zero_extendqisi2
 1368 0220 1946     		mov	r1, r3
 1369 0222 234A     		ldr	r2, .L155+4
 1370 0224 3423     		movs	r3, #52
 1371 0226 03FB01F3 		mul	r3, r3, r1
 1372 022a 1344     		add	r3, r3, r2
 1373 022c 1433     		adds	r3, r3, #20
 1374 022e 1B68     		ldr	r3, [r3]
 1375 0230 3B61     		str	r3, [r7, #16]
 1376 0232 0BE0     		b	.L102
 1377              	.L101:
 507:..\src/interruptions.c ****                 else
 508:..\src/interruptions.c ****                     curr_ref = g_meas[g_mem.motor[0].encoder_line].curr;
 1378              		.loc 1 508 0
 1379 0234 1D4B     		ldr	r3, .L155
 1380 0236 93F81031 		ldrb	r3, [r3, #272]	@ zero_extendqisi2
 1381 023a 1946     		mov	r1, r3
 1382 023c 1C4A     		ldr	r2, .L155+4
 1383 023e 3423     		movs	r3, #52
 1384 0240 03FB01F3 		mul	r3, r3, r1
 1385 0244 1344     		add	r3, r3, r2
 1386 0246 0C33     		adds	r3, r3, #12
 1387 0248 1B68     		ldr	r3, [r3]
 1388 024a 3B61     		str	r3, [r7, #16]
 1389              	.L102:
 509:..\src/interruptions.c **** 
 510:..\src/interruptions.c ****                 if (curr_ref < 0){
 1390              		.loc 1 510 0
 1391 024c 3B69     		ldr	r3, [r7, #16]
 1392 024e 002B     		cmp	r3, #0
 1393 0250 02DA     		bge	.L103
 511:..\src/interruptions.c ****                     curr_ref = -curr_ref;       // Invert sign to have a positive current reading i
 1394              		.loc 1 511 0
 1395 0252 3B69     		ldr	r3, [r7, #16]
 1396 0254 5B42     		negs	r3, r3
 1397 0256 3B61     		str	r3, [r7, #16]
 1398              	.L103:
 512:..\src/interruptions.c ****                 }
 513:..\src/interruptions.c ****                 
 514:..\src/interruptions.c ****                 if (curr_ref > g_mem.motor[0].current_limit)
 1399              		.loc 1 514 0
 1400 0258 144B     		ldr	r3, .L155
 1401 025a B3F90C31 		ldrsh	r3, [r3, #268]
 1402 025e 1A46     		mov	r2, r3
 1403 0260 3B69     		ldr	r3, [r7, #16]
 1404 0262 9A42     		cmp	r2, r3
 1405 0264 05DA     		bge	.L104
 515:..\src/interruptions.c ****                     g_mem.cnt.current_hist[3] = g_mem.cnt.current_hist[3] + 1; 
 1406              		.loc 1 515 0
ARM GAS  C:\Users\mgnocco\AppData\Local\Temp\ccuVecaK.s 			page 35


 1407 0266 114B     		ldr	r3, .L155
 1408 0268 DB6C     		ldr	r3, [r3, #76]
 1409 026a 0133     		adds	r3, r3, #1
 1410 026c 0F4A     		ldr	r2, .L155
 1411 026e D364     		str	r3, [r2, #76]
 1412 0270 12E0     		b	.L96
 1413              	.L104:
 516:..\src/interruptions.c ****                 else
 517:..\src/interruptions.c ****                     g_mem.cnt.current_hist[(uint8)(curr_ref/step)] = g_mem.cnt.current_hist[(uint8)
 1414              		.loc 1 517 0
 1415 0272 3A69     		ldr	r2, [r7, #16]
 1416 0274 7B68     		ldr	r3, [r7, #4]
 1417 0276 92FBF3F3 		sdiv	r3, r2, r3
 1418 027a DBB2     		uxtb	r3, r3
 1419 027c 3969     		ldr	r1, [r7, #16]
 1420 027e 7A68     		ldr	r2, [r7, #4]
 1421 0280 91FBF2F2 		sdiv	r2, r1, r2
 1422 0284 D2B2     		uxtb	r2, r2
 1423 0286 0949     		ldr	r1, .L155
 1424 0288 1032     		adds	r2, r2, #16
 1425 028a 51F82220 		ldr	r2, [r1, r2, lsl #2]
 1426 028e 0132     		adds	r2, r2, #1
 1427 0290 0649     		ldr	r1, .L155
 1428 0292 1033     		adds	r3, r3, #16
 1429 0294 41F82320 		str	r2, [r1, r3, lsl #2]
 1430              	.L96:
 518:..\src/interruptions.c ****             }
 519:..\src/interruptions.c ****             pos_cycle_status = STATE_INACTIVE;
 1431              		.loc 1 519 0
 1432 0298 064B     		ldr	r3, .L155+8
 1433 029a 0022     		movs	r2, #0
 1434 029c 1A70     		strb	r2, [r3]
 520:..\src/interruptions.c ****             break;
 1435              		.loc 1 520 0
 1436 029e 02E0     		b	.L78
 1437              	.L145:
 475:..\src/interruptions.c ****         case STATE_ACTIVE:
 1438              		.loc 1 475 0
 1439 02a0 00BF     		nop
 1440 02a2 00E0     		b	.L78
 1441              	.L146:
 485:..\src/interruptions.c ****         case COUNTER_INC:
 1442              		.loc 1 485 0
 1443 02a4 00BF     		nop
 1444              	.L78:
 521:..\src/interruptions.c ****     }
 522:..\src/interruptions.c ****     
 523:..\src/interruptions.c ****     // State machine - Evaluate EMG activation counter update
 524:..\src/interruptions.c ****     for (i=0; i<2 && emg_1_status == NORMAL && emg_2_status == NORMAL; i++){
 1445              		.loc 1 524 0
 1446 02a6 0023     		movs	r3, #0
 1447 02a8 FB75     		strb	r3, [r7, #23]
 1448 02aa 51E0     		b	.L105
 1449              	.L156:
 1450              		.align	2
 1451              	.L155:
 1452 02ac 00000000 		.word	g_mem
ARM GAS  C:\Users\mgnocco\AppData\Local\Temp\ccuVecaK.s 			page 36


 1453 02b0 00000000 		.word	g_meas
 1454 02b4 94000000 		.word	pos_cycle_status.9759
 1455 02b8 00000000 		.word	pwm_sign
 1456 02bc 98000000 		.word	thr_pos.9766
 1457 02c0 9C000000 		.word	max_pos.9767
 1458 02c4 00000000 		.word	bin_threshold.9764
 1459 02c8 67666666 		.word	1717986919
 1460              	.L113:
 525:..\src/interruptions.c ****         switch (emg_cycle_status[i]){
 1461              		.loc 1 525 0
 1462 02cc FB7D     		ldrb	r3, [r7, #23]	@ zero_extendqisi2
 1463 02ce 9E4A     		ldr	r2, .L157
 1464 02d0 D35C     		ldrb	r3, [r2, r3]	@ zero_extendqisi2
 1465 02d2 012B     		cmp	r3, #1
 1466 02d4 14D0     		beq	.L107
 1467 02d6 022B     		cmp	r3, #2
 1468 02d8 24D0     		beq	.L108
 1469 02da 002B     		cmp	r3, #0
 1470 02dc 35D1     		bne	.L106
 526:..\src/interruptions.c ****             case STATE_INACTIVE:
 527:..\src/interruptions.c ****                 if (g_adc_meas.emg[i] > g_mem.emg.emg_threshold[i]){
 1471              		.loc 1 527 0
 1472 02de FB7D     		ldrb	r3, [r7, #23]	@ zero_extendqisi2
 1473 02e0 9A4A     		ldr	r2, .L157+4
 1474 02e2 52F82330 		ldr	r3, [r2, r3, lsl #2]
 1475 02e6 FA7D     		ldrb	r2, [r7, #23]	@ zero_extendqisi2
 1476 02e8 9949     		ldr	r1, .L157+8
 1477 02ea 02F59872 		add	r2, r2, #304
 1478 02ee 31F81220 		ldrh	r2, [r1, r2, lsl #1]
 1479 02f2 9342     		cmp	r3, r2
 1480 02f4 26DD     		ble	.L147
 528:..\src/interruptions.c ****                     emg_cycle_status[i] = STATE_ACTIVE;
 1481              		.loc 1 528 0
 1482 02f6 FB7D     		ldrb	r3, [r7, #23]	@ zero_extendqisi2
 1483 02f8 934A     		ldr	r2, .L157
 1484 02fa 0121     		movs	r1, #1
 1485 02fc D154     		strb	r1, [r2, r3]
 529:..\src/interruptions.c ****                 }
 530:..\src/interruptions.c ****                 break;
 1486              		.loc 1 530 0
 1487 02fe 21E0     		b	.L147
 1488              	.L107:
 531:..\src/interruptions.c ****             case STATE_ACTIVE:
 532:..\src/interruptions.c ****                 if (g_adc_meas.emg[i] < g_mem.emg.emg_threshold[i]-10){                    
 1489              		.loc 1 532 0
 1490 0300 FB7D     		ldrb	r3, [r7, #23]	@ zero_extendqisi2
 1491 0302 924A     		ldr	r2, .L157+4
 1492 0304 52F82320 		ldr	r2, [r2, r3, lsl #2]
 1493 0308 FB7D     		ldrb	r3, [r7, #23]	@ zero_extendqisi2
 1494 030a 9149     		ldr	r1, .L157+8
 1495 030c 03F59873 		add	r3, r3, #304
 1496 0310 31F81330 		ldrh	r3, [r1, r3, lsl #1]
 1497 0314 0A3B     		subs	r3, r3, #10
 1498 0316 9A42     		cmp	r2, r3
 1499 0318 16DA     		bge	.L148
 533:..\src/interruptions.c ****                     emg_cycle_status[i] = COUNTER_INC;
 1500              		.loc 1 533 0
ARM GAS  C:\Users\mgnocco\AppData\Local\Temp\ccuVecaK.s 			page 37


 1501 031a FB7D     		ldrb	r3, [r7, #23]	@ zero_extendqisi2
 1502 031c 8A4A     		ldr	r2, .L157
 1503 031e 0221     		movs	r1, #2
 1504 0320 D154     		strb	r1, [r2, r3]
 534:..\src/interruptions.c ****                 }
 535:..\src/interruptions.c ****                 break;
 1505              		.loc 1 535 0
 1506 0322 11E0     		b	.L148
 1507              	.L108:
 536:..\src/interruptions.c ****             case COUNTER_INC:
 537:..\src/interruptions.c ****                 g_mem.cnt.emg_act_counter[i] = g_mem.cnt.emg_act_counter[i] + 1;
 1508              		.loc 1 537 0
 1509 0324 FB7D     		ldrb	r3, [r7, #23]	@ zero_extendqisi2
 1510 0326 FA7D     		ldrb	r2, [r7, #23]	@ zero_extendqisi2
 1511 0328 8949     		ldr	r1, .L157+8
 1512 032a 0432     		adds	r2, r2, #4
 1513 032c 51F82220 		ldr	r2, [r1, r2, lsl #2]
 1514 0330 0132     		adds	r2, r2, #1
 1515 0332 8749     		ldr	r1, .L157+8
 1516 0334 0433     		adds	r3, r3, #4
 1517 0336 41F82320 		str	r2, [r1, r3, lsl #2]
 538:..\src/interruptions.c ****                 emg_cycle_status[i] = STATE_INACTIVE;
 1518              		.loc 1 538 0
 1519 033a FB7D     		ldrb	r3, [r7, #23]	@ zero_extendqisi2
 1520 033c 824A     		ldr	r2, .L157
 1521 033e 0021     		movs	r1, #0
 1522 0340 D154     		strb	r1, [r2, r3]
 539:..\src/interruptions.c ****                 break;
 1523              		.loc 1 539 0
 1524 0342 02E0     		b	.L106
 1525              	.L147:
 530:..\src/interruptions.c ****             case STATE_ACTIVE:
 1526              		.loc 1 530 0
 1527 0344 00BF     		nop
 1528 0346 00E0     		b	.L106
 1529              	.L148:
 535:..\src/interruptions.c ****             case COUNTER_INC:
 1530              		.loc 1 535 0
 1531 0348 00BF     		nop
 1532              	.L106:
 524:..\src/interruptions.c ****         switch (emg_cycle_status[i]){
 1533              		.loc 1 524 0 discriminator 2
 1534 034a FB7D     		ldrb	r3, [r7, #23]	@ zero_extendqisi2
 1535 034c 0133     		adds	r3, r3, #1
 1536 034e FB75     		strb	r3, [r7, #23]
 1537              	.L105:
 524:..\src/interruptions.c ****         switch (emg_cycle_status[i]){
 1538              		.loc 1 524 0 is_stmt 0 discriminator 1
 1539 0350 FB7D     		ldrb	r3, [r7, #23]	@ zero_extendqisi2
 1540 0352 012B     		cmp	r3, #1
 1541 0354 07D8     		bhi	.L112
 524:..\src/interruptions.c ****         switch (emg_cycle_status[i]){
 1542              		.loc 1 524 0 discriminator 3
 1543 0356 7F4B     		ldr	r3, .L157+12
 1544 0358 1B78     		ldrb	r3, [r3]	@ zero_extendqisi2
 1545 035a 002B     		cmp	r3, #0
 1546 035c 03D1     		bne	.L112
ARM GAS  C:\Users\mgnocco\AppData\Local\Temp\ccuVecaK.s 			page 38


 524:..\src/interruptions.c ****         switch (emg_cycle_status[i]){
 1547              		.loc 1 524 0 discriminator 4
 1548 035e 7E4B     		ldr	r3, .L157+16
 1549 0360 1B78     		ldrb	r3, [r3]	@ zero_extendqisi2
 1550 0362 002B     		cmp	r3, #0
 1551 0364 B2D0     		beq	.L113
 1552              	.L112:
 540:..\src/interruptions.c ****         }
 541:..\src/interruptions.c ****     }
 542:..\src/interruptions.c ****     
 543:..\src/interruptions.c ****     // State machine - Evaluate Motion counter update
 544:..\src/interruptions.c ****     for (i=0; i<2 && emg_1_status == NORMAL && emg_2_status == NORMAL; i++){
 1553              		.loc 1 544 0 is_stmt 1
 1554 0366 0023     		movs	r3, #0
 1555 0368 FB75     		strb	r3, [r7, #23]
 1556 036a 59E0     		b	.L114
 1557              	.L123:
 545:..\src/interruptions.c ****         switch (motion_status[i]){
 1558              		.loc 1 545 0
 1559 036c FB7D     		ldrb	r3, [r7, #23]	@ zero_extendqisi2
 1560 036e 7B4A     		ldr	r2, .L157+20
 1561 0370 D35C     		ldrb	r3, [r2, r3]	@ zero_extendqisi2
 1562 0372 012B     		cmp	r3, #1
 1563 0374 19D0     		beq	.L116
 1564 0376 022B     		cmp	r3, #2
 1565 0378 39D0     		beq	.L117
 1566 037a 002B     		cmp	r3, #0
 1567 037c 4DD1     		bne	.L115
 546:..\src/interruptions.c ****             case STATE_INACTIVE:
 547:..\src/interruptions.c ****                 if (g_adc_meas.emg[i] > g_mem.emg.emg_threshold[i]){
 1568              		.loc 1 547 0
 1569 037e FB7D     		ldrb	r3, [r7, #23]	@ zero_extendqisi2
 1570 0380 724A     		ldr	r2, .L157+4
 1571 0382 52F82330 		ldr	r3, [r2, r3, lsl #2]
 1572 0386 FA7D     		ldrb	r2, [r7, #23]	@ zero_extendqisi2
 1573 0388 7149     		ldr	r1, .L157+8
 1574 038a 02F59872 		add	r2, r2, #304
 1575 038e 31F81220 		ldrh	r2, [r1, r2, lsl #1]
 1576 0392 9342     		cmp	r3, r2
 1577 0394 3EDD     		ble	.L149
 548:..\src/interruptions.c ****                     start_emg_pos[i] = curr_pos;
 1578              		.loc 1 548 0
 1579 0396 FB7D     		ldrb	r3, [r7, #23]	@ zero_extendqisi2
 1580 0398 7149     		ldr	r1, .L157+24
 1581 039a FA68     		ldr	r2, [r7, #12]
 1582 039c 41F82320 		str	r2, [r1, r3, lsl #2]
 549:..\src/interruptions.c ****                     motion_status[i] = STATE_ACTIVE;
 1583              		.loc 1 549 0
 1584 03a0 FB7D     		ldrb	r3, [r7, #23]	@ zero_extendqisi2
 1585 03a2 6E4A     		ldr	r2, .L157+20
 1586 03a4 0121     		movs	r1, #1
 1587 03a6 D154     		strb	r1, [r2, r3]
 550:..\src/interruptions.c ****                 }
 551:..\src/interruptions.c ****                 break;
 1588              		.loc 1 551 0
 1589 03a8 34E0     		b	.L149
 1590              	.L116:
ARM GAS  C:\Users\mgnocco\AppData\Local\Temp\ccuVecaK.s 			page 39


 552:..\src/interruptions.c ****             case STATE_ACTIVE:
 553:..\src/interruptions.c ****                 if (g_adc_meas.emg[i] < g_mem.emg.emg_threshold[i]-10){                    
 1591              		.loc 1 553 0
 1592 03aa FB7D     		ldrb	r3, [r7, #23]	@ zero_extendqisi2
 1593 03ac 674A     		ldr	r2, .L157+4
 1594 03ae 52F82320 		ldr	r2, [r2, r3, lsl #2]
 1595 03b2 FB7D     		ldrb	r3, [r7, #23]	@ zero_extendqisi2
 1596 03b4 6649     		ldr	r1, .L157+8
 1597 03b6 03F59873 		add	r3, r3, #304
 1598 03ba 31F81330 		ldrh	r3, [r1, r3, lsl #1]
 1599 03be 0A3B     		subs	r3, r3, #10
 1600 03c0 9A42     		cmp	r2, r3
 1601 03c2 29DA     		bge	.L150
 554:..\src/interruptions.c ****                     if (abs(start_emg_pos[i] - curr_pos) > 200){     // it has to be a sensible mov
 1602              		.loc 1 554 0
 1603 03c4 FB7D     		ldrb	r3, [r7, #23]	@ zero_extendqisi2
 1604 03c6 664A     		ldr	r2, .L157+24
 1605 03c8 52F82320 		ldr	r2, [r2, r3, lsl #2]
 1606 03cc FB68     		ldr	r3, [r7, #12]
 1607 03ce D31A     		subs	r3, r2, r3
 1608 03d0 002B     		cmp	r3, #0
 1609 03d2 B8BF     		it	lt
 1610 03d4 5B42     		rsblt	r3, r3, #0
 1611 03d6 C82B     		cmp	r3, #200
 1612 03d8 04DD     		ble	.L121
 555:..\src/interruptions.c ****                         motion_status[i] = COUNTER_INC;
 1613              		.loc 1 555 0
 1614 03da FB7D     		ldrb	r3, [r7, #23]	@ zero_extendqisi2
 1615 03dc 5F4A     		ldr	r2, .L157+20
 1616 03de 0221     		movs	r1, #2
 1617 03e0 D154     		strb	r1, [r2, r3]
 556:..\src/interruptions.c ****                     }
 557:..\src/interruptions.c ****                     else {
 558:..\src/interruptions.c ****                         motion_status[i] = STATE_INACTIVE;
 559:..\src/interruptions.c ****                     }
 560:..\src/interruptions.c ****                 }
 561:..\src/interruptions.c ****                 break;
 1618              		.loc 1 561 0
 1619 03e2 19E0     		b	.L150
 1620              	.L121:
 558:..\src/interruptions.c ****                     }
 1621              		.loc 1 558 0
 1622 03e4 FB7D     		ldrb	r3, [r7, #23]	@ zero_extendqisi2
 1623 03e6 5D4A     		ldr	r2, .L157+20
 1624 03e8 0021     		movs	r1, #0
 1625 03ea D154     		strb	r1, [r2, r3]
 1626              		.loc 1 561 0
 1627 03ec 14E0     		b	.L150
 1628              	.L117:
 562:..\src/interruptions.c ****             case COUNTER_INC:
 563:..\src/interruptions.c ****                 g_mem.cnt.motion_counter[i] = g_mem.cnt.motion_counter[i] + 1;
 1629              		.loc 1 563 0
 1630 03ee F97D     		ldrb	r1, [r7, #23]	@ zero_extendqisi2
 1631 03f0 FB7D     		ldrb	r3, [r7, #23]	@ zero_extendqisi2
 1632 03f2 574A     		ldr	r2, .L157+8
 1633 03f4 1A33     		adds	r3, r3, #26
 1634 03f6 9B00     		lsls	r3, r3, #2
ARM GAS  C:\Users\mgnocco\AppData\Local\Temp\ccuVecaK.s 			page 40


 1635 03f8 1344     		add	r3, r3, r2
 1636 03fa 5B68     		ldr	r3, [r3, #4]
 1637 03fc 5A1C     		adds	r2, r3, #1
 1638 03fe 5448     		ldr	r0, .L157+8
 1639 0400 01F11A03 		add	r3, r1, #26
 1640 0404 9B00     		lsls	r3, r3, #2
 1641 0406 0344     		add	r3, r3, r0
 1642 0408 5A60     		str	r2, [r3, #4]
 564:..\src/interruptions.c ****                 motion_status[i] = STATE_INACTIVE;
 1643              		.loc 1 564 0
 1644 040a FB7D     		ldrb	r3, [r7, #23]	@ zero_extendqisi2
 1645 040c 534A     		ldr	r2, .L157+20
 1646 040e 0021     		movs	r1, #0
 1647 0410 D154     		strb	r1, [r2, r3]
 565:..\src/interruptions.c ****                 break;
 1648              		.loc 1 565 0
 1649 0412 02E0     		b	.L115
 1650              	.L149:
 551:..\src/interruptions.c ****             case STATE_ACTIVE:
 1651              		.loc 1 551 0
 1652 0414 00BF     		nop
 1653 0416 00E0     		b	.L115
 1654              	.L150:
 561:..\src/interruptions.c ****             case COUNTER_INC:
 1655              		.loc 1 561 0
 1656 0418 00BF     		nop
 1657              	.L115:
 544:..\src/interruptions.c ****         switch (motion_status[i]){
 1658              		.loc 1 544 0 discriminator 2
 1659 041a FB7D     		ldrb	r3, [r7, #23]	@ zero_extendqisi2
 1660 041c 0133     		adds	r3, r3, #1
 1661 041e FB75     		strb	r3, [r7, #23]
 1662              	.L114:
 544:..\src/interruptions.c ****         switch (motion_status[i]){
 1663              		.loc 1 544 0 is_stmt 0 discriminator 1
 1664 0420 FB7D     		ldrb	r3, [r7, #23]	@ zero_extendqisi2
 1665 0422 012B     		cmp	r3, #1
 1666 0424 07D8     		bhi	.L122
 544:..\src/interruptions.c ****         switch (motion_status[i]){
 1667              		.loc 1 544 0 discriminator 3
 1668 0426 4B4B     		ldr	r3, .L157+12
 1669 0428 1B78     		ldrb	r3, [r3]	@ zero_extendqisi2
 1670 042a 002B     		cmp	r3, #0
 1671 042c 03D1     		bne	.L122
 544:..\src/interruptions.c ****         switch (motion_status[i]){
 1672              		.loc 1 544 0 discriminator 4
 1673 042e 4A4B     		ldr	r3, .L157+16
 1674 0430 1B78     		ldrb	r3, [r3]	@ zero_extendqisi2
 1675 0432 002B     		cmp	r3, #0
 1676 0434 9AD0     		beq	.L123
 1677              	.L122:
 566:..\src/interruptions.c ****         }
 567:..\src/interruptions.c ****     }
 568:..\src/interruptions.c ****     
 569:..\src/interruptions.c ****     // State machine - Evaluate EMG excessive activity counter update
 570:..\src/interruptions.c ****     for (i=0; i<2 && emg_1_status == NORMAL && emg_2_status == NORMAL; i++){
 1678              		.loc 1 570 0 is_stmt 1
ARM GAS  C:\Users\mgnocco\AppData\Local\Temp\ccuVecaK.s 			page 41


 1679 0436 0023     		movs	r3, #0
 1680 0438 FB75     		strb	r3, [r7, #23]
 1681 043a A3E0     		b	.L124
 1682              	.L135:
 571:..\src/interruptions.c ****         switch (emg_excess_status[i]){
 1683              		.loc 1 571 0
 1684 043c FB7D     		ldrb	r3, [r7, #23]	@ zero_extendqisi2
 1685 043e 494A     		ldr	r2, .L157+28
 1686 0440 D35C     		ldrb	r3, [r2, r3]	@ zero_extendqisi2
 1687 0442 012B     		cmp	r3, #1
 1688 0444 19D0     		beq	.L126
 1689 0446 022B     		cmp	r3, #2
 1690 0448 68D0     		beq	.L127
 1691 044a 002B     		cmp	r3, #0
 1692 044c 40F09780 		bne	.L125
 572:..\src/interruptions.c ****             case STATE_INACTIVE:
 573:..\src/interruptions.c ****                 if (g_adc_meas.emg[i] > exc_act_thr){
 1693              		.loc 1 573 0
 1694 0450 FB7D     		ldrb	r3, [r7, #23]	@ zero_extendqisi2
 1695 0452 3E4A     		ldr	r2, .L157+4
 1696 0454 52F82320 		ldr	r2, [r2, r3, lsl #2]
 1697 0458 434B     		ldr	r3, .L157+32
 1698 045a 1B68     		ldr	r3, [r3]
 1699 045c 9A42     		cmp	r2, r3
 1700 045e 70DD     		ble	.L151
 574:..\src/interruptions.c ****                     timer_exc_s[i] = (uint32)CYCLES_TIMER_ReadCounter();
 1701              		.loc 1 574 0
 1702 0460 FC7D     		ldrb	r4, [r7, #23]	@ zero_extendqisi2
 1703 0462 FFF7FEFF 		bl	CYCLES_TIMER_ReadCounter
 1704 0466 0346     		mov	r3, r0
 1705 0468 1A46     		mov	r2, r3
 1706 046a 404B     		ldr	r3, .L157+36
 1707 046c 43F82420 		str	r2, [r3, r4, lsl #2]
 575:..\src/interruptions.c ****                     emg_excess_status[i] = STATE_ACTIVE;
 1708              		.loc 1 575 0
 1709 0470 FB7D     		ldrb	r3, [r7, #23]	@ zero_extendqisi2
 1710 0472 3C4A     		ldr	r2, .L157+28
 1711 0474 0121     		movs	r1, #1
 1712 0476 D154     		strb	r1, [r2, r3]
 576:..\src/interruptions.c ****                 }
 577:..\src/interruptions.c ****                 break;
 1713              		.loc 1 577 0
 1714 0478 63E0     		b	.L151
 1715              	.L126:
 578:..\src/interruptions.c ****             case STATE_ACTIVE:
 579:..\src/interruptions.c ****                 if (g_adc_meas.emg[i] < exc_act_thr-10){
 1716              		.loc 1 579 0
 1717 047a FB7D     		ldrb	r3, [r7, #23]	@ zero_extendqisi2
 1718 047c 334A     		ldr	r2, .L157+4
 1719 047e 52F82320 		ldr	r2, [r2, r3, lsl #2]
 1720 0482 394B     		ldr	r3, .L157+32
 1721 0484 1B68     		ldr	r3, [r3]
 1722 0486 0A3B     		subs	r3, r3, #10
 1723 0488 9A42     		cmp	r2, r3
 1724 048a 77DA     		bge	.L152
 580:..\src/interruptions.c ****                     timer_exc_e[i] = (uint32)CYCLES_TIMER_ReadCounter();
 1725              		.loc 1 580 0
ARM GAS  C:\Users\mgnocco\AppData\Local\Temp\ccuVecaK.s 			page 42


 1726 048c FC7D     		ldrb	r4, [r7, #23]	@ zero_extendqisi2
 1727 048e FFF7FEFF 		bl	CYCLES_TIMER_ReadCounter
 1728 0492 0346     		mov	r3, r0
 1729 0494 1A46     		mov	r2, r3
 1730 0496 364B     		ldr	r3, .L157+40
 1731 0498 43F82420 		str	r2, [r3, r4, lsl #2]
 581:..\src/interruptions.c ****                     if (timer_exc_s[i] < timer_exc_e[i]) {
 1732              		.loc 1 581 0
 1733 049c FB7D     		ldrb	r3, [r7, #23]	@ zero_extendqisi2
 1734 049e 334A     		ldr	r2, .L157+36
 1735 04a0 52F82320 		ldr	r2, [r2, r3, lsl #2]
 1736 04a4 FB7D     		ldrb	r3, [r7, #23]	@ zero_extendqisi2
 1737 04a6 3249     		ldr	r1, .L157+40
 1738 04a8 51F82330 		ldr	r3, [r1, r3, lsl #2]
 1739 04ac 9A42     		cmp	r2, r3
 1740 04ae 0AD2     		bcs	.L131
 582:..\src/interruptions.c ****                         timer_exc_s[i] = timer_exc_s[i] + (uint32)6000;
 1741              		.loc 1 582 0
 1742 04b0 FA7D     		ldrb	r2, [r7, #23]	@ zero_extendqisi2
 1743 04b2 FB7D     		ldrb	r3, [r7, #23]	@ zero_extendqisi2
 1744 04b4 2D49     		ldr	r1, .L157+36
 1745 04b6 51F82330 		ldr	r3, [r1, r3, lsl #2]
 1746 04ba 03F5BB53 		add	r3, r3, #5984
 1747 04be 1033     		adds	r3, r3, #16
 1748 04c0 2A49     		ldr	r1, .L157+36
 1749 04c2 41F82230 		str	r3, [r1, r2, lsl #2]
 1750              	.L131:
 583:..\src/interruptions.c ****                     }
 584:..\src/interruptions.c ****                     if (((float)(timer_exc_s[i] - timer_exc_e[i])/50.0) > 4.0){      //50 timers ti
 1751              		.loc 1 584 0
 1752 04c6 FB7D     		ldrb	r3, [r7, #23]	@ zero_extendqisi2
 1753 04c8 284A     		ldr	r2, .L157+36
 1754 04ca 52F82320 		ldr	r2, [r2, r3, lsl #2]
 1755 04ce FB7D     		ldrb	r3, [r7, #23]	@ zero_extendqisi2
 1756 04d0 2749     		ldr	r1, .L157+40
 1757 04d2 51F82330 		ldr	r3, [r1, r3, lsl #2]
 1758 04d6 D31A     		subs	r3, r2, r3
 1759 04d8 1846     		mov	r0, r3
 1760 04da FFF7FEFF 		bl	__aeabi_ui2f
 1761 04de 0346     		mov	r3, r0
 1762 04e0 1846     		mov	r0, r3
 1763 04e2 FFF7FEFF 		bl	__aeabi_f2d
 1764 04e6 4FF00002 		mov	r2, #0
 1765 04ea 224B     		ldr	r3, .L157+44
 1766 04ec FFF7FEFF 		bl	__aeabi_ddiv
 1767 04f0 0346     		mov	r3, r0
 1768 04f2 0C46     		mov	r4, r1
 1769 04f4 1846     		mov	r0, r3
 1770 04f6 2146     		mov	r1, r4
 1771 04f8 4FF00002 		mov	r2, #0
 1772 04fc 1E4B     		ldr	r3, .L157+48
 1773 04fe FFF7FEFF 		bl	__aeabi_dcmpgt
 1774 0502 0346     		mov	r3, r0
 1775 0504 002B     		cmp	r3, #0
 1776 0506 04D0     		beq	.L144
 585:..\src/interruptions.c ****                         emg_excess_status[i] = COUNTER_INC;
 1777              		.loc 1 585 0
ARM GAS  C:\Users\mgnocco\AppData\Local\Temp\ccuVecaK.s 			page 43


 1778 0508 FB7D     		ldrb	r3, [r7, #23]	@ zero_extendqisi2
 1779 050a 164A     		ldr	r2, .L157+28
 1780 050c 0221     		movs	r1, #2
 1781 050e D154     		strb	r1, [r2, r3]
 586:..\src/interruptions.c ****                     }
 587:..\src/interruptions.c ****                     else {
 588:..\src/interruptions.c ****                         emg_excess_status[i] = STATE_INACTIVE;
 589:..\src/interruptions.c ****                     }
 590:..\src/interruptions.c ****                 }
 591:..\src/interruptions.c ****                 break;
 1782              		.loc 1 591 0
 1783 0510 34E0     		b	.L152
 1784              	.L144:
 588:..\src/interruptions.c ****                     }
 1785              		.loc 1 588 0
 1786 0512 FB7D     		ldrb	r3, [r7, #23]	@ zero_extendqisi2
 1787 0514 134A     		ldr	r2, .L157+28
 1788 0516 0021     		movs	r1, #0
 1789 0518 D154     		strb	r1, [r2, r3]
 1790              		.loc 1 591 0
 1791 051a 2FE0     		b	.L152
 1792              	.L127:
 592:..\src/interruptions.c ****             case COUNTER_INC:
 593:..\src/interruptions.c ****                 g_mem.cnt.excessive_signal_activity[i] = g_mem.cnt.excessive_signal_activity[i] + 1
 1793              		.loc 1 593 0
 1794 051c F97D     		ldrb	r1, [r7, #23]	@ zero_extendqisi2
 1795 051e FB7D     		ldrb	r3, [r7, #23]	@ zero_extendqisi2
 1796 0520 0B4A     		ldr	r2, .L157+8
 1797 0522 1833     		adds	r3, r3, #24
 1798 0524 9B00     		lsls	r3, r3, #2
 1799 0526 1344     		add	r3, r3, r2
 1800 0528 5B68     		ldr	r3, [r3, #4]
 1801 052a 5A1C     		adds	r2, r3, #1
 1802 052c 0848     		ldr	r0, .L157+8
 1803 052e 01F11803 		add	r3, r1, #24
 1804 0532 9B00     		lsls	r3, r3, #2
 1805 0534 0344     		add	r3, r3, r0
 1806 0536 5A60     		str	r2, [r3, #4]
 594:..\src/interruptions.c ****                 emg_excess_status[i] = STATE_INACTIVE;
 1807              		.loc 1 594 0
 1808 0538 FB7D     		ldrb	r3, [r7, #23]	@ zero_extendqisi2
 1809 053a 0A4A     		ldr	r2, .L157+28
 1810 053c 0021     		movs	r1, #0
 1811 053e D154     		strb	r1, [r2, r3]
 595:..\src/interruptions.c ****                 break;
 1812              		.loc 1 595 0
 1813 0540 1DE0     		b	.L125
 1814              	.L151:
 577:..\src/interruptions.c ****             case STATE_ACTIVE:
 1815              		.loc 1 577 0
 1816 0542 00BF     		nop
 1817 0544 1BE0     		b	.L125
 1818              	.L158:
 1819 0546 00BF     		.align	2
 1820              	.L157:
 1821 0548 A0000000 		.word	emg_cycle_status.9760
 1822 054c 00000000 		.word	g_adc_meas
ARM GAS  C:\Users\mgnocco\AppData\Local\Temp\ccuVecaK.s 			page 44


 1823 0550 00000000 		.word	g_mem
 1824 0554 00000000 		.word	emg_1_status
 1825 0558 00000000 		.word	emg_2_status
 1826 055c A4000000 		.word	motion_status.9761
 1827 0560 A8000000 		.word	start_emg_pos.9781
 1828 0564 B0000000 		.word	emg_excess_status.9762
 1829 0568 04000000 		.word	exc_act_thr.9765
 1830 056c B4000000 		.word	timer_exc_s.9779
 1831 0570 BC000000 		.word	timer_exc_e.9780
 1832 0574 00004940 		.word	1078525952
 1833 0578 00001040 		.word	1074790400
 1834              	.L152:
 591:..\src/interruptions.c ****             case COUNTER_INC:
 1835              		.loc 1 591 0
 1836 057c 00BF     		nop
 1837              	.L125:
 570:..\src/interruptions.c ****         switch (emg_excess_status[i]){
 1838              		.loc 1 570 0 discriminator 2
 1839 057e FB7D     		ldrb	r3, [r7, #23]	@ zero_extendqisi2
 1840 0580 0133     		adds	r3, r3, #1
 1841 0582 FB75     		strb	r3, [r7, #23]
 1842              	.L124:
 570:..\src/interruptions.c ****         switch (emg_excess_status[i]){
 1843              		.loc 1 570 0 is_stmt 0 discriminator 1
 1844 0584 FB7D     		ldrb	r3, [r7, #23]	@ zero_extendqisi2
 1845 0586 012B     		cmp	r3, #1
 1846 0588 08D8     		bhi	.L134
 570:..\src/interruptions.c ****         switch (emg_excess_status[i]){
 1847              		.loc 1 570 0 discriminator 3
 1848 058a 2D4B     		ldr	r3, .L159
 1849 058c 1B78     		ldrb	r3, [r3]	@ zero_extendqisi2
 1850 058e 002B     		cmp	r3, #0
 1851 0590 04D1     		bne	.L134
 570:..\src/interruptions.c ****         switch (emg_excess_status[i]){
 1852              		.loc 1 570 0 discriminator 4
 1853 0592 2C4B     		ldr	r3, .L159+4
 1854 0594 1B78     		ldrb	r3, [r3]	@ zero_extendqisi2
 1855 0596 002B     		cmp	r3, #0
 1856 0598 3FF450AF 		beq	.L135
 1857              	.L134:
 596:..\src/interruptions.c ****         }
 597:..\src/interruptions.c ****     }
 598:..\src/interruptions.c ****     
 599:..\src/interruptions.c ****     // State machine - Evaluate rest counter update
 600:..\src/interruptions.c ****     switch (rest_cycle_status){
 1858              		.loc 1 600 0 is_stmt 1
 1859 059c 2A4B     		ldr	r3, .L159+8
 1860 059e 1B78     		ldrb	r3, [r3]	@ zero_extendqisi2
 1861 05a0 012B     		cmp	r3, #1
 1862 05a2 11D0     		beq	.L137
 1863 05a4 022B     		cmp	r3, #2
 1864 05a6 2AD0     		beq	.L138
 1865 05a8 002B     		cmp	r3, #0
 1866 05aa 42D1     		bne	.L136
 601:..\src/interruptions.c ****         case STATE_INACTIVE:
 602:..\src/interruptions.c ****             if (rest_enabled){
 1867              		.loc 1 602 0
ARM GAS  C:\Users\mgnocco\AppData\Local\Temp\ccuVecaK.s 			page 45


 1868 05ac 274B     		ldr	r3, .L159+12
 1869 05ae 1B78     		ldrb	r3, [r3]	@ zero_extendqisi2
 1870 05b0 002B     		cmp	r3, #0
 1871 05b2 3BD0     		beq	.L153
 603:..\src/interruptions.c ****                 timer_value_s = (uint32)CYCLES_TIMER_ReadCounter();
 1872              		.loc 1 603 0
 1873 05b4 FFF7FEFF 		bl	CYCLES_TIMER_ReadCounter
 1874 05b8 0346     		mov	r3, r0
 1875 05ba 1A46     		mov	r2, r3
 1876 05bc 244B     		ldr	r3, .L159+16
 1877 05be 1A60     		str	r2, [r3]
 604:..\src/interruptions.c ****                 rest_cycle_status = STATE_ACTIVE;
 1878              		.loc 1 604 0
 1879 05c0 214B     		ldr	r3, .L159+8
 1880 05c2 0122     		movs	r2, #1
 1881 05c4 1A70     		strb	r2, [r3]
 605:..\src/interruptions.c ****             }
 606:..\src/interruptions.c ****             break;
 1882              		.loc 1 606 0
 1883 05c6 31E0     		b	.L153
 1884              	.L137:
 607:..\src/interruptions.c ****         case STATE_ACTIVE:
 608:..\src/interruptions.c ****             if (!rest_enabled){
 1885              		.loc 1 608 0
 1886 05c8 204B     		ldr	r3, .L159+12
 1887 05ca 1B78     		ldrb	r3, [r3]	@ zero_extendqisi2
 1888 05cc 002B     		cmp	r3, #0
 1889 05ce 2FD1     		bne	.L154
 609:..\src/interruptions.c ****                 timer_value_e = (uint32)CYCLES_TIMER_ReadCounter();
 1890              		.loc 1 609 0
 1891 05d0 FFF7FEFF 		bl	CYCLES_TIMER_ReadCounter
 1892 05d4 0346     		mov	r3, r0
 1893 05d6 1A46     		mov	r2, r3
 1894 05d8 1E4B     		ldr	r3, .L159+20
 1895 05da 1A60     		str	r2, [r3]
 610:..\src/interruptions.c ****                 if (timer_value_s < timer_value_e) {
 1896              		.loc 1 610 0
 1897 05dc 1C4B     		ldr	r3, .L159+16
 1898 05de 1A68     		ldr	r2, [r3]
 1899 05e0 1C4B     		ldr	r3, .L159+20
 1900 05e2 1B68     		ldr	r3, [r3]
 1901 05e4 9A42     		cmp	r2, r3
 1902 05e6 06D2     		bcs	.L142
 611:..\src/interruptions.c ****                     timer_value_s = timer_value_s + (uint32)6000;
 1903              		.loc 1 611 0
 1904 05e8 194B     		ldr	r3, .L159+16
 1905 05ea 1B68     		ldr	r3, [r3]
 1906 05ec 03F5BB53 		add	r3, r3, #5984
 1907 05f0 1033     		adds	r3, r3, #16
 1908 05f2 174A     		ldr	r2, .L159+16
 1909 05f4 1360     		str	r3, [r2]
 1910              	.L142:
 612:..\src/interruptions.c ****                 }
 613:..\src/interruptions.c ****                 rest_cycle_status = COUNTER_INC;
 1911              		.loc 1 613 0
 1912 05f6 144B     		ldr	r3, .L159+8
 1913 05f8 0222     		movs	r2, #2
ARM GAS  C:\Users\mgnocco\AppData\Local\Temp\ccuVecaK.s 			page 46


 1914 05fa 1A70     		strb	r2, [r3]
 614:..\src/interruptions.c ****             }
 615:..\src/interruptions.c ****             break;
 1915              		.loc 1 615 0
 1916 05fc 18E0     		b	.L154
 1917              	.L138:
 616:..\src/interruptions.c ****         case COUNTER_INC: 
 617:..\src/interruptions.c ****             g_mem.cnt.total_time_rest = g_mem.cnt.total_time_rest + (uint32)((timer_value_s - timer
 1918              		.loc 1 617 0
 1919 05fe 164B     		ldr	r3, .L159+24
 1920 0600 DA6D     		ldr	r2, [r3, #92]
 1921 0602 134B     		ldr	r3, .L159+16
 1922 0604 1968     		ldr	r1, [r3]
 1923 0606 134B     		ldr	r3, .L159+20
 1924 0608 1B68     		ldr	r3, [r3]
 1925 060a CB1A     		subs	r3, r1, r3
 1926 060c 1349     		ldr	r1, .L159+28
 1927 060e A1FB0313 		umull	r1, r3, r1, r3
 1928 0612 1B09     		lsrs	r3, r3, #4
 1929 0614 1344     		add	r3, r3, r2
 1930 0616 104A     		ldr	r2, .L159+24
 1931 0618 D365     		str	r3, [r2, #92]
 618:..\src/interruptions.c ****             g_mem.cnt.rest_counter = g_mem.cnt.rest_counter + 1;
 1932              		.loc 1 618 0
 1933 061a 0F4B     		ldr	r3, .L159+24
 1934 061c 1B6D     		ldr	r3, [r3, #80]
 1935 061e 0133     		adds	r3, r3, #1
 1936 0620 0D4A     		ldr	r2, .L159+24
 1937 0622 1365     		str	r3, [r2, #80]
 619:..\src/interruptions.c ****             rest_cycle_status = STATE_INACTIVE;
 1938              		.loc 1 619 0
 1939 0624 084B     		ldr	r3, .L159+8
 1940 0626 0022     		movs	r2, #0
 1941 0628 1A70     		strb	r2, [r3]
 620:..\src/interruptions.c ****             break;
 1942              		.loc 1 620 0
 1943 062a 02E0     		b	.L136
 1944              	.L153:
 606:..\src/interruptions.c ****         case STATE_ACTIVE:
 1945              		.loc 1 606 0
 1946 062c 00BF     		nop
 1947 062e 00E0     		b	.L136
 1948              	.L154:
 615:..\src/interruptions.c ****         case COUNTER_INC: 
 1949              		.loc 1 615 0
 1950 0630 00BF     		nop
 1951              	.L136:
 621:..\src/interruptions.c ****     }
 622:..\src/interruptions.c ****           
 623:..\src/interruptions.c ****     // This function writes rows [row_start, row_end] on EEPROM
 624:..\src/interruptions.c ****     save_cycles_eeprom();
 1952              		.loc 1 624 0
 1953 0632 FFF7FEFF 		bl	save_cycles_eeprom
 625:..\src/interruptions.c ****     
 626:..\src/interruptions.c **** }
 1954              		.loc 1 626 0
 1955 0636 00BF     		nop
ARM GAS  C:\Users\mgnocco\AppData\Local\Temp\ccuVecaK.s 			page 47


 1956 0638 1C37     		adds	r7, r7, #28
 1957              		.cfi_def_cfa_offset 12
 1958 063a BD46     		mov	sp, r7
 1959              		.cfi_def_cfa_register 13
 1960              		@ sp needed
 1961 063c 90BD     		pop	{r4, r7, pc}
 1962              	.L160:
 1963 063e 00BF     		.align	2
 1964              	.L159:
 1965 0640 00000000 		.word	emg_1_status
 1966 0644 00000000 		.word	emg_2_status
 1967 0648 C4000000 		.word	rest_cycle_status.9763
 1968 064c 00000000 		.word	rest_enabled
 1969 0650 C8000000 		.word	timer_value_s.9777
 1970 0654 CC000000 		.word	timer_value_e.9778
 1971 0658 00000000 		.word	g_mem
 1972 065c 1F85EB51 		.word	1374389535
 1973              		.cfi_endproc
 1974              	.LFE73:
 1975              		.size	cycles_counter_update, .-cycles_counter_update
 1976              		.section	.text.save_cycles_eeprom,"ax",%progbits
 1977              		.align	2
 1978              		.global	save_cycles_eeprom
 1979              		.thumb
 1980              		.thumb_func
 1981              		.type	save_cycles_eeprom, %function
 1982              	save_cycles_eeprom:
 1983              	.LFB74:
 627:..\src/interruptions.c **** 
 628:..\src/interruptions.c **** //==============================================================================
 629:..\src/interruptions.c **** //                                                            SAVE CYCLES EEPROM
 630:..\src/interruptions.c **** //==============================================================================
 631:..\src/interruptions.c **** 
 632:..\src/interruptions.c **** void save_cycles_eeprom() {
 1984              		.loc 1 632 0
 1985              		.cfi_startproc
 1986              		@ args = 0, pretend = 0, frame = 24
 1987              		@ frame_needed = 1, uses_anonymous_args = 0
 1988 0000 80B5     		push	{r7, lr}
 1989              		.cfi_def_cfa_offset 8
 1990              		.cfi_offset 7, -8
 1991              		.cfi_offset 14, -4
 1992 0002 86B0     		sub	sp, sp, #24
 1993              		.cfi_def_cfa_offset 32
 1994 0004 00AF     		add	r7, sp, #0
 1995              		.cfi_def_cfa_register 7
 633:..\src/interruptions.c **** 
 634:..\src/interruptions.c ****     cystatus status;
 635:..\src/interruptions.c ****     static uint8 row_number;
 636:..\src/interruptions.c ****     uint8 row_start = 1;
 1996              		.loc 1 636 0
 1997 0006 0123     		movs	r3, #1
 1998 0008 FB75     		strb	r3, [r7, #23]
 637:..\src/interruptions.c ****     uint8* addr_start   = (uint8*)&g_mem.cnt.emg_act_counter[0];    //Data at beginning of the row 
 1999              		.loc 1 637 0
 2000 000a 394B     		ldr	r3, .L177
 2001 000c 3B61     		str	r3, [r7, #16]
ARM GAS  C:\Users\mgnocco\AppData\Local\Temp\ccuVecaK.s 			page 48


 638:..\src/interruptions.c ****     uint8* addr_start_c = (uint8*)&c_mem.cnt.emg_act_counter[0];
 2002              		.loc 1 638 0
 2003 000e 394B     		ldr	r3, .L177+4
 2004 0010 FB60     		str	r3, [r7, #12]
 639:..\src/interruptions.c ****     uint8 row_end   = row_start + EEPROM_COUNTERS_ROWS - 1;
 2005              		.loc 1 639 0
 2006 0012 FB7D     		ldrb	r3, [r7, #23]
 2007 0014 0633     		adds	r3, r3, #6
 2008 0016 FB72     		strb	r3, [r7, #11]
 640:..\src/interruptions.c ****     static uint8* m_addr = NULL; 
 641:..\src/interruptions.c **** 
 642:..\src/interruptions.c ****     // This part of code writes rows [row_start, row_end] on EEPROM    
 643:..\src/interruptions.c ****     switch(cycles_status) {
 2009              		.loc 1 643 0
 2010 0018 374B     		ldr	r3, .L177+8
 2011 001a 1B78     		ldrb	r3, [r3]	@ zero_extendqisi2
 2012 001c 042B     		cmp	r3, #4
 2013 001e 63D8     		bhi	.L173
 2014 0020 01A2     		adr	r2, .L164
 2015 0022 52F823F0 		ldr	pc, [r2, r3, lsl #2]
 2016 0026 00BF     		.p2align 2
 2017              	.L164:
 2018 0028 3D000000 		.word	.L163+1
 2019 002c 5B000000 		.word	.L165+1
 2020 0030 8B000000 		.word	.L166+1
 2021 0034 C7000000 		.word	.L167+1
 2022 0038 DF000000 		.word	.L174+1
 2023              		.p2align 1
 2024              	.L163:
 644:..\src/interruptions.c ****         case PREPARE_DATA:
 645:..\src/interruptions.c ****             // Store data in c_mem structure to have consistent counters
 646:..\src/interruptions.c ****             memcpy( addr_start_c, addr_start, EEPROM_BYTES_ROW*EEPROM_COUNTERS_ROWS );            
 2025              		.loc 1 646 0
 2026 003c 7022     		movs	r2, #112
 2027 003e 3969     		ldr	r1, [r7, #16]
 2028 0040 F868     		ldr	r0, [r7, #12]
 2029 0042 FFF7FEFF 		bl	memcpy
 647:..\src/interruptions.c ****             m_addr = addr_start;
 2030              		.loc 1 647 0
 2031 0046 2D4A     		ldr	r2, .L177+12
 2032 0048 3B69     		ldr	r3, [r7, #16]
 2033 004a 1360     		str	r3, [r2]
 648:..\src/interruptions.c ****             row_number = row_start;
 2034              		.loc 1 648 0
 2035 004c 2C4A     		ldr	r2, .L177+16
 2036 004e FB7D     		ldrb	r3, [r7, #23]
 2037 0050 1370     		strb	r3, [r2]
 649:..\src/interruptions.c ****             cycles_status = WRITE_CYCLES;
 2038              		.loc 1 649 0
 2039 0052 294B     		ldr	r3, .L177+8
 2040 0054 0122     		movs	r2, #1
 2041 0056 1A70     		strb	r2, [r3]
 650:..\src/interruptions.c ****             break;
 2042              		.loc 1 650 0
 2043 0058 46E0     		b	.L162
 2044              	.L165:
 651:..\src/interruptions.c ****             
ARM GAS  C:\Users\mgnocco\AppData\Local\Temp\ccuVecaK.s 			page 49


 652:..\src/interruptions.c ****         case WRITE_CYCLES:
 653:..\src/interruptions.c ****             EEPROM_UpdateTemperature();     //Check temperature of chip before writing
 2045              		.loc 1 653 0
 2046 005a FFF7FEFF 		bl	EEPROM_UpdateTemperature
 654:..\src/interruptions.c ****             status = EEPROM_StartWrite((uint8*) m_addr, row_number);           
 2047              		.loc 1 654 0
 2048 005e 274B     		ldr	r3, .L177+12
 2049 0060 1A68     		ldr	r2, [r3]
 2050 0062 274B     		ldr	r3, .L177+16
 2051 0064 1B78     		ldrb	r3, [r3]	@ zero_extendqisi2
 2052 0066 1946     		mov	r1, r3
 2053 0068 1046     		mov	r0, r2
 2054 006a FFF7FEFF 		bl	EEPROM_StartWrite
 2055 006e 7860     		str	r0, [r7, #4]
 655:..\src/interruptions.c ****             if(status == CYRET_STARTED || status == CYRET_SUCCESS) {
 2056              		.loc 1 655 0
 2057 0070 7B68     		ldr	r3, [r7, #4]
 2058 0072 072B     		cmp	r3, #7
 2059 0074 02D0     		beq	.L169
 2060              		.loc 1 655 0 is_stmt 0 discriminator 1
 2061 0076 7B68     		ldr	r3, [r7, #4]
 2062 0078 002B     		cmp	r3, #0
 2063 007a 32D1     		bne	.L175
 2064              	.L169:
 656:..\src/interruptions.c ****                 cycles_status = WAIT_QUERY;
 2065              		.loc 1 656 0 is_stmt 1
 2066 007c 1E4B     		ldr	r3, .L177+8
 2067 007e 0222     		movs	r2, #2
 2068 0080 1A70     		strb	r2, [r3]
 657:..\src/interruptions.c ****                 can_write = FALSE;
 2069              		.loc 1 657 0
 2070 0082 204B     		ldr	r3, .L177+20
 2071 0084 0022     		movs	r2, #0
 2072 0086 1A70     		strb	r2, [r3]
 658:..\src/interruptions.c ****             }
 659:..\src/interruptions.c ****             break;
 2073              		.loc 1 659 0
 2074 0088 2BE0     		b	.L175
 2075              	.L166:
 660:..\src/interruptions.c ****             
 661:..\src/interruptions.c ****         case WAIT_QUERY:
 662:..\src/interruptions.c ****             status = EEPROM_Query();
 2076              		.loc 1 662 0
 2077 008a FFF7FEFF 		bl	EEPROM_Query
 2078 008e 7860     		str	r0, [r7, #4]
 663:..\src/interruptions.c ****             if(status == CYRET_SUCCESS) {
 2079              		.loc 1 663 0
 2080 0090 7B68     		ldr	r3, [r7, #4]
 2081 0092 002B     		cmp	r3, #0
 2082 0094 27D1     		bne	.L176
 664:..\src/interruptions.c ****                 if (row_number < row_end) {
 2083              		.loc 1 664 0
 2084 0096 1A4B     		ldr	r3, .L177+16
 2085 0098 1B78     		ldrb	r3, [r3]	@ zero_extendqisi2
 2086 009a FA7A     		ldrb	r2, [r7, #11]	@ zero_extendqisi2
 2087 009c 9A42     		cmp	r2, r3
 2088 009e 0ED9     		bls	.L172
ARM GAS  C:\Users\mgnocco\AppData\Local\Temp\ccuVecaK.s 			page 50


 665:..\src/interruptions.c ****                     m_addr = m_addr + EEPROM_BYTES_ROW;
 2089              		.loc 1 665 0
 2090 00a0 164B     		ldr	r3, .L177+12
 2091 00a2 1B68     		ldr	r3, [r3]
 2092 00a4 1033     		adds	r3, r3, #16
 2093 00a6 154A     		ldr	r2, .L177+12
 2094 00a8 1360     		str	r3, [r2]
 666:..\src/interruptions.c ****                     row_number = row_number + 1;
 2095              		.loc 1 666 0
 2096 00aa 154B     		ldr	r3, .L177+16
 2097 00ac 1B78     		ldrb	r3, [r3]	@ zero_extendqisi2
 2098 00ae 0133     		adds	r3, r3, #1
 2099 00b0 DAB2     		uxtb	r2, r3
 2100 00b2 134B     		ldr	r3, .L177+16
 2101 00b4 1A70     		strb	r2, [r3]
 667:..\src/interruptions.c ****                     cycles_status = WRITE_CYCLES;
 2102              		.loc 1 667 0
 2103 00b6 104B     		ldr	r3, .L177+8
 2104 00b8 0122     		movs	r2, #1
 2105 00ba 1A70     		strb	r2, [r3]
 668:..\src/interruptions.c ****                 }
 669:..\src/interruptions.c ****                 else {
 670:..\src/interruptions.c ****                     cycles_status = WRITE_END;
 671:..\src/interruptions.c ****                 }
 672:..\src/interruptions.c ****             }
 673:..\src/interruptions.c ****             break;
 2106              		.loc 1 673 0
 2107 00bc 13E0     		b	.L176
 2108              	.L172:
 670:..\src/interruptions.c ****                 }
 2109              		.loc 1 670 0
 2110 00be 0E4B     		ldr	r3, .L177+8
 2111 00c0 0322     		movs	r2, #3
 2112 00c2 1A70     		strb	r2, [r3]
 2113              		.loc 1 673 0
 2114 00c4 0FE0     		b	.L176
 2115              	.L167:
 674:..\src/interruptions.c ****            
 675:..\src/interruptions.c ****         case WRITE_END:
 676:..\src/interruptions.c ****             can_write = TRUE;            
 2116              		.loc 1 676 0
 2117 00c6 0F4B     		ldr	r3, .L177+20
 2118 00c8 0122     		movs	r2, #1
 2119 00ca 1A70     		strb	r2, [r3]
 677:..\src/interruptions.c ****             cycles_status = NONE;
 2120              		.loc 1 677 0
 2121 00cc 0A4B     		ldr	r3, .L177+8
 2122 00ce 0422     		movs	r2, #4
 2123 00d0 1A70     		strb	r2, [r3]
 678:..\src/interruptions.c ****             
 679:..\src/interruptions.c ****             // Restore data saved in c_mem structure
 680:..\src/interruptions.c ****             memcpy( addr_start, addr_start_c, EEPROM_BYTES_ROW*EEPROM_COUNTERS_ROWS );
 2124              		.loc 1 680 0
 2125 00d2 7022     		movs	r2, #112
 2126 00d4 F968     		ldr	r1, [r7, #12]
 2127 00d6 3869     		ldr	r0, [r7, #16]
 2128 00d8 FFF7FEFF 		bl	memcpy
ARM GAS  C:\Users\mgnocco\AppData\Local\Temp\ccuVecaK.s 			page 51


 681:..\src/interruptions.c ****             break;
 2129              		.loc 1 681 0
 2130 00dc 04E0     		b	.L162
 2131              	.L174:
 682:..\src/interruptions.c ****             
 683:..\src/interruptions.c ****         case NONE:
 684:..\src/interruptions.c ****             break;
 2132              		.loc 1 684 0
 2133 00de 00BF     		nop
 2134 00e0 02E0     		b	.L173
 2135              	.L175:
 659:..\src/interruptions.c ****             
 2136              		.loc 1 659 0
 2137 00e2 00BF     		nop
 2138 00e4 00E0     		b	.L173
 2139              	.L176:
 673:..\src/interruptions.c ****            
 2140              		.loc 1 673 0
 2141 00e6 00BF     		nop
 2142              	.L162:
 2143              	.L173:
 685:..\src/interruptions.c ****     }
 686:..\src/interruptions.c ****     
 687:..\src/interruptions.c **** }
 2144              		.loc 1 687 0
 2145 00e8 00BF     		nop
 2146 00ea 1837     		adds	r7, r7, #24
 2147              		.cfi_def_cfa_offset 8
 2148 00ec BD46     		mov	sp, r7
 2149              		.cfi_def_cfa_register 13
 2150              		@ sp needed
 2151 00ee 80BD     		pop	{r7, pc}
 2152              	.L178:
 2153              		.align	2
 2154              	.L177:
 2155 00f0 10000000 		.word	g_mem+16
 2156 00f4 10000000 		.word	c_mem+16
 2157 00f8 00000000 		.word	cycles_status
 2158 00fc D0000000 		.word	m_addr.9822
 2159 0100 D4000000 		.word	row_number.9817
 2160 0104 00000000 		.word	can_write
 2161              		.cfi_endproc
 2162              	.LFE74:
 2163              		.size	save_cycles_eeprom, .-save_cycles_eeprom
 2164              		.bss
 2165              	state.9705:
 2166 0000 00       		.space	1
 2167 0001 000000   		.align	2
 2168              	rx_queue.9709:
 2169 0004 000000   		.space	3
 2170              	data_packet_length.9707:
 2171 0007 00       		.space	1
 2172              	data_packet_index.9706:
 2173 0008 00       		.space	1
 2174 0009 000000   		.align	2
 2175              	data_packet_buffer.9708:
 2176 000c 00000000 		.space	128
ARM GAS  C:\Users\mgnocco\AppData\Local\Temp\ccuVecaK.s 			page 52


 2176      00000000 
 2176      00000000 
 2176      00000000 
 2176      00000000 
 2177              		.align	2
 2178              	prev_pwm.9731:
 2179 008c 00000000 		.space	4
 2180              		.align	2
 2181              	position_counter.9732:
 2182 0090 00000000 		.space	4
 2183              	pos_cycle_status.9759:
 2184 0094 00       		.space	1
 2185 0095 000000   		.align	2
 2186              	thr_pos.9766:
 2187 0098 00000000 		.space	4
 2188              		.align	2
 2189              	max_pos.9767:
 2190 009c 00000000 		.space	4
 2191              		.data
 2192              		.align	2
 2193              		.type	bin_threshold.9764, %object
 2194              		.size	bin_threshold.9764, 4
 2195              	bin_threshold.9764:
 2196 0000 FA000000 		.word	250
 2197              		.bss
 2198              		.align	2
 2199              	emg_cycle_status.9760:
 2200 00a0 0000     		.space	2
 2201 00a2 0000     		.align	2
 2202              	motion_status.9761:
 2203 00a4 0000     		.space	2
 2204 00a6 0000     		.align	2
 2205              	start_emg_pos.9781:
 2206 00a8 00000000 		.space	8
 2206      00000000 
 2207              		.align	2
 2208              	emg_excess_status.9762:
 2209 00b0 0000     		.space	2
 2210              		.data
 2211              		.align	2
 2212              		.type	exc_act_thr.9765, %object
 2213              		.size	exc_act_thr.9765, 4
 2214              	exc_act_thr.9765:
 2215 0004 D4030000 		.word	980
 2216              		.bss
 2217 00b2 0000     		.align	2
 2218              	timer_exc_s.9779:
 2219 00b4 00000000 		.space	8
 2219      00000000 
 2220              		.align	2
 2221              	timer_exc_e.9780:
 2222 00bc 00000000 		.space	8
 2222      00000000 
 2223              	rest_cycle_status.9763:
 2224 00c4 00       		.space	1
 2225 00c5 000000   		.align	2
 2226              	timer_value_s.9777:
ARM GAS  C:\Users\mgnocco\AppData\Local\Temp\ccuVecaK.s 			page 53


 2227 00c8 00000000 		.space	4
 2228              		.align	2
 2229              	timer_value_e.9778:
 2230 00cc 00000000 		.space	4
 2231              		.align	2
 2232              	m_addr.9822:
 2233 00d0 00000000 		.space	4
 2234              	row_number.9817:
 2235 00d4 00       		.space	1
 2236              		.text
 2237              	.Letext0:
 2238              		.file 2 "c:\\program files (x86)\\cypress\\psoc creator\\4.4\\psoc creator\\import\\gnu\\arm\\5.4.
 2239              		.file 3 "c:\\program files (x86)\\cypress\\psoc creator\\4.4\\psoc creator\\import\\gnu\\arm\\5.4.
 2240              		.file 4 "Generated_Source\\PSoC5/cytypes.h"
 2241              		.file 5 "..\\src\\commands.h"
 2242              		.file 6 "..\\src\\globals.h"
 2243              		.file 7 "Generated_Source\\PSoC5/core_cm3.h"