ARM GAS  C:\Users\mgnocco\AppData\Local\Temp\ccNRgxPZ.s 			page 1


   1              		.syntax unified
   2              		.cpu cortex-m3
   3              		.fpu softvfp
   4              		.eabi_attribute 20, 1
   5              		.eabi_attribute 21, 1
   6              		.eabi_attribute 23, 3
   7              		.eabi_attribute 24, 1
   8              		.eabi_attribute 25, 1
   9              		.eabi_attribute 26, 1
  10              		.eabi_attribute 30, 6
  11              		.eabi_attribute 34, 1
  12              		.eabi_attribute 18, 4
  13              		.thumb
  14              		.syntax unified
  15              		.file	"PWM_MOTORS_3.c"
  16              		.text
  17              	.Ltext0:
  18              		.cfi_sections	.debug_frame
  19              		.global	PWM_MOTORS_3_initVar
  20              		.bss
  21              		.type	PWM_MOTORS_3_initVar, %object
  22              		.size	PWM_MOTORS_3_initVar, 1
  23              	PWM_MOTORS_3_initVar:
  24 0000 00       		.space	1
  25              		.section	.text.PWM_MOTORS_3_Start,"ax",%progbits
  26              		.align	2
  27              		.global	PWM_MOTORS_3_Start
  28              		.thumb
  29              		.thumb_func
  30              		.type	PWM_MOTORS_3_Start, %function
  31              	PWM_MOTORS_3_Start:
  32              	.LFB0:
  33              		.file 1 "Generated_Source\\PSoC5\\PWM_MOTORS_3.c"
   1:Generated_Source\PSoC5/PWM_MOTORS_3.c **** /*******************************************************************************
   2:Generated_Source\PSoC5/PWM_MOTORS_3.c **** * File Name: PWM_MOTORS_3.c
   3:Generated_Source\PSoC5/PWM_MOTORS_3.c **** * Version 3.30
   4:Generated_Source\PSoC5/PWM_MOTORS_3.c **** *
   5:Generated_Source\PSoC5/PWM_MOTORS_3.c **** * Description:
   6:Generated_Source\PSoC5/PWM_MOTORS_3.c **** *  The PWM User Module consist of an 8 or 16-bit counter with two 8 or 16-bit
   7:Generated_Source\PSoC5/PWM_MOTORS_3.c **** *  comparitors. Each instance of this user module is capable of generating
   8:Generated_Source\PSoC5/PWM_MOTORS_3.c **** *  two PWM outputs with the same period. The pulse width is selectable between
   9:Generated_Source\PSoC5/PWM_MOTORS_3.c **** *  1 and 255/65535. The period is selectable between 2 and 255/65536 clocks.
  10:Generated_Source\PSoC5/PWM_MOTORS_3.c **** *  The compare value output may be configured to be active when the present
  11:Generated_Source\PSoC5/PWM_MOTORS_3.c **** *  counter is less than or less than/equal to the compare value.
  12:Generated_Source\PSoC5/PWM_MOTORS_3.c **** *  A terminal count output is also provided. It generates a pulse one clock
  13:Generated_Source\PSoC5/PWM_MOTORS_3.c **** *  width wide when the counter is equal to zero.
  14:Generated_Source\PSoC5/PWM_MOTORS_3.c **** *
  15:Generated_Source\PSoC5/PWM_MOTORS_3.c **** * Note:
  16:Generated_Source\PSoC5/PWM_MOTORS_3.c **** *
  17:Generated_Source\PSoC5/PWM_MOTORS_3.c **** *******************************************************************************
  18:Generated_Source\PSoC5/PWM_MOTORS_3.c **** * Copyright 2008-2014, Cypress Semiconductor Corporation.  All rights reserved.
  19:Generated_Source\PSoC5/PWM_MOTORS_3.c **** * You may use this file only in accordance with the license, terms, conditions,
  20:Generated_Source\PSoC5/PWM_MOTORS_3.c **** * disclaimers, and limitations in the end user license agreement accompanying
  21:Generated_Source\PSoC5/PWM_MOTORS_3.c **** * the software package with which this file was provided.
  22:Generated_Source\PSoC5/PWM_MOTORS_3.c **** ********************************************************************************/
  23:Generated_Source\PSoC5/PWM_MOTORS_3.c **** 
  24:Generated_Source\PSoC5/PWM_MOTORS_3.c **** #include "PWM_MOTORS_3.h"
ARM GAS  C:\Users\mgnocco\AppData\Local\Temp\ccNRgxPZ.s 			page 2


  25:Generated_Source\PSoC5/PWM_MOTORS_3.c **** 
  26:Generated_Source\PSoC5/PWM_MOTORS_3.c **** /* Error message for removed <resource> through optimization */
  27:Generated_Source\PSoC5/PWM_MOTORS_3.c **** #ifdef PWM_MOTORS_3_PWMUDB_genblk1_ctrlreg__REMOVED
  28:Generated_Source\PSoC5/PWM_MOTORS_3.c ****     #error PWM_v3_30 detected with a constant 0 for the enable or \
  29:Generated_Source\PSoC5/PWM_MOTORS_3.c ****          constant 1 for reset. This will prevent the component from operating.
  30:Generated_Source\PSoC5/PWM_MOTORS_3.c **** #endif /* PWM_MOTORS_3_PWMUDB_genblk1_ctrlreg__REMOVED */
  31:Generated_Source\PSoC5/PWM_MOTORS_3.c **** 
  32:Generated_Source\PSoC5/PWM_MOTORS_3.c **** uint8 PWM_MOTORS_3_initVar = 0u;
  33:Generated_Source\PSoC5/PWM_MOTORS_3.c **** 
  34:Generated_Source\PSoC5/PWM_MOTORS_3.c **** 
  35:Generated_Source\PSoC5/PWM_MOTORS_3.c **** /*******************************************************************************
  36:Generated_Source\PSoC5/PWM_MOTORS_3.c **** * Function Name: PWM_MOTORS_3_Start
  37:Generated_Source\PSoC5/PWM_MOTORS_3.c **** ********************************************************************************
  38:Generated_Source\PSoC5/PWM_MOTORS_3.c **** *
  39:Generated_Source\PSoC5/PWM_MOTORS_3.c **** * Summary:
  40:Generated_Source\PSoC5/PWM_MOTORS_3.c **** *  The start function initializes the pwm with the default values, the
  41:Generated_Source\PSoC5/PWM_MOTORS_3.c **** *  enables the counter to begin counting.  It does not enable interrupts,
  42:Generated_Source\PSoC5/PWM_MOTORS_3.c **** *  the EnableInt command should be called if interrupt generation is required.
  43:Generated_Source\PSoC5/PWM_MOTORS_3.c **** *
  44:Generated_Source\PSoC5/PWM_MOTORS_3.c **** * Parameters:
  45:Generated_Source\PSoC5/PWM_MOTORS_3.c **** *  None
  46:Generated_Source\PSoC5/PWM_MOTORS_3.c **** *
  47:Generated_Source\PSoC5/PWM_MOTORS_3.c **** * Return:
  48:Generated_Source\PSoC5/PWM_MOTORS_3.c **** *  None
  49:Generated_Source\PSoC5/PWM_MOTORS_3.c **** *
  50:Generated_Source\PSoC5/PWM_MOTORS_3.c **** * Global variables:
  51:Generated_Source\PSoC5/PWM_MOTORS_3.c **** *  PWM_MOTORS_3_initVar: Is modified when this function is called for the
  52:Generated_Source\PSoC5/PWM_MOTORS_3.c **** *   first time. Is used to ensure that initialization happens only once.
  53:Generated_Source\PSoC5/PWM_MOTORS_3.c **** *
  54:Generated_Source\PSoC5/PWM_MOTORS_3.c **** *******************************************************************************/
  55:Generated_Source\PSoC5/PWM_MOTORS_3.c **** void PWM_MOTORS_3_Start(void) 
  56:Generated_Source\PSoC5/PWM_MOTORS_3.c **** {
  34              		.loc 1 56 0
  35              		.cfi_startproc
  36              		@ args = 0, pretend = 0, frame = 0
  37              		@ frame_needed = 1, uses_anonymous_args = 0
  38 0000 80B5     		push	{r7, lr}
  39              		.cfi_def_cfa_offset 8
  40              		.cfi_offset 7, -8
  41              		.cfi_offset 14, -4
  42 0002 00AF     		add	r7, sp, #0
  43              		.cfi_def_cfa_register 7
  57:Generated_Source\PSoC5/PWM_MOTORS_3.c ****     /* If not Initialized then initialize all required hardware and software */
  58:Generated_Source\PSoC5/PWM_MOTORS_3.c ****     if(PWM_MOTORS_3_initVar == 0u)
  44              		.loc 1 58 0
  45 0004 064B     		ldr	r3, .L3
  46 0006 1B78     		ldrb	r3, [r3]	@ zero_extendqisi2
  47 0008 002B     		cmp	r3, #0
  48 000a 04D1     		bne	.L2
  59:Generated_Source\PSoC5/PWM_MOTORS_3.c ****     {
  60:Generated_Source\PSoC5/PWM_MOTORS_3.c ****         PWM_MOTORS_3_Init();
  49              		.loc 1 60 0
  50 000c FFF7FEFF 		bl	PWM_MOTORS_3_Init
  61:Generated_Source\PSoC5/PWM_MOTORS_3.c ****         PWM_MOTORS_3_initVar = 1u;
  51              		.loc 1 61 0
  52 0010 034B     		ldr	r3, .L3
  53 0012 0122     		movs	r2, #1
ARM GAS  C:\Users\mgnocco\AppData\Local\Temp\ccNRgxPZ.s 			page 3


  54 0014 1A70     		strb	r2, [r3]
  55              	.L2:
  62:Generated_Source\PSoC5/PWM_MOTORS_3.c ****     }
  63:Generated_Source\PSoC5/PWM_MOTORS_3.c ****     PWM_MOTORS_3_Enable();
  56              		.loc 1 63 0
  57 0016 FFF7FEFF 		bl	PWM_MOTORS_3_Enable
  64:Generated_Source\PSoC5/PWM_MOTORS_3.c **** 
  65:Generated_Source\PSoC5/PWM_MOTORS_3.c **** }
  58              		.loc 1 65 0
  59 001a 00BF     		nop
  60 001c 80BD     		pop	{r7, pc}
  61              	.L4:
  62 001e 00BF     		.align	2
  63              	.L3:
  64 0020 00000000 		.word	PWM_MOTORS_3_initVar
  65              		.cfi_endproc
  66              	.LFE0:
  67              		.size	PWM_MOTORS_3_Start, .-PWM_MOTORS_3_Start
  68              		.section	.text.PWM_MOTORS_3_Init,"ax",%progbits
  69              		.align	2
  70              		.global	PWM_MOTORS_3_Init
  71              		.thumb
  72              		.thumb_func
  73              		.type	PWM_MOTORS_3_Init, %function
  74              	PWM_MOTORS_3_Init:
  75              	.LFB1:
  66:Generated_Source\PSoC5/PWM_MOTORS_3.c **** 
  67:Generated_Source\PSoC5/PWM_MOTORS_3.c **** 
  68:Generated_Source\PSoC5/PWM_MOTORS_3.c **** /*******************************************************************************
  69:Generated_Source\PSoC5/PWM_MOTORS_3.c **** * Function Name: PWM_MOTORS_3_Init
  70:Generated_Source\PSoC5/PWM_MOTORS_3.c **** ********************************************************************************
  71:Generated_Source\PSoC5/PWM_MOTORS_3.c **** *
  72:Generated_Source\PSoC5/PWM_MOTORS_3.c **** * Summary:
  73:Generated_Source\PSoC5/PWM_MOTORS_3.c **** *  Initialize component's parameters to the parameters set by user in the
  74:Generated_Source\PSoC5/PWM_MOTORS_3.c **** *  customizer of the component placed onto schematic. Usually called in
  75:Generated_Source\PSoC5/PWM_MOTORS_3.c **** *  PWM_MOTORS_3_Start().
  76:Generated_Source\PSoC5/PWM_MOTORS_3.c **** *
  77:Generated_Source\PSoC5/PWM_MOTORS_3.c **** * Parameters:
  78:Generated_Source\PSoC5/PWM_MOTORS_3.c **** *  None
  79:Generated_Source\PSoC5/PWM_MOTORS_3.c **** *
  80:Generated_Source\PSoC5/PWM_MOTORS_3.c **** * Return:
  81:Generated_Source\PSoC5/PWM_MOTORS_3.c **** *  None
  82:Generated_Source\PSoC5/PWM_MOTORS_3.c **** *
  83:Generated_Source\PSoC5/PWM_MOTORS_3.c **** *******************************************************************************/
  84:Generated_Source\PSoC5/PWM_MOTORS_3.c **** void PWM_MOTORS_3_Init(void) 
  85:Generated_Source\PSoC5/PWM_MOTORS_3.c **** {
  76              		.loc 1 85 0
  77              		.cfi_startproc
  78              		@ args = 0, pretend = 0, frame = 0
  79              		@ frame_needed = 1, uses_anonymous_args = 0
  80 0000 80B5     		push	{r7, lr}
  81              		.cfi_def_cfa_offset 8
  82              		.cfi_offset 7, -8
  83              		.cfi_offset 14, -4
  84 0002 00AF     		add	r7, sp, #0
  85              		.cfi_def_cfa_register 7
  86:Generated_Source\PSoC5/PWM_MOTORS_3.c ****     #if (PWM_MOTORS_3_UsingFixedFunction || PWM_MOTORS_3_UseControl)
ARM GAS  C:\Users\mgnocco\AppData\Local\Temp\ccNRgxPZ.s 			page 4


  87:Generated_Source\PSoC5/PWM_MOTORS_3.c ****         uint8 ctrl;
  88:Generated_Source\PSoC5/PWM_MOTORS_3.c ****     #endif /* (PWM_MOTORS_3_UsingFixedFunction || PWM_MOTORS_3_UseControl) */
  89:Generated_Source\PSoC5/PWM_MOTORS_3.c **** 
  90:Generated_Source\PSoC5/PWM_MOTORS_3.c ****     #if(!PWM_MOTORS_3_UsingFixedFunction)
  91:Generated_Source\PSoC5/PWM_MOTORS_3.c ****         #if(PWM_MOTORS_3_UseStatus)
  92:Generated_Source\PSoC5/PWM_MOTORS_3.c ****             /* Interrupt State Backup for Critical Region*/
  93:Generated_Source\PSoC5/PWM_MOTORS_3.c ****             uint8 PWM_MOTORS_3_interruptState;
  94:Generated_Source\PSoC5/PWM_MOTORS_3.c ****         #endif /* (PWM_MOTORS_3_UseStatus) */
  95:Generated_Source\PSoC5/PWM_MOTORS_3.c ****     #endif /* (!PWM_MOTORS_3_UsingFixedFunction) */
  96:Generated_Source\PSoC5/PWM_MOTORS_3.c **** 
  97:Generated_Source\PSoC5/PWM_MOTORS_3.c ****     #if (PWM_MOTORS_3_UsingFixedFunction)
  98:Generated_Source\PSoC5/PWM_MOTORS_3.c ****         /* You are allowed to write the compare value (FF only) */
  99:Generated_Source\PSoC5/PWM_MOTORS_3.c ****         PWM_MOTORS_3_CONTROL |= PWM_MOTORS_3_CFG0_MODE;
 100:Generated_Source\PSoC5/PWM_MOTORS_3.c ****         #if (PWM_MOTORS_3_DeadBand2_4)
 101:Generated_Source\PSoC5/PWM_MOTORS_3.c ****             PWM_MOTORS_3_CONTROL |= PWM_MOTORS_3_CFG0_DB;
 102:Generated_Source\PSoC5/PWM_MOTORS_3.c ****         #endif /* (PWM_MOTORS_3_DeadBand2_4) */
 103:Generated_Source\PSoC5/PWM_MOTORS_3.c **** 
 104:Generated_Source\PSoC5/PWM_MOTORS_3.c ****         ctrl = PWM_MOTORS_3_CONTROL3 & ((uint8 )(~PWM_MOTORS_3_CTRL_CMPMODE1_MASK));
 105:Generated_Source\PSoC5/PWM_MOTORS_3.c ****         PWM_MOTORS_3_CONTROL3 = ctrl | PWM_MOTORS_3_DEFAULT_COMPARE1_MODE;
 106:Generated_Source\PSoC5/PWM_MOTORS_3.c **** 
 107:Generated_Source\PSoC5/PWM_MOTORS_3.c ****          /* Clear and Set SYNCTC and SYNCCMP bits of RT1 register */
 108:Generated_Source\PSoC5/PWM_MOTORS_3.c ****         PWM_MOTORS_3_RT1 &= ((uint8)(~PWM_MOTORS_3_RT1_MASK));
 109:Generated_Source\PSoC5/PWM_MOTORS_3.c ****         PWM_MOTORS_3_RT1 |= PWM_MOTORS_3_SYNC;
 110:Generated_Source\PSoC5/PWM_MOTORS_3.c **** 
 111:Generated_Source\PSoC5/PWM_MOTORS_3.c ****         /*Enable DSI Sync all all inputs of the PWM*/
 112:Generated_Source\PSoC5/PWM_MOTORS_3.c ****         PWM_MOTORS_3_RT1 &= ((uint8)(~PWM_MOTORS_3_SYNCDSI_MASK));
 113:Generated_Source\PSoC5/PWM_MOTORS_3.c ****         PWM_MOTORS_3_RT1 |= PWM_MOTORS_3_SYNCDSI_EN;
 114:Generated_Source\PSoC5/PWM_MOTORS_3.c **** 
 115:Generated_Source\PSoC5/PWM_MOTORS_3.c ****     #elif (PWM_MOTORS_3_UseControl)
 116:Generated_Source\PSoC5/PWM_MOTORS_3.c ****         /* Set the default compare mode defined in the parameter */
 117:Generated_Source\PSoC5/PWM_MOTORS_3.c ****         ctrl = PWM_MOTORS_3_CONTROL & ((uint8)(~PWM_MOTORS_3_CTRL_CMPMODE2_MASK)) &
 118:Generated_Source\PSoC5/PWM_MOTORS_3.c ****                 ((uint8)(~PWM_MOTORS_3_CTRL_CMPMODE1_MASK));
 119:Generated_Source\PSoC5/PWM_MOTORS_3.c ****         PWM_MOTORS_3_CONTROL = ctrl | PWM_MOTORS_3_DEFAULT_COMPARE2_MODE |
 120:Generated_Source\PSoC5/PWM_MOTORS_3.c ****                                    PWM_MOTORS_3_DEFAULT_COMPARE1_MODE;
 121:Generated_Source\PSoC5/PWM_MOTORS_3.c ****     #endif /* (PWM_MOTORS_3_UsingFixedFunction) */
 122:Generated_Source\PSoC5/PWM_MOTORS_3.c **** 
 123:Generated_Source\PSoC5/PWM_MOTORS_3.c ****     #if (!PWM_MOTORS_3_UsingFixedFunction)
 124:Generated_Source\PSoC5/PWM_MOTORS_3.c ****         #if (PWM_MOTORS_3_Resolution == 8)
 125:Generated_Source\PSoC5/PWM_MOTORS_3.c ****             /* Set FIFO 0 to 1 byte register for period*/
 126:Generated_Source\PSoC5/PWM_MOTORS_3.c ****             PWM_MOTORS_3_AUX_CONTROLDP0 |= (PWM_MOTORS_3_AUX_CTRL_FIFO0_CLR);
  86              		.loc 1 126 0
  87 0004 0A4A     		ldr	r2, .L6
  88 0006 0A4B     		ldr	r3, .L6
  89 0008 1B78     		ldrb	r3, [r3]
  90 000a DBB2     		uxtb	r3, r3
  91 000c 43F00103 		orr	r3, r3, #1
  92 0010 DBB2     		uxtb	r3, r3
  93 0012 1370     		strb	r3, [r2]
 127:Generated_Source\PSoC5/PWM_MOTORS_3.c ****         #else /* (PWM_MOTORS_3_Resolution == 16)*/
 128:Generated_Source\PSoC5/PWM_MOTORS_3.c ****             /* Set FIFO 0 to 1 byte register for period */
 129:Generated_Source\PSoC5/PWM_MOTORS_3.c ****             PWM_MOTORS_3_AUX_CONTROLDP0 |= (PWM_MOTORS_3_AUX_CTRL_FIFO0_CLR);
 130:Generated_Source\PSoC5/PWM_MOTORS_3.c ****             PWM_MOTORS_3_AUX_CONTROLDP1 |= (PWM_MOTORS_3_AUX_CTRL_FIFO0_CLR);
 131:Generated_Source\PSoC5/PWM_MOTORS_3.c ****         #endif /* (PWM_MOTORS_3_Resolution == 8) */
 132:Generated_Source\PSoC5/PWM_MOTORS_3.c **** 
 133:Generated_Source\PSoC5/PWM_MOTORS_3.c ****         PWM_MOTORS_3_WriteCounter(PWM_MOTORS_3_INIT_PERIOD_VALUE);
  94              		.loc 1 133 0
  95 0014 6420     		movs	r0, #100
ARM GAS  C:\Users\mgnocco\AppData\Local\Temp\ccNRgxPZ.s 			page 5


  96 0016 FFF7FEFF 		bl	PWM_MOTORS_3_WriteCounter
 134:Generated_Source\PSoC5/PWM_MOTORS_3.c ****     #endif /* (!PWM_MOTORS_3_UsingFixedFunction) */
 135:Generated_Source\PSoC5/PWM_MOTORS_3.c **** 
 136:Generated_Source\PSoC5/PWM_MOTORS_3.c ****     PWM_MOTORS_3_WritePeriod(PWM_MOTORS_3_INIT_PERIOD_VALUE);
  97              		.loc 1 136 0
  98 001a 6420     		movs	r0, #100
  99 001c FFF7FEFF 		bl	PWM_MOTORS_3_WritePeriod
 137:Generated_Source\PSoC5/PWM_MOTORS_3.c **** 
 138:Generated_Source\PSoC5/PWM_MOTORS_3.c ****         #if (PWM_MOTORS_3_UseOneCompareMode)
 139:Generated_Source\PSoC5/PWM_MOTORS_3.c ****             PWM_MOTORS_3_WriteCompare(PWM_MOTORS_3_INIT_COMPARE_VALUE1);
 140:Generated_Source\PSoC5/PWM_MOTORS_3.c ****         #else
 141:Generated_Source\PSoC5/PWM_MOTORS_3.c ****             PWM_MOTORS_3_WriteCompare1(PWM_MOTORS_3_INIT_COMPARE_VALUE1);
 100              		.loc 1 141 0
 101 0020 0020     		movs	r0, #0
 102 0022 FFF7FEFF 		bl	PWM_MOTORS_3_WriteCompare1
 142:Generated_Source\PSoC5/PWM_MOTORS_3.c ****             PWM_MOTORS_3_WriteCompare2(PWM_MOTORS_3_INIT_COMPARE_VALUE2);
 103              		.loc 1 142 0
 104 0026 0020     		movs	r0, #0
 105 0028 FFF7FEFF 		bl	PWM_MOTORS_3_WriteCompare2
 143:Generated_Source\PSoC5/PWM_MOTORS_3.c ****         #endif /* (PWM_MOTORS_3_UseOneCompareMode) */
 144:Generated_Source\PSoC5/PWM_MOTORS_3.c **** 
 145:Generated_Source\PSoC5/PWM_MOTORS_3.c ****         #if (PWM_MOTORS_3_KillModeMinTime)
 146:Generated_Source\PSoC5/PWM_MOTORS_3.c ****             PWM_MOTORS_3_WriteKillTime(PWM_MOTORS_3_MinimumKillTime);
 147:Generated_Source\PSoC5/PWM_MOTORS_3.c ****         #endif /* (PWM_MOTORS_3_KillModeMinTime) */
 148:Generated_Source\PSoC5/PWM_MOTORS_3.c **** 
 149:Generated_Source\PSoC5/PWM_MOTORS_3.c ****         #if (PWM_MOTORS_3_DeadBandUsed)
 150:Generated_Source\PSoC5/PWM_MOTORS_3.c ****             PWM_MOTORS_3_WriteDeadTime(PWM_MOTORS_3_INIT_DEAD_TIME);
 151:Generated_Source\PSoC5/PWM_MOTORS_3.c ****         #endif /* (PWM_MOTORS_3_DeadBandUsed) */
 152:Generated_Source\PSoC5/PWM_MOTORS_3.c **** 
 153:Generated_Source\PSoC5/PWM_MOTORS_3.c ****     #if (PWM_MOTORS_3_UseStatus || PWM_MOTORS_3_UsingFixedFunction)
 154:Generated_Source\PSoC5/PWM_MOTORS_3.c ****         PWM_MOTORS_3_SetInterruptMode(PWM_MOTORS_3_INIT_INTERRUPTS_MODE);
 155:Generated_Source\PSoC5/PWM_MOTORS_3.c ****     #endif /* (PWM_MOTORS_3_UseStatus || PWM_MOTORS_3_UsingFixedFunction) */
 156:Generated_Source\PSoC5/PWM_MOTORS_3.c **** 
 157:Generated_Source\PSoC5/PWM_MOTORS_3.c ****     #if (PWM_MOTORS_3_UsingFixedFunction)
 158:Generated_Source\PSoC5/PWM_MOTORS_3.c ****         /* Globally Enable the Fixed Function Block chosen */
 159:Generated_Source\PSoC5/PWM_MOTORS_3.c ****         PWM_MOTORS_3_GLOBAL_ENABLE |= PWM_MOTORS_3_BLOCK_EN_MASK;
 160:Generated_Source\PSoC5/PWM_MOTORS_3.c ****         /* Set the Interrupt source to come from the status register */
 161:Generated_Source\PSoC5/PWM_MOTORS_3.c ****         PWM_MOTORS_3_CONTROL2 |= PWM_MOTORS_3_CTRL2_IRQ_SEL;
 162:Generated_Source\PSoC5/PWM_MOTORS_3.c ****     #else
 163:Generated_Source\PSoC5/PWM_MOTORS_3.c ****         #if(PWM_MOTORS_3_UseStatus)
 164:Generated_Source\PSoC5/PWM_MOTORS_3.c **** 
 165:Generated_Source\PSoC5/PWM_MOTORS_3.c ****             /* CyEnterCriticalRegion and CyExitCriticalRegion are used to mark following region cri
 166:Generated_Source\PSoC5/PWM_MOTORS_3.c ****             /* Enter Critical Region*/
 167:Generated_Source\PSoC5/PWM_MOTORS_3.c ****             PWM_MOTORS_3_interruptState = CyEnterCriticalSection();
 168:Generated_Source\PSoC5/PWM_MOTORS_3.c ****             /* Use the interrupt output of the status register for IRQ output */
 169:Generated_Source\PSoC5/PWM_MOTORS_3.c ****             PWM_MOTORS_3_STATUS_AUX_CTRL |= PWM_MOTORS_3_STATUS_ACTL_INT_EN_MASK;
 170:Generated_Source\PSoC5/PWM_MOTORS_3.c **** 
 171:Generated_Source\PSoC5/PWM_MOTORS_3.c ****              /* Exit Critical Region*/
 172:Generated_Source\PSoC5/PWM_MOTORS_3.c ****             CyExitCriticalSection(PWM_MOTORS_3_interruptState);
 173:Generated_Source\PSoC5/PWM_MOTORS_3.c **** 
 174:Generated_Source\PSoC5/PWM_MOTORS_3.c ****             /* Clear the FIFO to enable the PWM_MOTORS_3_STATUS_FIFOFULL
 175:Generated_Source\PSoC5/PWM_MOTORS_3.c ****                    bit to be set on FIFO full. */
 176:Generated_Source\PSoC5/PWM_MOTORS_3.c ****             PWM_MOTORS_3_ClearFIFO();
 177:Generated_Source\PSoC5/PWM_MOTORS_3.c ****         #endif /* (PWM_MOTORS_3_UseStatus) */
 178:Generated_Source\PSoC5/PWM_MOTORS_3.c ****     #endif /* (PWM_MOTORS_3_UsingFixedFunction) */
 179:Generated_Source\PSoC5/PWM_MOTORS_3.c **** }
 106              		.loc 1 179 0
ARM GAS  C:\Users\mgnocco\AppData\Local\Temp\ccNRgxPZ.s 			page 6


 107 002c 00BF     		nop
 108 002e 80BD     		pop	{r7, pc}
 109              	.L7:
 110              		.align	2
 111              	.L6:
 112 0030 95650040 		.word	1073767829
 113              		.cfi_endproc
 114              	.LFE1:
 115              		.size	PWM_MOTORS_3_Init, .-PWM_MOTORS_3_Init
 116              		.section	.text.PWM_MOTORS_3_Enable,"ax",%progbits
 117              		.align	2
 118              		.global	PWM_MOTORS_3_Enable
 119              		.thumb
 120              		.thumb_func
 121              		.type	PWM_MOTORS_3_Enable, %function
 122              	PWM_MOTORS_3_Enable:
 123              	.LFB2:
 180:Generated_Source\PSoC5/PWM_MOTORS_3.c **** 
 181:Generated_Source\PSoC5/PWM_MOTORS_3.c **** 
 182:Generated_Source\PSoC5/PWM_MOTORS_3.c **** /*******************************************************************************
 183:Generated_Source\PSoC5/PWM_MOTORS_3.c **** * Function Name: PWM_MOTORS_3_Enable
 184:Generated_Source\PSoC5/PWM_MOTORS_3.c **** ********************************************************************************
 185:Generated_Source\PSoC5/PWM_MOTORS_3.c **** *
 186:Generated_Source\PSoC5/PWM_MOTORS_3.c **** * Summary:
 187:Generated_Source\PSoC5/PWM_MOTORS_3.c **** *  Enables the PWM block operation
 188:Generated_Source\PSoC5/PWM_MOTORS_3.c **** *
 189:Generated_Source\PSoC5/PWM_MOTORS_3.c **** * Parameters:
 190:Generated_Source\PSoC5/PWM_MOTORS_3.c **** *  None
 191:Generated_Source\PSoC5/PWM_MOTORS_3.c **** *
 192:Generated_Source\PSoC5/PWM_MOTORS_3.c **** * Return:
 193:Generated_Source\PSoC5/PWM_MOTORS_3.c **** *  None
 194:Generated_Source\PSoC5/PWM_MOTORS_3.c **** *
 195:Generated_Source\PSoC5/PWM_MOTORS_3.c **** * Side Effects:
 196:Generated_Source\PSoC5/PWM_MOTORS_3.c **** *  This works only if software enable mode is chosen
 197:Generated_Source\PSoC5/PWM_MOTORS_3.c **** *
 198:Generated_Source\PSoC5/PWM_MOTORS_3.c **** *******************************************************************************/
 199:Generated_Source\PSoC5/PWM_MOTORS_3.c **** void PWM_MOTORS_3_Enable(void) 
 200:Generated_Source\PSoC5/PWM_MOTORS_3.c **** {
 124              		.loc 1 200 0
 125              		.cfi_startproc
 126              		@ args = 0, pretend = 0, frame = 0
 127              		@ frame_needed = 1, uses_anonymous_args = 0
 128              		@ link register save eliminated.
 129 0000 80B4     		push	{r7}
 130              		.cfi_def_cfa_offset 4
 131              		.cfi_offset 7, -4
 132 0002 00AF     		add	r7, sp, #0
 133              		.cfi_def_cfa_register 7
 201:Generated_Source\PSoC5/PWM_MOTORS_3.c ****     /* Globally Enable the Fixed Function Block chosen */
 202:Generated_Source\PSoC5/PWM_MOTORS_3.c ****     #if (PWM_MOTORS_3_UsingFixedFunction)
 203:Generated_Source\PSoC5/PWM_MOTORS_3.c ****         PWM_MOTORS_3_GLOBAL_ENABLE |= PWM_MOTORS_3_BLOCK_EN_MASK;
 204:Generated_Source\PSoC5/PWM_MOTORS_3.c ****         PWM_MOTORS_3_GLOBAL_STBY_ENABLE |= PWM_MOTORS_3_BLOCK_STBY_EN_MASK;
 205:Generated_Source\PSoC5/PWM_MOTORS_3.c ****     #endif /* (PWM_MOTORS_3_UsingFixedFunction) */
 206:Generated_Source\PSoC5/PWM_MOTORS_3.c **** 
 207:Generated_Source\PSoC5/PWM_MOTORS_3.c ****     /* Enable the PWM from the control register  */
 208:Generated_Source\PSoC5/PWM_MOTORS_3.c ****     #if (PWM_MOTORS_3_UseControl || PWM_MOTORS_3_UsingFixedFunction)
 209:Generated_Source\PSoC5/PWM_MOTORS_3.c ****         PWM_MOTORS_3_CONTROL |= PWM_MOTORS_3_CTRL_ENABLE;
ARM GAS  C:\Users\mgnocco\AppData\Local\Temp\ccNRgxPZ.s 			page 7


 210:Generated_Source\PSoC5/PWM_MOTORS_3.c ****     #endif /* (PWM_MOTORS_3_UseControl || PWM_MOTORS_3_UsingFixedFunction) */
 211:Generated_Source\PSoC5/PWM_MOTORS_3.c **** }
 134              		.loc 1 211 0
 135 0004 00BF     		nop
 136 0006 BD46     		mov	sp, r7
 137              		.cfi_def_cfa_register 13
 138              		@ sp needed
 139 0008 80BC     		pop	{r7}
 140              		.cfi_restore 7
 141              		.cfi_def_cfa_offset 0
 142 000a 7047     		bx	lr
 143              		.cfi_endproc
 144              	.LFE2:
 145              		.size	PWM_MOTORS_3_Enable, .-PWM_MOTORS_3_Enable
 146              		.section	.text.PWM_MOTORS_3_Stop,"ax",%progbits
 147              		.align	2
 148              		.global	PWM_MOTORS_3_Stop
 149              		.thumb
 150              		.thumb_func
 151              		.type	PWM_MOTORS_3_Stop, %function
 152              	PWM_MOTORS_3_Stop:
 153              	.LFB3:
 212:Generated_Source\PSoC5/PWM_MOTORS_3.c **** 
 213:Generated_Source\PSoC5/PWM_MOTORS_3.c **** 
 214:Generated_Source\PSoC5/PWM_MOTORS_3.c **** /*******************************************************************************
 215:Generated_Source\PSoC5/PWM_MOTORS_3.c **** * Function Name: PWM_MOTORS_3_Stop
 216:Generated_Source\PSoC5/PWM_MOTORS_3.c **** ********************************************************************************
 217:Generated_Source\PSoC5/PWM_MOTORS_3.c **** *
 218:Generated_Source\PSoC5/PWM_MOTORS_3.c **** * Summary:
 219:Generated_Source\PSoC5/PWM_MOTORS_3.c **** *  The stop function halts the PWM, but does not change any modes or disable
 220:Generated_Source\PSoC5/PWM_MOTORS_3.c **** *  interrupts.
 221:Generated_Source\PSoC5/PWM_MOTORS_3.c **** *
 222:Generated_Source\PSoC5/PWM_MOTORS_3.c **** * Parameters:
 223:Generated_Source\PSoC5/PWM_MOTORS_3.c **** *  None
 224:Generated_Source\PSoC5/PWM_MOTORS_3.c **** *
 225:Generated_Source\PSoC5/PWM_MOTORS_3.c **** * Return:
 226:Generated_Source\PSoC5/PWM_MOTORS_3.c **** *  None
 227:Generated_Source\PSoC5/PWM_MOTORS_3.c **** *
 228:Generated_Source\PSoC5/PWM_MOTORS_3.c **** * Side Effects:
 229:Generated_Source\PSoC5/PWM_MOTORS_3.c **** *  If the Enable mode is set to Hardware only then this function
 230:Generated_Source\PSoC5/PWM_MOTORS_3.c **** *  has no effect on the operation of the PWM
 231:Generated_Source\PSoC5/PWM_MOTORS_3.c **** *
 232:Generated_Source\PSoC5/PWM_MOTORS_3.c **** *******************************************************************************/
 233:Generated_Source\PSoC5/PWM_MOTORS_3.c **** void PWM_MOTORS_3_Stop(void) 
 234:Generated_Source\PSoC5/PWM_MOTORS_3.c **** {
 154              		.loc 1 234 0
 155              		.cfi_startproc
 156              		@ args = 0, pretend = 0, frame = 0
 157              		@ frame_needed = 1, uses_anonymous_args = 0
 158              		@ link register save eliminated.
 159 0000 80B4     		push	{r7}
 160              		.cfi_def_cfa_offset 4
 161              		.cfi_offset 7, -4
 162 0002 00AF     		add	r7, sp, #0
 163              		.cfi_def_cfa_register 7
 235:Generated_Source\PSoC5/PWM_MOTORS_3.c ****     #if (PWM_MOTORS_3_UseControl || PWM_MOTORS_3_UsingFixedFunction)
 236:Generated_Source\PSoC5/PWM_MOTORS_3.c ****         PWM_MOTORS_3_CONTROL &= ((uint8)(~PWM_MOTORS_3_CTRL_ENABLE));
ARM GAS  C:\Users\mgnocco\AppData\Local\Temp\ccNRgxPZ.s 			page 8


 237:Generated_Source\PSoC5/PWM_MOTORS_3.c ****     #endif /* (PWM_MOTORS_3_UseControl || PWM_MOTORS_3_UsingFixedFunction) */
 238:Generated_Source\PSoC5/PWM_MOTORS_3.c **** 
 239:Generated_Source\PSoC5/PWM_MOTORS_3.c ****     /* Globally disable the Fixed Function Block chosen */
 240:Generated_Source\PSoC5/PWM_MOTORS_3.c ****     #if (PWM_MOTORS_3_UsingFixedFunction)
 241:Generated_Source\PSoC5/PWM_MOTORS_3.c ****         PWM_MOTORS_3_GLOBAL_ENABLE &= ((uint8)(~PWM_MOTORS_3_BLOCK_EN_MASK));
 242:Generated_Source\PSoC5/PWM_MOTORS_3.c ****         PWM_MOTORS_3_GLOBAL_STBY_ENABLE &= ((uint8)(~PWM_MOTORS_3_BLOCK_STBY_EN_MASK));
 243:Generated_Source\PSoC5/PWM_MOTORS_3.c ****     #endif /* (PWM_MOTORS_3_UsingFixedFunction) */
 244:Generated_Source\PSoC5/PWM_MOTORS_3.c **** }
 164              		.loc 1 244 0
 165 0004 00BF     		nop
 166 0006 BD46     		mov	sp, r7
 167              		.cfi_def_cfa_register 13
 168              		@ sp needed
 169 0008 80BC     		pop	{r7}
 170              		.cfi_restore 7
 171              		.cfi_def_cfa_offset 0
 172 000a 7047     		bx	lr
 173              		.cfi_endproc
 174              	.LFE3:
 175              		.size	PWM_MOTORS_3_Stop, .-PWM_MOTORS_3_Stop
 176              		.section	.text.PWM_MOTORS_3_WriteCounter,"ax",%progbits
 177              		.align	2
 178              		.global	PWM_MOTORS_3_WriteCounter
 179              		.thumb
 180              		.thumb_func
 181              		.type	PWM_MOTORS_3_WriteCounter, %function
 182              	PWM_MOTORS_3_WriteCounter:
 183              	.LFB4:
 245:Generated_Source\PSoC5/PWM_MOTORS_3.c **** 
 246:Generated_Source\PSoC5/PWM_MOTORS_3.c **** #if (PWM_MOTORS_3_UseOneCompareMode)
 247:Generated_Source\PSoC5/PWM_MOTORS_3.c ****     #if (PWM_MOTORS_3_CompareMode1SW)
 248:Generated_Source\PSoC5/PWM_MOTORS_3.c **** 
 249:Generated_Source\PSoC5/PWM_MOTORS_3.c **** 
 250:Generated_Source\PSoC5/PWM_MOTORS_3.c ****         /*******************************************************************************
 251:Generated_Source\PSoC5/PWM_MOTORS_3.c ****         * Function Name: PWM_MOTORS_3_SetCompareMode
 252:Generated_Source\PSoC5/PWM_MOTORS_3.c ****         ********************************************************************************
 253:Generated_Source\PSoC5/PWM_MOTORS_3.c ****         *
 254:Generated_Source\PSoC5/PWM_MOTORS_3.c ****         * Summary:
 255:Generated_Source\PSoC5/PWM_MOTORS_3.c ****         *  This function writes the Compare Mode for the pwm output when in Dither mode,
 256:Generated_Source\PSoC5/PWM_MOTORS_3.c ****         *  Center Align Mode or One Output Mode.
 257:Generated_Source\PSoC5/PWM_MOTORS_3.c ****         *
 258:Generated_Source\PSoC5/PWM_MOTORS_3.c ****         * Parameters:
 259:Generated_Source\PSoC5/PWM_MOTORS_3.c ****         *  comparemode:  The new compare mode for the PWM output. Use the compare types
 260:Generated_Source\PSoC5/PWM_MOTORS_3.c ****         *                defined in the H file as input arguments.
 261:Generated_Source\PSoC5/PWM_MOTORS_3.c ****         *
 262:Generated_Source\PSoC5/PWM_MOTORS_3.c ****         * Return:
 263:Generated_Source\PSoC5/PWM_MOTORS_3.c ****         *  None
 264:Generated_Source\PSoC5/PWM_MOTORS_3.c ****         *
 265:Generated_Source\PSoC5/PWM_MOTORS_3.c ****         *******************************************************************************/
 266:Generated_Source\PSoC5/PWM_MOTORS_3.c ****         void PWM_MOTORS_3_SetCompareMode(uint8 comparemode) 
 267:Generated_Source\PSoC5/PWM_MOTORS_3.c ****         {
 268:Generated_Source\PSoC5/PWM_MOTORS_3.c ****             #if(PWM_MOTORS_3_UsingFixedFunction)
 269:Generated_Source\PSoC5/PWM_MOTORS_3.c **** 
 270:Generated_Source\PSoC5/PWM_MOTORS_3.c ****                 #if(0 != PWM_MOTORS_3_CTRL_CMPMODE1_SHIFT)
 271:Generated_Source\PSoC5/PWM_MOTORS_3.c ****                     uint8 comparemodemasked = ((uint8)((uint8)comparemode << PWM_MOTORS_3_CTRL_CMPM
 272:Generated_Source\PSoC5/PWM_MOTORS_3.c ****                 #else
 273:Generated_Source\PSoC5/PWM_MOTORS_3.c ****                     uint8 comparemodemasked = comparemode;
ARM GAS  C:\Users\mgnocco\AppData\Local\Temp\ccNRgxPZ.s 			page 9


 274:Generated_Source\PSoC5/PWM_MOTORS_3.c ****                 #endif /* (0 != PWM_MOTORS_3_CTRL_CMPMODE1_SHIFT) */
 275:Generated_Source\PSoC5/PWM_MOTORS_3.c **** 
 276:Generated_Source\PSoC5/PWM_MOTORS_3.c ****                 PWM_MOTORS_3_CONTROL3 &= ((uint8)(~PWM_MOTORS_3_CTRL_CMPMODE1_MASK)); /*Clear Exist
 277:Generated_Source\PSoC5/PWM_MOTORS_3.c ****                 PWM_MOTORS_3_CONTROL3 |= comparemodemasked;
 278:Generated_Source\PSoC5/PWM_MOTORS_3.c **** 
 279:Generated_Source\PSoC5/PWM_MOTORS_3.c ****             #elif (PWM_MOTORS_3_UseControl)
 280:Generated_Source\PSoC5/PWM_MOTORS_3.c **** 
 281:Generated_Source\PSoC5/PWM_MOTORS_3.c ****                 #if(0 != PWM_MOTORS_3_CTRL_CMPMODE1_SHIFT)
 282:Generated_Source\PSoC5/PWM_MOTORS_3.c ****                     uint8 comparemode1masked = ((uint8)((uint8)comparemode << PWM_MOTORS_3_CTRL_CMP
 283:Generated_Source\PSoC5/PWM_MOTORS_3.c ****                                                 PWM_MOTORS_3_CTRL_CMPMODE1_MASK;
 284:Generated_Source\PSoC5/PWM_MOTORS_3.c ****                 #else
 285:Generated_Source\PSoC5/PWM_MOTORS_3.c ****                     uint8 comparemode1masked = comparemode & PWM_MOTORS_3_CTRL_CMPMODE1_MASK;
 286:Generated_Source\PSoC5/PWM_MOTORS_3.c ****                 #endif /* (0 != PWM_MOTORS_3_CTRL_CMPMODE1_SHIFT) */
 287:Generated_Source\PSoC5/PWM_MOTORS_3.c **** 
 288:Generated_Source\PSoC5/PWM_MOTORS_3.c ****                 #if(0 != PWM_MOTORS_3_CTRL_CMPMODE2_SHIFT)
 289:Generated_Source\PSoC5/PWM_MOTORS_3.c ****                     uint8 comparemode2masked = ((uint8)((uint8)comparemode << PWM_MOTORS_3_CTRL_CMP
 290:Generated_Source\PSoC5/PWM_MOTORS_3.c ****                                                PWM_MOTORS_3_CTRL_CMPMODE2_MASK;
 291:Generated_Source\PSoC5/PWM_MOTORS_3.c ****                 #else
 292:Generated_Source\PSoC5/PWM_MOTORS_3.c ****                     uint8 comparemode2masked = comparemode & PWM_MOTORS_3_CTRL_CMPMODE2_MASK;
 293:Generated_Source\PSoC5/PWM_MOTORS_3.c ****                 #endif /* (0 != PWM_MOTORS_3_CTRL_CMPMODE2_SHIFT) */
 294:Generated_Source\PSoC5/PWM_MOTORS_3.c **** 
 295:Generated_Source\PSoC5/PWM_MOTORS_3.c ****                 /*Clear existing mode */
 296:Generated_Source\PSoC5/PWM_MOTORS_3.c ****                 PWM_MOTORS_3_CONTROL &= ((uint8)(~(PWM_MOTORS_3_CTRL_CMPMODE1_MASK |
 297:Generated_Source\PSoC5/PWM_MOTORS_3.c ****                                             PWM_MOTORS_3_CTRL_CMPMODE2_MASK)));
 298:Generated_Source\PSoC5/PWM_MOTORS_3.c ****                 PWM_MOTORS_3_CONTROL |= (comparemode1masked | comparemode2masked);
 299:Generated_Source\PSoC5/PWM_MOTORS_3.c **** 
 300:Generated_Source\PSoC5/PWM_MOTORS_3.c ****             #else
 301:Generated_Source\PSoC5/PWM_MOTORS_3.c ****                 uint8 temp = comparemode;
 302:Generated_Source\PSoC5/PWM_MOTORS_3.c ****             #endif /* (PWM_MOTORS_3_UsingFixedFunction) */
 303:Generated_Source\PSoC5/PWM_MOTORS_3.c ****         }
 304:Generated_Source\PSoC5/PWM_MOTORS_3.c ****     #endif /* PWM_MOTORS_3_CompareMode1SW */
 305:Generated_Source\PSoC5/PWM_MOTORS_3.c **** 
 306:Generated_Source\PSoC5/PWM_MOTORS_3.c **** #else /* UseOneCompareMode */
 307:Generated_Source\PSoC5/PWM_MOTORS_3.c **** 
 308:Generated_Source\PSoC5/PWM_MOTORS_3.c ****     #if (PWM_MOTORS_3_CompareMode1SW)
 309:Generated_Source\PSoC5/PWM_MOTORS_3.c **** 
 310:Generated_Source\PSoC5/PWM_MOTORS_3.c **** 
 311:Generated_Source\PSoC5/PWM_MOTORS_3.c ****         /*******************************************************************************
 312:Generated_Source\PSoC5/PWM_MOTORS_3.c ****         * Function Name: PWM_MOTORS_3_SetCompareMode1
 313:Generated_Source\PSoC5/PWM_MOTORS_3.c ****         ********************************************************************************
 314:Generated_Source\PSoC5/PWM_MOTORS_3.c ****         *
 315:Generated_Source\PSoC5/PWM_MOTORS_3.c ****         * Summary:
 316:Generated_Source\PSoC5/PWM_MOTORS_3.c ****         *  This function writes the Compare Mode for the pwm or pwm1 output
 317:Generated_Source\PSoC5/PWM_MOTORS_3.c ****         *
 318:Generated_Source\PSoC5/PWM_MOTORS_3.c ****         * Parameters:
 319:Generated_Source\PSoC5/PWM_MOTORS_3.c ****         *  comparemode:  The new compare mode for the PWM output. Use the compare types
 320:Generated_Source\PSoC5/PWM_MOTORS_3.c ****         *                defined in the H file as input arguments.
 321:Generated_Source\PSoC5/PWM_MOTORS_3.c ****         *
 322:Generated_Source\PSoC5/PWM_MOTORS_3.c ****         * Return:
 323:Generated_Source\PSoC5/PWM_MOTORS_3.c ****         *  None
 324:Generated_Source\PSoC5/PWM_MOTORS_3.c ****         *
 325:Generated_Source\PSoC5/PWM_MOTORS_3.c ****         *******************************************************************************/
 326:Generated_Source\PSoC5/PWM_MOTORS_3.c ****         void PWM_MOTORS_3_SetCompareMode1(uint8 comparemode) 
 327:Generated_Source\PSoC5/PWM_MOTORS_3.c ****         {
 328:Generated_Source\PSoC5/PWM_MOTORS_3.c ****             #if(0 != PWM_MOTORS_3_CTRL_CMPMODE1_SHIFT)
 329:Generated_Source\PSoC5/PWM_MOTORS_3.c ****                 uint8 comparemodemasked = ((uint8)((uint8)comparemode << PWM_MOTORS_3_CTRL_CMPMODE1
 330:Generated_Source\PSoC5/PWM_MOTORS_3.c ****                                            PWM_MOTORS_3_CTRL_CMPMODE1_MASK;
ARM GAS  C:\Users\mgnocco\AppData\Local\Temp\ccNRgxPZ.s 			page 10


 331:Generated_Source\PSoC5/PWM_MOTORS_3.c ****             #else
 332:Generated_Source\PSoC5/PWM_MOTORS_3.c ****                 uint8 comparemodemasked = comparemode & PWM_MOTORS_3_CTRL_CMPMODE1_MASK;
 333:Generated_Source\PSoC5/PWM_MOTORS_3.c ****             #endif /* (0 != PWM_MOTORS_3_CTRL_CMPMODE1_SHIFT) */
 334:Generated_Source\PSoC5/PWM_MOTORS_3.c **** 
 335:Generated_Source\PSoC5/PWM_MOTORS_3.c ****             #if (PWM_MOTORS_3_UseControl)
 336:Generated_Source\PSoC5/PWM_MOTORS_3.c ****                 PWM_MOTORS_3_CONTROL &= ((uint8)(~PWM_MOTORS_3_CTRL_CMPMODE1_MASK)); /*Clear existi
 337:Generated_Source\PSoC5/PWM_MOTORS_3.c ****                 PWM_MOTORS_3_CONTROL |= comparemodemasked;
 338:Generated_Source\PSoC5/PWM_MOTORS_3.c ****             #endif /* (PWM_MOTORS_3_UseControl) */
 339:Generated_Source\PSoC5/PWM_MOTORS_3.c ****         }
 340:Generated_Source\PSoC5/PWM_MOTORS_3.c ****     #endif /* PWM_MOTORS_3_CompareMode1SW */
 341:Generated_Source\PSoC5/PWM_MOTORS_3.c **** 
 342:Generated_Source\PSoC5/PWM_MOTORS_3.c **** #if (PWM_MOTORS_3_CompareMode2SW)
 343:Generated_Source\PSoC5/PWM_MOTORS_3.c **** 
 344:Generated_Source\PSoC5/PWM_MOTORS_3.c **** 
 345:Generated_Source\PSoC5/PWM_MOTORS_3.c ****     /*******************************************************************************
 346:Generated_Source\PSoC5/PWM_MOTORS_3.c ****     * Function Name: PWM_MOTORS_3_SetCompareMode2
 347:Generated_Source\PSoC5/PWM_MOTORS_3.c ****     ********************************************************************************
 348:Generated_Source\PSoC5/PWM_MOTORS_3.c ****     *
 349:Generated_Source\PSoC5/PWM_MOTORS_3.c ****     * Summary:
 350:Generated_Source\PSoC5/PWM_MOTORS_3.c ****     *  This function writes the Compare Mode for the pwm or pwm2 output
 351:Generated_Source\PSoC5/PWM_MOTORS_3.c ****     *
 352:Generated_Source\PSoC5/PWM_MOTORS_3.c ****     * Parameters:
 353:Generated_Source\PSoC5/PWM_MOTORS_3.c ****     *  comparemode:  The new compare mode for the PWM output. Use the compare types
 354:Generated_Source\PSoC5/PWM_MOTORS_3.c ****     *                defined in the H file as input arguments.
 355:Generated_Source\PSoC5/PWM_MOTORS_3.c ****     *
 356:Generated_Source\PSoC5/PWM_MOTORS_3.c ****     * Return:
 357:Generated_Source\PSoC5/PWM_MOTORS_3.c ****     *  None
 358:Generated_Source\PSoC5/PWM_MOTORS_3.c ****     *
 359:Generated_Source\PSoC5/PWM_MOTORS_3.c ****     *******************************************************************************/
 360:Generated_Source\PSoC5/PWM_MOTORS_3.c ****     void PWM_MOTORS_3_SetCompareMode2(uint8 comparemode) 
 361:Generated_Source\PSoC5/PWM_MOTORS_3.c ****     {
 362:Generated_Source\PSoC5/PWM_MOTORS_3.c **** 
 363:Generated_Source\PSoC5/PWM_MOTORS_3.c ****         #if(0 != PWM_MOTORS_3_CTRL_CMPMODE2_SHIFT)
 364:Generated_Source\PSoC5/PWM_MOTORS_3.c ****             uint8 comparemodemasked = ((uint8)((uint8)comparemode << PWM_MOTORS_3_CTRL_CMPMODE2_SHI
 365:Generated_Source\PSoC5/PWM_MOTORS_3.c ****                                                  PWM_MOTORS_3_CTRL_CMPMODE2_MASK;
 366:Generated_Source\PSoC5/PWM_MOTORS_3.c ****         #else
 367:Generated_Source\PSoC5/PWM_MOTORS_3.c ****             uint8 comparemodemasked = comparemode & PWM_MOTORS_3_CTRL_CMPMODE2_MASK;
 368:Generated_Source\PSoC5/PWM_MOTORS_3.c ****         #endif /* (0 != PWM_MOTORS_3_CTRL_CMPMODE2_SHIFT) */
 369:Generated_Source\PSoC5/PWM_MOTORS_3.c **** 
 370:Generated_Source\PSoC5/PWM_MOTORS_3.c ****         #if (PWM_MOTORS_3_UseControl)
 371:Generated_Source\PSoC5/PWM_MOTORS_3.c ****             PWM_MOTORS_3_CONTROL &= ((uint8)(~PWM_MOTORS_3_CTRL_CMPMODE2_MASK)); /*Clear existing m
 372:Generated_Source\PSoC5/PWM_MOTORS_3.c ****             PWM_MOTORS_3_CONTROL |= comparemodemasked;
 373:Generated_Source\PSoC5/PWM_MOTORS_3.c ****         #endif /* (PWM_MOTORS_3_UseControl) */
 374:Generated_Source\PSoC5/PWM_MOTORS_3.c ****     }
 375:Generated_Source\PSoC5/PWM_MOTORS_3.c ****     #endif /*PWM_MOTORS_3_CompareMode2SW */
 376:Generated_Source\PSoC5/PWM_MOTORS_3.c **** 
 377:Generated_Source\PSoC5/PWM_MOTORS_3.c **** #endif /* UseOneCompareMode */
 378:Generated_Source\PSoC5/PWM_MOTORS_3.c **** 
 379:Generated_Source\PSoC5/PWM_MOTORS_3.c **** 
 380:Generated_Source\PSoC5/PWM_MOTORS_3.c **** #if (!PWM_MOTORS_3_UsingFixedFunction)
 381:Generated_Source\PSoC5/PWM_MOTORS_3.c **** 
 382:Generated_Source\PSoC5/PWM_MOTORS_3.c **** 
 383:Generated_Source\PSoC5/PWM_MOTORS_3.c ****     /*******************************************************************************
 384:Generated_Source\PSoC5/PWM_MOTORS_3.c ****     * Function Name: PWM_MOTORS_3_WriteCounter
 385:Generated_Source\PSoC5/PWM_MOTORS_3.c ****     ********************************************************************************
 386:Generated_Source\PSoC5/PWM_MOTORS_3.c ****     *
 387:Generated_Source\PSoC5/PWM_MOTORS_3.c ****     * Summary:
ARM GAS  C:\Users\mgnocco\AppData\Local\Temp\ccNRgxPZ.s 			page 11


 388:Generated_Source\PSoC5/PWM_MOTORS_3.c ****     *  Writes a new counter value directly to the counter register. This will be
 389:Generated_Source\PSoC5/PWM_MOTORS_3.c ****     *  implemented for that currently running period and only that period. This API
 390:Generated_Source\PSoC5/PWM_MOTORS_3.c ****     *  is valid only for UDB implementation and not available for fixed function
 391:Generated_Source\PSoC5/PWM_MOTORS_3.c ****     *  PWM implementation.
 392:Generated_Source\PSoC5/PWM_MOTORS_3.c ****     *
 393:Generated_Source\PSoC5/PWM_MOTORS_3.c ****     * Parameters:
 394:Generated_Source\PSoC5/PWM_MOTORS_3.c ****     *  counter:  The period new period counter value.
 395:Generated_Source\PSoC5/PWM_MOTORS_3.c ****     *
 396:Generated_Source\PSoC5/PWM_MOTORS_3.c ****     * Return:
 397:Generated_Source\PSoC5/PWM_MOTORS_3.c ****     *  None
 398:Generated_Source\PSoC5/PWM_MOTORS_3.c ****     *
 399:Generated_Source\PSoC5/PWM_MOTORS_3.c ****     * Side Effects:
 400:Generated_Source\PSoC5/PWM_MOTORS_3.c ****     *  The PWM Period will be reloaded when a counter value will be a zero
 401:Generated_Source\PSoC5/PWM_MOTORS_3.c ****     *
 402:Generated_Source\PSoC5/PWM_MOTORS_3.c ****     *******************************************************************************/
 403:Generated_Source\PSoC5/PWM_MOTORS_3.c ****     void PWM_MOTORS_3_WriteCounter(uint8 counter) \
 404:Generated_Source\PSoC5/PWM_MOTORS_3.c ****                                        
 405:Generated_Source\PSoC5/PWM_MOTORS_3.c ****     {
 184              		.loc 1 405 0
 185              		.cfi_startproc
 186              		@ args = 0, pretend = 0, frame = 8
 187              		@ frame_needed = 1, uses_anonymous_args = 0
 188              		@ link register save eliminated.
 189 0000 80B4     		push	{r7}
 190              		.cfi_def_cfa_offset 4
 191              		.cfi_offset 7, -4
 192 0002 83B0     		sub	sp, sp, #12
 193              		.cfi_def_cfa_offset 16
 194 0004 00AF     		add	r7, sp, #0
 195              		.cfi_def_cfa_register 7
 196 0006 0346     		mov	r3, r0
 197 0008 FB71     		strb	r3, [r7, #7]
 406:Generated_Source\PSoC5/PWM_MOTORS_3.c ****         CY_SET_REG8(PWM_MOTORS_3_COUNTER_LSB_PTR, counter);
 198              		.loc 1 406 0
 199 000a 044A     		ldr	r2, .L11
 200 000c FB79     		ldrb	r3, [r7, #7]
 201 000e 1370     		strb	r3, [r2]
 407:Generated_Source\PSoC5/PWM_MOTORS_3.c ****     }
 202              		.loc 1 407 0
 203 0010 00BF     		nop
 204 0012 0C37     		adds	r7, r7, #12
 205              		.cfi_def_cfa_offset 4
 206 0014 BD46     		mov	sp, r7
 207              		.cfi_def_cfa_register 13
 208              		@ sp needed
 209 0016 80BC     		pop	{r7}
 210              		.cfi_restore 7
 211              		.cfi_def_cfa_offset 0
 212 0018 7047     		bx	lr
 213              	.L12:
 214 001a 00BF     		.align	2
 215              	.L11:
 216 001c 05650040 		.word	1073767685
 217              		.cfi_endproc
 218              	.LFE4:
 219              		.size	PWM_MOTORS_3_WriteCounter, .-PWM_MOTORS_3_WriteCounter
 220              		.section	.text.PWM_MOTORS_3_ReadCounter,"ax",%progbits
ARM GAS  C:\Users\mgnocco\AppData\Local\Temp\ccNRgxPZ.s 			page 12


 221              		.align	2
 222              		.global	PWM_MOTORS_3_ReadCounter
 223              		.thumb
 224              		.thumb_func
 225              		.type	PWM_MOTORS_3_ReadCounter, %function
 226              	PWM_MOTORS_3_ReadCounter:
 227              	.LFB5:
 408:Generated_Source\PSoC5/PWM_MOTORS_3.c **** 
 409:Generated_Source\PSoC5/PWM_MOTORS_3.c **** 
 410:Generated_Source\PSoC5/PWM_MOTORS_3.c ****     /*******************************************************************************
 411:Generated_Source\PSoC5/PWM_MOTORS_3.c ****     * Function Name: PWM_MOTORS_3_ReadCounter
 412:Generated_Source\PSoC5/PWM_MOTORS_3.c ****     ********************************************************************************
 413:Generated_Source\PSoC5/PWM_MOTORS_3.c ****     *
 414:Generated_Source\PSoC5/PWM_MOTORS_3.c ****     * Summary:
 415:Generated_Source\PSoC5/PWM_MOTORS_3.c ****     *  This function returns the current value of the counter.  It doesn't matter
 416:Generated_Source\PSoC5/PWM_MOTORS_3.c ****     *  if the counter is enabled or running.
 417:Generated_Source\PSoC5/PWM_MOTORS_3.c ****     *
 418:Generated_Source\PSoC5/PWM_MOTORS_3.c ****     * Parameters:
 419:Generated_Source\PSoC5/PWM_MOTORS_3.c ****     *  None
 420:Generated_Source\PSoC5/PWM_MOTORS_3.c ****     *
 421:Generated_Source\PSoC5/PWM_MOTORS_3.c ****     * Return:
 422:Generated_Source\PSoC5/PWM_MOTORS_3.c ****     *  The current value of the counter.
 423:Generated_Source\PSoC5/PWM_MOTORS_3.c ****     *
 424:Generated_Source\PSoC5/PWM_MOTORS_3.c ****     *******************************************************************************/
 425:Generated_Source\PSoC5/PWM_MOTORS_3.c ****     uint8 PWM_MOTORS_3_ReadCounter(void) 
 426:Generated_Source\PSoC5/PWM_MOTORS_3.c ****     {
 228              		.loc 1 426 0
 229              		.cfi_startproc
 230              		@ args = 0, pretend = 0, frame = 0
 231              		@ frame_needed = 1, uses_anonymous_args = 0
 232              		@ link register save eliminated.
 233 0000 80B4     		push	{r7}
 234              		.cfi_def_cfa_offset 4
 235              		.cfi_offset 7, -4
 236 0002 00AF     		add	r7, sp, #0
 237              		.cfi_def_cfa_register 7
 427:Generated_Source\PSoC5/PWM_MOTORS_3.c ****         /* Force capture by reading Accumulator */
 428:Generated_Source\PSoC5/PWM_MOTORS_3.c ****         /* Must first do a software capture to be able to read the counter */
 429:Generated_Source\PSoC5/PWM_MOTORS_3.c ****         /* It is up to the user code to make sure there isn't already captured data in the FIFO */
 430:Generated_Source\PSoC5/PWM_MOTORS_3.c ****           (void)CY_GET_REG8(PWM_MOTORS_3_COUNTERCAP_LSB_PTR_8BIT);
 238              		.loc 1 430 0
 239 0004 044B     		ldr	r3, .L15
 240 0006 1B78     		ldrb	r3, [r3]
 431:Generated_Source\PSoC5/PWM_MOTORS_3.c **** 
 432:Generated_Source\PSoC5/PWM_MOTORS_3.c ****         /* Read the data from the FIFO */
 433:Generated_Source\PSoC5/PWM_MOTORS_3.c ****         return (CY_GET_REG8(PWM_MOTORS_3_CAPTURE_LSB_PTR));
 241              		.loc 1 433 0
 242 0008 044B     		ldr	r3, .L15+4
 243 000a 1B78     		ldrb	r3, [r3]
 244 000c DBB2     		uxtb	r3, r3
 434:Generated_Source\PSoC5/PWM_MOTORS_3.c ****     }
 245              		.loc 1 434 0
 246 000e 1846     		mov	r0, r3
 247 0010 BD46     		mov	sp, r7
 248              		.cfi_def_cfa_register 13
 249              		@ sp needed
 250 0012 80BC     		pop	{r7}
ARM GAS  C:\Users\mgnocco\AppData\Local\Temp\ccNRgxPZ.s 			page 13


 251              		.cfi_restore 7
 252              		.cfi_def_cfa_offset 0
 253 0014 7047     		bx	lr
 254              	.L16:
 255 0016 00BF     		.align	2
 256              	.L15:
 257 0018 15650040 		.word	1073767701
 258 001c 55650040 		.word	1073767765
 259              		.cfi_endproc
 260              	.LFE5:
 261              		.size	PWM_MOTORS_3_ReadCounter, .-PWM_MOTORS_3_ReadCounter
 262              		.section	.text.PWM_MOTORS_3_WritePeriod,"ax",%progbits
 263              		.align	2
 264              		.global	PWM_MOTORS_3_WritePeriod
 265              		.thumb
 266              		.thumb_func
 267              		.type	PWM_MOTORS_3_WritePeriod, %function
 268              	PWM_MOTORS_3_WritePeriod:
 269              	.LFB6:
 435:Generated_Source\PSoC5/PWM_MOTORS_3.c **** 
 436:Generated_Source\PSoC5/PWM_MOTORS_3.c ****     #if (PWM_MOTORS_3_UseStatus)
 437:Generated_Source\PSoC5/PWM_MOTORS_3.c **** 
 438:Generated_Source\PSoC5/PWM_MOTORS_3.c **** 
 439:Generated_Source\PSoC5/PWM_MOTORS_3.c ****         /*******************************************************************************
 440:Generated_Source\PSoC5/PWM_MOTORS_3.c ****         * Function Name: PWM_MOTORS_3_ClearFIFO
 441:Generated_Source\PSoC5/PWM_MOTORS_3.c ****         ********************************************************************************
 442:Generated_Source\PSoC5/PWM_MOTORS_3.c ****         *
 443:Generated_Source\PSoC5/PWM_MOTORS_3.c ****         * Summary:
 444:Generated_Source\PSoC5/PWM_MOTORS_3.c ****         *  This function clears all capture data from the capture FIFO
 445:Generated_Source\PSoC5/PWM_MOTORS_3.c ****         *
 446:Generated_Source\PSoC5/PWM_MOTORS_3.c ****         * Parameters:
 447:Generated_Source\PSoC5/PWM_MOTORS_3.c ****         *  None
 448:Generated_Source\PSoC5/PWM_MOTORS_3.c ****         *
 449:Generated_Source\PSoC5/PWM_MOTORS_3.c ****         * Return:
 450:Generated_Source\PSoC5/PWM_MOTORS_3.c ****         *  None
 451:Generated_Source\PSoC5/PWM_MOTORS_3.c ****         *
 452:Generated_Source\PSoC5/PWM_MOTORS_3.c ****         *******************************************************************************/
 453:Generated_Source\PSoC5/PWM_MOTORS_3.c ****         void PWM_MOTORS_3_ClearFIFO(void) 
 454:Generated_Source\PSoC5/PWM_MOTORS_3.c ****         {
 455:Generated_Source\PSoC5/PWM_MOTORS_3.c ****             while(0u != (PWM_MOTORS_3_ReadStatusRegister() & PWM_MOTORS_3_STATUS_FIFONEMPTY))
 456:Generated_Source\PSoC5/PWM_MOTORS_3.c ****             {
 457:Generated_Source\PSoC5/PWM_MOTORS_3.c ****                 (void)PWM_MOTORS_3_ReadCapture();
 458:Generated_Source\PSoC5/PWM_MOTORS_3.c ****             }
 459:Generated_Source\PSoC5/PWM_MOTORS_3.c ****         }
 460:Generated_Source\PSoC5/PWM_MOTORS_3.c **** 
 461:Generated_Source\PSoC5/PWM_MOTORS_3.c ****     #endif /* PWM_MOTORS_3_UseStatus */
 462:Generated_Source\PSoC5/PWM_MOTORS_3.c **** 
 463:Generated_Source\PSoC5/PWM_MOTORS_3.c **** #endif /* !PWM_MOTORS_3_UsingFixedFunction */
 464:Generated_Source\PSoC5/PWM_MOTORS_3.c **** 
 465:Generated_Source\PSoC5/PWM_MOTORS_3.c **** 
 466:Generated_Source\PSoC5/PWM_MOTORS_3.c **** /*******************************************************************************
 467:Generated_Source\PSoC5/PWM_MOTORS_3.c **** * Function Name: PWM_MOTORS_3_WritePeriod
 468:Generated_Source\PSoC5/PWM_MOTORS_3.c **** ********************************************************************************
 469:Generated_Source\PSoC5/PWM_MOTORS_3.c **** *
 470:Generated_Source\PSoC5/PWM_MOTORS_3.c **** * Summary:
 471:Generated_Source\PSoC5/PWM_MOTORS_3.c **** *  This function is used to change the period of the counter.  The new period
 472:Generated_Source\PSoC5/PWM_MOTORS_3.c **** *  will be loaded the next time terminal count is detected.
ARM GAS  C:\Users\mgnocco\AppData\Local\Temp\ccNRgxPZ.s 			page 14


 473:Generated_Source\PSoC5/PWM_MOTORS_3.c **** *
 474:Generated_Source\PSoC5/PWM_MOTORS_3.c **** * Parameters:
 475:Generated_Source\PSoC5/PWM_MOTORS_3.c **** *  period:  Period value. May be between 1 and (2^Resolution)-1.  A value of 0
 476:Generated_Source\PSoC5/PWM_MOTORS_3.c **** *           will result in the counter remaining at zero.
 477:Generated_Source\PSoC5/PWM_MOTORS_3.c **** *
 478:Generated_Source\PSoC5/PWM_MOTORS_3.c **** * Return:
 479:Generated_Source\PSoC5/PWM_MOTORS_3.c **** *  None
 480:Generated_Source\PSoC5/PWM_MOTORS_3.c **** *
 481:Generated_Source\PSoC5/PWM_MOTORS_3.c **** *******************************************************************************/
 482:Generated_Source\PSoC5/PWM_MOTORS_3.c **** void PWM_MOTORS_3_WritePeriod(uint8 period) 
 483:Generated_Source\PSoC5/PWM_MOTORS_3.c **** {
 270              		.loc 1 483 0
 271              		.cfi_startproc
 272              		@ args = 0, pretend = 0, frame = 8
 273              		@ frame_needed = 1, uses_anonymous_args = 0
 274              		@ link register save eliminated.
 275 0000 80B4     		push	{r7}
 276              		.cfi_def_cfa_offset 4
 277              		.cfi_offset 7, -4
 278 0002 83B0     		sub	sp, sp, #12
 279              		.cfi_def_cfa_offset 16
 280 0004 00AF     		add	r7, sp, #0
 281              		.cfi_def_cfa_register 7
 282 0006 0346     		mov	r3, r0
 283 0008 FB71     		strb	r3, [r7, #7]
 484:Generated_Source\PSoC5/PWM_MOTORS_3.c ****     #if(PWM_MOTORS_3_UsingFixedFunction)
 485:Generated_Source\PSoC5/PWM_MOTORS_3.c ****         CY_SET_REG16(PWM_MOTORS_3_PERIOD_LSB_PTR, (uint16)period);
 486:Generated_Source\PSoC5/PWM_MOTORS_3.c ****     #else
 487:Generated_Source\PSoC5/PWM_MOTORS_3.c ****         CY_SET_REG8(PWM_MOTORS_3_PERIOD_LSB_PTR, period);
 284              		.loc 1 487 0
 285 000a 044A     		ldr	r2, .L18
 286 000c FB79     		ldrb	r3, [r7, #7]
 287 000e 1370     		strb	r3, [r2]
 488:Generated_Source\PSoC5/PWM_MOTORS_3.c ****     #endif /* (PWM_MOTORS_3_UsingFixedFunction) */
 489:Generated_Source\PSoC5/PWM_MOTORS_3.c **** }
 288              		.loc 1 489 0
 289 0010 00BF     		nop
 290 0012 0C37     		adds	r7, r7, #12
 291              		.cfi_def_cfa_offset 4
 292 0014 BD46     		mov	sp, r7
 293              		.cfi_def_cfa_register 13
 294              		@ sp needed
 295 0016 80BC     		pop	{r7}
 296              		.cfi_restore 7
 297              		.cfi_def_cfa_offset 0
 298 0018 7047     		bx	lr
 299              	.L19:
 300 001a 00BF     		.align	2
 301              	.L18:
 302 001c 45650040 		.word	1073767749
 303              		.cfi_endproc
 304              	.LFE6:
 305              		.size	PWM_MOTORS_3_WritePeriod, .-PWM_MOTORS_3_WritePeriod
 306              		.section	.text.PWM_MOTORS_3_WriteCompare1,"ax",%progbits
 307              		.align	2
 308              		.global	PWM_MOTORS_3_WriteCompare1
 309              		.thumb
ARM GAS  C:\Users\mgnocco\AppData\Local\Temp\ccNRgxPZ.s 			page 15


 310              		.thumb_func
 311              		.type	PWM_MOTORS_3_WriteCompare1, %function
 312              	PWM_MOTORS_3_WriteCompare1:
 313              	.LFB7:
 490:Generated_Source\PSoC5/PWM_MOTORS_3.c **** 
 491:Generated_Source\PSoC5/PWM_MOTORS_3.c **** #if (PWM_MOTORS_3_UseOneCompareMode)
 492:Generated_Source\PSoC5/PWM_MOTORS_3.c **** 
 493:Generated_Source\PSoC5/PWM_MOTORS_3.c **** 
 494:Generated_Source\PSoC5/PWM_MOTORS_3.c ****     /*******************************************************************************
 495:Generated_Source\PSoC5/PWM_MOTORS_3.c ****     * Function Name: PWM_MOTORS_3_WriteCompare
 496:Generated_Source\PSoC5/PWM_MOTORS_3.c ****     ********************************************************************************
 497:Generated_Source\PSoC5/PWM_MOTORS_3.c ****     *
 498:Generated_Source\PSoC5/PWM_MOTORS_3.c ****     * Summary:
 499:Generated_Source\PSoC5/PWM_MOTORS_3.c ****     *  This funtion is used to change the compare1 value when the PWM is in Dither
 500:Generated_Source\PSoC5/PWM_MOTORS_3.c ****     *  mode. The compare output will reflect the new value on the next UDB clock.
 501:Generated_Source\PSoC5/PWM_MOTORS_3.c ****     *  The compare output will be driven high when the present counter value is
 502:Generated_Source\PSoC5/PWM_MOTORS_3.c ****     *  compared to the compare value based on the compare mode defined in
 503:Generated_Source\PSoC5/PWM_MOTORS_3.c ****     *  Dither Mode.
 504:Generated_Source\PSoC5/PWM_MOTORS_3.c ****     *
 505:Generated_Source\PSoC5/PWM_MOTORS_3.c ****     * Parameters:
 506:Generated_Source\PSoC5/PWM_MOTORS_3.c ****     *  compare:  New compare value.
 507:Generated_Source\PSoC5/PWM_MOTORS_3.c ****     *
 508:Generated_Source\PSoC5/PWM_MOTORS_3.c ****     * Return:
 509:Generated_Source\PSoC5/PWM_MOTORS_3.c ****     *  None
 510:Generated_Source\PSoC5/PWM_MOTORS_3.c ****     *
 511:Generated_Source\PSoC5/PWM_MOTORS_3.c ****     * Side Effects:
 512:Generated_Source\PSoC5/PWM_MOTORS_3.c ****     *  This function is only available if the PWM mode parameter is set to
 513:Generated_Source\PSoC5/PWM_MOTORS_3.c ****     *  Dither Mode, Center Aligned Mode or One Output Mode
 514:Generated_Source\PSoC5/PWM_MOTORS_3.c ****     *
 515:Generated_Source\PSoC5/PWM_MOTORS_3.c ****     *******************************************************************************/
 516:Generated_Source\PSoC5/PWM_MOTORS_3.c ****     void PWM_MOTORS_3_WriteCompare(uint8 compare) \
 517:Generated_Source\PSoC5/PWM_MOTORS_3.c ****                                        
 518:Generated_Source\PSoC5/PWM_MOTORS_3.c ****     {
 519:Generated_Source\PSoC5/PWM_MOTORS_3.c ****         #if(PWM_MOTORS_3_UsingFixedFunction)
 520:Generated_Source\PSoC5/PWM_MOTORS_3.c ****             CY_SET_REG16(PWM_MOTORS_3_COMPARE1_LSB_PTR, (uint16)compare);
 521:Generated_Source\PSoC5/PWM_MOTORS_3.c ****         #else
 522:Generated_Source\PSoC5/PWM_MOTORS_3.c ****             CY_SET_REG8(PWM_MOTORS_3_COMPARE1_LSB_PTR, compare);
 523:Generated_Source\PSoC5/PWM_MOTORS_3.c ****         #endif /* (PWM_MOTORS_3_UsingFixedFunction) */
 524:Generated_Source\PSoC5/PWM_MOTORS_3.c **** 
 525:Generated_Source\PSoC5/PWM_MOTORS_3.c ****         #if (PWM_MOTORS_3_PWMMode == PWM_MOTORS_3__B_PWM__DITHER)
 526:Generated_Source\PSoC5/PWM_MOTORS_3.c ****             #if(PWM_MOTORS_3_UsingFixedFunction)
 527:Generated_Source\PSoC5/PWM_MOTORS_3.c ****                 CY_SET_REG16(PWM_MOTORS_3_COMPARE2_LSB_PTR, (uint16)(compare + 1u));
 528:Generated_Source\PSoC5/PWM_MOTORS_3.c ****             #else
 529:Generated_Source\PSoC5/PWM_MOTORS_3.c ****                 CY_SET_REG8(PWM_MOTORS_3_COMPARE2_LSB_PTR, (compare + 1u));
 530:Generated_Source\PSoC5/PWM_MOTORS_3.c ****             #endif /* (PWM_MOTORS_3_UsingFixedFunction) */
 531:Generated_Source\PSoC5/PWM_MOTORS_3.c ****         #endif /* (PWM_MOTORS_3_PWMMode == PWM_MOTORS_3__B_PWM__DITHER) */
 532:Generated_Source\PSoC5/PWM_MOTORS_3.c ****     }
 533:Generated_Source\PSoC5/PWM_MOTORS_3.c **** 
 534:Generated_Source\PSoC5/PWM_MOTORS_3.c **** 
 535:Generated_Source\PSoC5/PWM_MOTORS_3.c **** #else
 536:Generated_Source\PSoC5/PWM_MOTORS_3.c **** 
 537:Generated_Source\PSoC5/PWM_MOTORS_3.c **** 
 538:Generated_Source\PSoC5/PWM_MOTORS_3.c ****     /*******************************************************************************
 539:Generated_Source\PSoC5/PWM_MOTORS_3.c ****     * Function Name: PWM_MOTORS_3_WriteCompare1
 540:Generated_Source\PSoC5/PWM_MOTORS_3.c ****     ********************************************************************************
 541:Generated_Source\PSoC5/PWM_MOTORS_3.c ****     *
 542:Generated_Source\PSoC5/PWM_MOTORS_3.c ****     * Summary:
ARM GAS  C:\Users\mgnocco\AppData\Local\Temp\ccNRgxPZ.s 			page 16


 543:Generated_Source\PSoC5/PWM_MOTORS_3.c ****     *  This funtion is used to change the compare1 value.  The compare output will
 544:Generated_Source\PSoC5/PWM_MOTORS_3.c ****     *  reflect the new value on the next UDB clock.  The compare output will be
 545:Generated_Source\PSoC5/PWM_MOTORS_3.c ****     *  driven high when the present counter value is less than or less than or
 546:Generated_Source\PSoC5/PWM_MOTORS_3.c ****     *  equal to the compare register, depending on the mode.
 547:Generated_Source\PSoC5/PWM_MOTORS_3.c ****     *
 548:Generated_Source\PSoC5/PWM_MOTORS_3.c ****     * Parameters:
 549:Generated_Source\PSoC5/PWM_MOTORS_3.c ****     *  compare:  New compare value.
 550:Generated_Source\PSoC5/PWM_MOTORS_3.c ****     *
 551:Generated_Source\PSoC5/PWM_MOTORS_3.c ****     * Return:
 552:Generated_Source\PSoC5/PWM_MOTORS_3.c ****     *  None
 553:Generated_Source\PSoC5/PWM_MOTORS_3.c ****     *
 554:Generated_Source\PSoC5/PWM_MOTORS_3.c ****     *******************************************************************************/
 555:Generated_Source\PSoC5/PWM_MOTORS_3.c ****     void PWM_MOTORS_3_WriteCompare1(uint8 compare) \
 556:Generated_Source\PSoC5/PWM_MOTORS_3.c ****                                         
 557:Generated_Source\PSoC5/PWM_MOTORS_3.c ****     {
 314              		.loc 1 557 0
 315              		.cfi_startproc
 316              		@ args = 0, pretend = 0, frame = 8
 317              		@ frame_needed = 1, uses_anonymous_args = 0
 318              		@ link register save eliminated.
 319 0000 80B4     		push	{r7}
 320              		.cfi_def_cfa_offset 4
 321              		.cfi_offset 7, -4
 322 0002 83B0     		sub	sp, sp, #12
 323              		.cfi_def_cfa_offset 16
 324 0004 00AF     		add	r7, sp, #0
 325              		.cfi_def_cfa_register 7
 326 0006 0346     		mov	r3, r0
 327 0008 FB71     		strb	r3, [r7, #7]
 558:Generated_Source\PSoC5/PWM_MOTORS_3.c ****         #if(PWM_MOTORS_3_UsingFixedFunction)
 559:Generated_Source\PSoC5/PWM_MOTORS_3.c ****             CY_SET_REG16(PWM_MOTORS_3_COMPARE1_LSB_PTR, (uint16)compare);
 560:Generated_Source\PSoC5/PWM_MOTORS_3.c ****         #else
 561:Generated_Source\PSoC5/PWM_MOTORS_3.c ****             CY_SET_REG8(PWM_MOTORS_3_COMPARE1_LSB_PTR, compare);
 328              		.loc 1 561 0
 329 000a 044A     		ldr	r2, .L21
 330 000c FB79     		ldrb	r3, [r7, #7]
 331 000e 1370     		strb	r3, [r2]
 562:Generated_Source\PSoC5/PWM_MOTORS_3.c ****         #endif /* (PWM_MOTORS_3_UsingFixedFunction) */
 563:Generated_Source\PSoC5/PWM_MOTORS_3.c ****     }
 332              		.loc 1 563 0
 333 0010 00BF     		nop
 334 0012 0C37     		adds	r7, r7, #12
 335              		.cfi_def_cfa_offset 4
 336 0014 BD46     		mov	sp, r7
 337              		.cfi_def_cfa_register 13
 338              		@ sp needed
 339 0016 80BC     		pop	{r7}
 340              		.cfi_restore 7
 341              		.cfi_def_cfa_offset 0
 342 0018 7047     		bx	lr
 343              	.L22:
 344 001a 00BF     		.align	2
 345              	.L21:
 346 001c 25650040 		.word	1073767717
 347              		.cfi_endproc
 348              	.LFE7:
 349              		.size	PWM_MOTORS_3_WriteCompare1, .-PWM_MOTORS_3_WriteCompare1
ARM GAS  C:\Users\mgnocco\AppData\Local\Temp\ccNRgxPZ.s 			page 17


 350              		.section	.text.PWM_MOTORS_3_WriteCompare2,"ax",%progbits
 351              		.align	2
 352              		.global	PWM_MOTORS_3_WriteCompare2
 353              		.thumb
 354              		.thumb_func
 355              		.type	PWM_MOTORS_3_WriteCompare2, %function
 356              	PWM_MOTORS_3_WriteCompare2:
 357              	.LFB8:
 564:Generated_Source\PSoC5/PWM_MOTORS_3.c **** 
 565:Generated_Source\PSoC5/PWM_MOTORS_3.c **** 
 566:Generated_Source\PSoC5/PWM_MOTORS_3.c ****     /*******************************************************************************
 567:Generated_Source\PSoC5/PWM_MOTORS_3.c ****     * Function Name: PWM_MOTORS_3_WriteCompare2
 568:Generated_Source\PSoC5/PWM_MOTORS_3.c ****     ********************************************************************************
 569:Generated_Source\PSoC5/PWM_MOTORS_3.c ****     *
 570:Generated_Source\PSoC5/PWM_MOTORS_3.c ****     * Summary:
 571:Generated_Source\PSoC5/PWM_MOTORS_3.c ****     *  This funtion is used to change the compare value, for compare1 output.
 572:Generated_Source\PSoC5/PWM_MOTORS_3.c ****     *  The compare output will reflect the new value on the next UDB clock.
 573:Generated_Source\PSoC5/PWM_MOTORS_3.c ****     *  The compare output will be driven high when the present counter value is
 574:Generated_Source\PSoC5/PWM_MOTORS_3.c ****     *  less than or less than or equal to the compare register, depending on the
 575:Generated_Source\PSoC5/PWM_MOTORS_3.c ****     *  mode.
 576:Generated_Source\PSoC5/PWM_MOTORS_3.c ****     *
 577:Generated_Source\PSoC5/PWM_MOTORS_3.c ****     * Parameters:
 578:Generated_Source\PSoC5/PWM_MOTORS_3.c ****     *  compare:  New compare value.
 579:Generated_Source\PSoC5/PWM_MOTORS_3.c ****     *
 580:Generated_Source\PSoC5/PWM_MOTORS_3.c ****     * Return:
 581:Generated_Source\PSoC5/PWM_MOTORS_3.c ****     *  None
 582:Generated_Source\PSoC5/PWM_MOTORS_3.c ****     *
 583:Generated_Source\PSoC5/PWM_MOTORS_3.c ****     *******************************************************************************/
 584:Generated_Source\PSoC5/PWM_MOTORS_3.c ****     void PWM_MOTORS_3_WriteCompare2(uint8 compare) \
 585:Generated_Source\PSoC5/PWM_MOTORS_3.c ****                                         
 586:Generated_Source\PSoC5/PWM_MOTORS_3.c ****     {
 358              		.loc 1 586 0
 359              		.cfi_startproc
 360              		@ args = 0, pretend = 0, frame = 8
 361              		@ frame_needed = 1, uses_anonymous_args = 0
 362              		@ link register save eliminated.
 363 0000 80B4     		push	{r7}
 364              		.cfi_def_cfa_offset 4
 365              		.cfi_offset 7, -4
 366 0002 83B0     		sub	sp, sp, #12
 367              		.cfi_def_cfa_offset 16
 368 0004 00AF     		add	r7, sp, #0
 369              		.cfi_def_cfa_register 7
 370 0006 0346     		mov	r3, r0
 371 0008 FB71     		strb	r3, [r7, #7]
 587:Generated_Source\PSoC5/PWM_MOTORS_3.c ****         #if(PWM_MOTORS_3_UsingFixedFunction)
 588:Generated_Source\PSoC5/PWM_MOTORS_3.c ****             CY_SET_REG16(PWM_MOTORS_3_COMPARE2_LSB_PTR, compare);
 589:Generated_Source\PSoC5/PWM_MOTORS_3.c ****         #else
 590:Generated_Source\PSoC5/PWM_MOTORS_3.c ****             CY_SET_REG8(PWM_MOTORS_3_COMPARE2_LSB_PTR, compare);
 372              		.loc 1 590 0
 373 000a 044A     		ldr	r2, .L24
 374 000c FB79     		ldrb	r3, [r7, #7]
 375 000e 1370     		strb	r3, [r2]
 591:Generated_Source\PSoC5/PWM_MOTORS_3.c ****         #endif /* (PWM_MOTORS_3_UsingFixedFunction) */
 592:Generated_Source\PSoC5/PWM_MOTORS_3.c ****     }
 376              		.loc 1 592 0
 377 0010 00BF     		nop
ARM GAS  C:\Users\mgnocco\AppData\Local\Temp\ccNRgxPZ.s 			page 18


 378 0012 0C37     		adds	r7, r7, #12
 379              		.cfi_def_cfa_offset 4
 380 0014 BD46     		mov	sp, r7
 381              		.cfi_def_cfa_register 13
 382              		@ sp needed
 383 0016 80BC     		pop	{r7}
 384              		.cfi_restore 7
 385              		.cfi_def_cfa_offset 0
 386 0018 7047     		bx	lr
 387              	.L25:
 388 001a 00BF     		.align	2
 389              	.L24:
 390 001c 35650040 		.word	1073767733
 391              		.cfi_endproc
 392              	.LFE8:
 393              		.size	PWM_MOTORS_3_WriteCompare2, .-PWM_MOTORS_3_WriteCompare2
 394              		.section	.text.PWM_MOTORS_3_ReadCapture,"ax",%progbits
 395              		.align	2
 396              		.global	PWM_MOTORS_3_ReadCapture
 397              		.thumb
 398              		.thumb_func
 399              		.type	PWM_MOTORS_3_ReadCapture, %function
 400              	PWM_MOTORS_3_ReadCapture:
 401              	.LFB9:
 593:Generated_Source\PSoC5/PWM_MOTORS_3.c **** #endif /* UseOneCompareMode */
 594:Generated_Source\PSoC5/PWM_MOTORS_3.c **** 
 595:Generated_Source\PSoC5/PWM_MOTORS_3.c **** #if (PWM_MOTORS_3_DeadBandUsed)
 596:Generated_Source\PSoC5/PWM_MOTORS_3.c **** 
 597:Generated_Source\PSoC5/PWM_MOTORS_3.c **** 
 598:Generated_Source\PSoC5/PWM_MOTORS_3.c ****     /*******************************************************************************
 599:Generated_Source\PSoC5/PWM_MOTORS_3.c ****     * Function Name: PWM_MOTORS_3_WriteDeadTime
 600:Generated_Source\PSoC5/PWM_MOTORS_3.c ****     ********************************************************************************
 601:Generated_Source\PSoC5/PWM_MOTORS_3.c ****     *
 602:Generated_Source\PSoC5/PWM_MOTORS_3.c ****     * Summary:
 603:Generated_Source\PSoC5/PWM_MOTORS_3.c ****     *  This function writes the dead-band counts to the corresponding register
 604:Generated_Source\PSoC5/PWM_MOTORS_3.c ****     *
 605:Generated_Source\PSoC5/PWM_MOTORS_3.c ****     * Parameters:
 606:Generated_Source\PSoC5/PWM_MOTORS_3.c ****     *  deadtime:  Number of counts for dead time
 607:Generated_Source\PSoC5/PWM_MOTORS_3.c ****     *
 608:Generated_Source\PSoC5/PWM_MOTORS_3.c ****     * Return:
 609:Generated_Source\PSoC5/PWM_MOTORS_3.c ****     *  None
 610:Generated_Source\PSoC5/PWM_MOTORS_3.c ****     *
 611:Generated_Source\PSoC5/PWM_MOTORS_3.c ****     *******************************************************************************/
 612:Generated_Source\PSoC5/PWM_MOTORS_3.c ****     void PWM_MOTORS_3_WriteDeadTime(uint8 deadtime) 
 613:Generated_Source\PSoC5/PWM_MOTORS_3.c ****     {
 614:Generated_Source\PSoC5/PWM_MOTORS_3.c ****         /* If using the Dead Band 1-255 mode then just write the register */
 615:Generated_Source\PSoC5/PWM_MOTORS_3.c ****         #if(!PWM_MOTORS_3_DeadBand2_4)
 616:Generated_Source\PSoC5/PWM_MOTORS_3.c ****             CY_SET_REG8(PWM_MOTORS_3_DEADBAND_COUNT_PTR, deadtime);
 617:Generated_Source\PSoC5/PWM_MOTORS_3.c ****         #else
 618:Generated_Source\PSoC5/PWM_MOTORS_3.c ****             /* Otherwise the data has to be masked and offset */
 619:Generated_Source\PSoC5/PWM_MOTORS_3.c ****             /* Clear existing data */
 620:Generated_Source\PSoC5/PWM_MOTORS_3.c ****             PWM_MOTORS_3_DEADBAND_COUNT &= ((uint8)(~PWM_MOTORS_3_DEADBAND_COUNT_MASK));
 621:Generated_Source\PSoC5/PWM_MOTORS_3.c **** 
 622:Generated_Source\PSoC5/PWM_MOTORS_3.c ****             /* Set new dead time */
 623:Generated_Source\PSoC5/PWM_MOTORS_3.c ****             #if(PWM_MOTORS_3_DEADBAND_COUNT_SHIFT)
 624:Generated_Source\PSoC5/PWM_MOTORS_3.c ****                 PWM_MOTORS_3_DEADBAND_COUNT |= ((uint8)((uint8)deadtime << PWM_MOTORS_3_DEADBAND_CO
 625:Generated_Source\PSoC5/PWM_MOTORS_3.c ****                                                     PWM_MOTORS_3_DEADBAND_COUNT_MASK;
ARM GAS  C:\Users\mgnocco\AppData\Local\Temp\ccNRgxPZ.s 			page 19


 626:Generated_Source\PSoC5/PWM_MOTORS_3.c ****             #else
 627:Generated_Source\PSoC5/PWM_MOTORS_3.c ****                 PWM_MOTORS_3_DEADBAND_COUNT |= deadtime & PWM_MOTORS_3_DEADBAND_COUNT_MASK;
 628:Generated_Source\PSoC5/PWM_MOTORS_3.c ****             #endif /* (PWM_MOTORS_3_DEADBAND_COUNT_SHIFT) */
 629:Generated_Source\PSoC5/PWM_MOTORS_3.c **** 
 630:Generated_Source\PSoC5/PWM_MOTORS_3.c ****         #endif /* (!PWM_MOTORS_3_DeadBand2_4) */
 631:Generated_Source\PSoC5/PWM_MOTORS_3.c ****     }
 632:Generated_Source\PSoC5/PWM_MOTORS_3.c **** 
 633:Generated_Source\PSoC5/PWM_MOTORS_3.c **** 
 634:Generated_Source\PSoC5/PWM_MOTORS_3.c ****     /*******************************************************************************
 635:Generated_Source\PSoC5/PWM_MOTORS_3.c ****     * Function Name: PWM_MOTORS_3_ReadDeadTime
 636:Generated_Source\PSoC5/PWM_MOTORS_3.c ****     ********************************************************************************
 637:Generated_Source\PSoC5/PWM_MOTORS_3.c ****     *
 638:Generated_Source\PSoC5/PWM_MOTORS_3.c ****     * Summary:
 639:Generated_Source\PSoC5/PWM_MOTORS_3.c ****     *  This function reads the dead-band counts from the corresponding register
 640:Generated_Source\PSoC5/PWM_MOTORS_3.c ****     *
 641:Generated_Source\PSoC5/PWM_MOTORS_3.c ****     * Parameters:
 642:Generated_Source\PSoC5/PWM_MOTORS_3.c ****     *  None
 643:Generated_Source\PSoC5/PWM_MOTORS_3.c ****     *
 644:Generated_Source\PSoC5/PWM_MOTORS_3.c ****     * Return:
 645:Generated_Source\PSoC5/PWM_MOTORS_3.c ****     *  Dead Band Counts
 646:Generated_Source\PSoC5/PWM_MOTORS_3.c ****     *
 647:Generated_Source\PSoC5/PWM_MOTORS_3.c ****     *******************************************************************************/
 648:Generated_Source\PSoC5/PWM_MOTORS_3.c ****     uint8 PWM_MOTORS_3_ReadDeadTime(void) 
 649:Generated_Source\PSoC5/PWM_MOTORS_3.c ****     {
 650:Generated_Source\PSoC5/PWM_MOTORS_3.c ****         /* If using the Dead Band 1-255 mode then just read the register */
 651:Generated_Source\PSoC5/PWM_MOTORS_3.c ****         #if(!PWM_MOTORS_3_DeadBand2_4)
 652:Generated_Source\PSoC5/PWM_MOTORS_3.c ****             return (CY_GET_REG8(PWM_MOTORS_3_DEADBAND_COUNT_PTR));
 653:Generated_Source\PSoC5/PWM_MOTORS_3.c ****         #else
 654:Generated_Source\PSoC5/PWM_MOTORS_3.c **** 
 655:Generated_Source\PSoC5/PWM_MOTORS_3.c ****             /* Otherwise the data has to be masked and offset */
 656:Generated_Source\PSoC5/PWM_MOTORS_3.c ****             #if(PWM_MOTORS_3_DEADBAND_COUNT_SHIFT)
 657:Generated_Source\PSoC5/PWM_MOTORS_3.c ****                 return ((uint8)(((uint8)(PWM_MOTORS_3_DEADBAND_COUNT & PWM_MOTORS_3_DEADBAND_COUNT_
 658:Generated_Source\PSoC5/PWM_MOTORS_3.c ****                                                                            PWM_MOTORS_3_DEADBAND_CO
 659:Generated_Source\PSoC5/PWM_MOTORS_3.c ****             #else
 660:Generated_Source\PSoC5/PWM_MOTORS_3.c ****                 return (PWM_MOTORS_3_DEADBAND_COUNT & PWM_MOTORS_3_DEADBAND_COUNT_MASK);
 661:Generated_Source\PSoC5/PWM_MOTORS_3.c ****             #endif /* (PWM_MOTORS_3_DEADBAND_COUNT_SHIFT) */
 662:Generated_Source\PSoC5/PWM_MOTORS_3.c ****         #endif /* (!PWM_MOTORS_3_DeadBand2_4) */
 663:Generated_Source\PSoC5/PWM_MOTORS_3.c ****     }
 664:Generated_Source\PSoC5/PWM_MOTORS_3.c **** #endif /* DeadBandUsed */
 665:Generated_Source\PSoC5/PWM_MOTORS_3.c **** 
 666:Generated_Source\PSoC5/PWM_MOTORS_3.c **** #if (PWM_MOTORS_3_UseStatus || PWM_MOTORS_3_UsingFixedFunction)
 667:Generated_Source\PSoC5/PWM_MOTORS_3.c **** 
 668:Generated_Source\PSoC5/PWM_MOTORS_3.c **** 
 669:Generated_Source\PSoC5/PWM_MOTORS_3.c ****     /*******************************************************************************
 670:Generated_Source\PSoC5/PWM_MOTORS_3.c ****     * Function Name: PWM_MOTORS_3_SetInterruptMode
 671:Generated_Source\PSoC5/PWM_MOTORS_3.c ****     ********************************************************************************
 672:Generated_Source\PSoC5/PWM_MOTORS_3.c ****     *
 673:Generated_Source\PSoC5/PWM_MOTORS_3.c ****     * Summary:
 674:Generated_Source\PSoC5/PWM_MOTORS_3.c ****     *  This function configures the interrupts mask control of theinterrupt
 675:Generated_Source\PSoC5/PWM_MOTORS_3.c ****     *  source status register.
 676:Generated_Source\PSoC5/PWM_MOTORS_3.c ****     *
 677:Generated_Source\PSoC5/PWM_MOTORS_3.c ****     * Parameters:
 678:Generated_Source\PSoC5/PWM_MOTORS_3.c ****     *  uint8 interruptMode: Bit field containing the interrupt sources enabled
 679:Generated_Source\PSoC5/PWM_MOTORS_3.c ****     *
 680:Generated_Source\PSoC5/PWM_MOTORS_3.c ****     * Return:
 681:Generated_Source\PSoC5/PWM_MOTORS_3.c ****     *  None
 682:Generated_Source\PSoC5/PWM_MOTORS_3.c ****     *
ARM GAS  C:\Users\mgnocco\AppData\Local\Temp\ccNRgxPZ.s 			page 20


 683:Generated_Source\PSoC5/PWM_MOTORS_3.c ****     *******************************************************************************/
 684:Generated_Source\PSoC5/PWM_MOTORS_3.c ****     void PWM_MOTORS_3_SetInterruptMode(uint8 interruptMode) 
 685:Generated_Source\PSoC5/PWM_MOTORS_3.c ****     {
 686:Generated_Source\PSoC5/PWM_MOTORS_3.c ****         CY_SET_REG8(PWM_MOTORS_3_STATUS_MASK_PTR, interruptMode);
 687:Generated_Source\PSoC5/PWM_MOTORS_3.c ****     }
 688:Generated_Source\PSoC5/PWM_MOTORS_3.c **** 
 689:Generated_Source\PSoC5/PWM_MOTORS_3.c **** 
 690:Generated_Source\PSoC5/PWM_MOTORS_3.c ****     /*******************************************************************************
 691:Generated_Source\PSoC5/PWM_MOTORS_3.c ****     * Function Name: PWM_MOTORS_3_ReadStatusRegister
 692:Generated_Source\PSoC5/PWM_MOTORS_3.c ****     ********************************************************************************
 693:Generated_Source\PSoC5/PWM_MOTORS_3.c ****     *
 694:Generated_Source\PSoC5/PWM_MOTORS_3.c ****     * Summary:
 695:Generated_Source\PSoC5/PWM_MOTORS_3.c ****     *  This function returns the current state of the status register.
 696:Generated_Source\PSoC5/PWM_MOTORS_3.c ****     *
 697:Generated_Source\PSoC5/PWM_MOTORS_3.c ****     * Parameters:
 698:Generated_Source\PSoC5/PWM_MOTORS_3.c ****     *  None
 699:Generated_Source\PSoC5/PWM_MOTORS_3.c ****     *
 700:Generated_Source\PSoC5/PWM_MOTORS_3.c ****     * Return:
 701:Generated_Source\PSoC5/PWM_MOTORS_3.c ****     *  uint8 : Current status register value. The status register bits are:
 702:Generated_Source\PSoC5/PWM_MOTORS_3.c ****     *  [7:6] : Unused(0)
 703:Generated_Source\PSoC5/PWM_MOTORS_3.c ****     *  [5]   : Kill event output
 704:Generated_Source\PSoC5/PWM_MOTORS_3.c ****     *  [4]   : FIFO not empty
 705:Generated_Source\PSoC5/PWM_MOTORS_3.c ****     *  [3]   : FIFO full
 706:Generated_Source\PSoC5/PWM_MOTORS_3.c ****     *  [2]   : Terminal count
 707:Generated_Source\PSoC5/PWM_MOTORS_3.c ****     *  [1]   : Compare output 2
 708:Generated_Source\PSoC5/PWM_MOTORS_3.c ****     *  [0]   : Compare output 1
 709:Generated_Source\PSoC5/PWM_MOTORS_3.c ****     *
 710:Generated_Source\PSoC5/PWM_MOTORS_3.c ****     *******************************************************************************/
 711:Generated_Source\PSoC5/PWM_MOTORS_3.c ****     uint8 PWM_MOTORS_3_ReadStatusRegister(void) 
 712:Generated_Source\PSoC5/PWM_MOTORS_3.c ****     {
 713:Generated_Source\PSoC5/PWM_MOTORS_3.c ****         return (CY_GET_REG8(PWM_MOTORS_3_STATUS_PTR));
 714:Generated_Source\PSoC5/PWM_MOTORS_3.c ****     }
 715:Generated_Source\PSoC5/PWM_MOTORS_3.c **** 
 716:Generated_Source\PSoC5/PWM_MOTORS_3.c **** #endif /* (PWM_MOTORS_3_UseStatus || PWM_MOTORS_3_UsingFixedFunction) */
 717:Generated_Source\PSoC5/PWM_MOTORS_3.c **** 
 718:Generated_Source\PSoC5/PWM_MOTORS_3.c **** 
 719:Generated_Source\PSoC5/PWM_MOTORS_3.c **** #if (PWM_MOTORS_3_UseControl)
 720:Generated_Source\PSoC5/PWM_MOTORS_3.c **** 
 721:Generated_Source\PSoC5/PWM_MOTORS_3.c **** 
 722:Generated_Source\PSoC5/PWM_MOTORS_3.c ****     /*******************************************************************************
 723:Generated_Source\PSoC5/PWM_MOTORS_3.c ****     * Function Name: PWM_MOTORS_3_ReadControlRegister
 724:Generated_Source\PSoC5/PWM_MOTORS_3.c ****     ********************************************************************************
 725:Generated_Source\PSoC5/PWM_MOTORS_3.c ****     *
 726:Generated_Source\PSoC5/PWM_MOTORS_3.c ****     * Summary:
 727:Generated_Source\PSoC5/PWM_MOTORS_3.c ****     *  Returns the current state of the control register. This API is available
 728:Generated_Source\PSoC5/PWM_MOTORS_3.c ****     *  only if the control register is not removed.
 729:Generated_Source\PSoC5/PWM_MOTORS_3.c ****     *
 730:Generated_Source\PSoC5/PWM_MOTORS_3.c ****     * Parameters:
 731:Generated_Source\PSoC5/PWM_MOTORS_3.c ****     *  None
 732:Generated_Source\PSoC5/PWM_MOTORS_3.c ****     *
 733:Generated_Source\PSoC5/PWM_MOTORS_3.c ****     * Return:
 734:Generated_Source\PSoC5/PWM_MOTORS_3.c ****     *  uint8 : Current control register value
 735:Generated_Source\PSoC5/PWM_MOTORS_3.c ****     *
 736:Generated_Source\PSoC5/PWM_MOTORS_3.c ****     *******************************************************************************/
 737:Generated_Source\PSoC5/PWM_MOTORS_3.c ****     uint8 PWM_MOTORS_3_ReadControlRegister(void) 
 738:Generated_Source\PSoC5/PWM_MOTORS_3.c ****     {
 739:Generated_Source\PSoC5/PWM_MOTORS_3.c ****         uint8 result;
ARM GAS  C:\Users\mgnocco\AppData\Local\Temp\ccNRgxPZ.s 			page 21


 740:Generated_Source\PSoC5/PWM_MOTORS_3.c **** 
 741:Generated_Source\PSoC5/PWM_MOTORS_3.c ****         result = CY_GET_REG8(PWM_MOTORS_3_CONTROL_PTR);
 742:Generated_Source\PSoC5/PWM_MOTORS_3.c ****         return (result);
 743:Generated_Source\PSoC5/PWM_MOTORS_3.c ****     }
 744:Generated_Source\PSoC5/PWM_MOTORS_3.c **** 
 745:Generated_Source\PSoC5/PWM_MOTORS_3.c **** 
 746:Generated_Source\PSoC5/PWM_MOTORS_3.c ****     /*******************************************************************************
 747:Generated_Source\PSoC5/PWM_MOTORS_3.c ****     * Function Name: PWM_MOTORS_3_WriteControlRegister
 748:Generated_Source\PSoC5/PWM_MOTORS_3.c ****     ********************************************************************************
 749:Generated_Source\PSoC5/PWM_MOTORS_3.c ****     *
 750:Generated_Source\PSoC5/PWM_MOTORS_3.c ****     * Summary:
 751:Generated_Source\PSoC5/PWM_MOTORS_3.c ****     *  Sets the bit field of the control register. This API is available only if
 752:Generated_Source\PSoC5/PWM_MOTORS_3.c ****     *  the control register is not removed.
 753:Generated_Source\PSoC5/PWM_MOTORS_3.c ****     *
 754:Generated_Source\PSoC5/PWM_MOTORS_3.c ****     * Parameters:
 755:Generated_Source\PSoC5/PWM_MOTORS_3.c ****     *  uint8 control: Control register bit field, The status register bits are:
 756:Generated_Source\PSoC5/PWM_MOTORS_3.c ****     *  [7]   : PWM Enable
 757:Generated_Source\PSoC5/PWM_MOTORS_3.c ****     *  [6]   : Reset
 758:Generated_Source\PSoC5/PWM_MOTORS_3.c ****     *  [5:3] : Compare Mode2
 759:Generated_Source\PSoC5/PWM_MOTORS_3.c ****     *  [2:0] : Compare Mode2
 760:Generated_Source\PSoC5/PWM_MOTORS_3.c ****     *
 761:Generated_Source\PSoC5/PWM_MOTORS_3.c ****     * Return:
 762:Generated_Source\PSoC5/PWM_MOTORS_3.c ****     *  None
 763:Generated_Source\PSoC5/PWM_MOTORS_3.c ****     *
 764:Generated_Source\PSoC5/PWM_MOTORS_3.c ****     *******************************************************************************/
 765:Generated_Source\PSoC5/PWM_MOTORS_3.c ****     void PWM_MOTORS_3_WriteControlRegister(uint8 control) 
 766:Generated_Source\PSoC5/PWM_MOTORS_3.c ****     {
 767:Generated_Source\PSoC5/PWM_MOTORS_3.c ****         CY_SET_REG8(PWM_MOTORS_3_CONTROL_PTR, control);
 768:Generated_Source\PSoC5/PWM_MOTORS_3.c ****     }
 769:Generated_Source\PSoC5/PWM_MOTORS_3.c **** 
 770:Generated_Source\PSoC5/PWM_MOTORS_3.c **** #endif /* (PWM_MOTORS_3_UseControl) */
 771:Generated_Source\PSoC5/PWM_MOTORS_3.c **** 
 772:Generated_Source\PSoC5/PWM_MOTORS_3.c **** 
 773:Generated_Source\PSoC5/PWM_MOTORS_3.c **** #if (!PWM_MOTORS_3_UsingFixedFunction)
 774:Generated_Source\PSoC5/PWM_MOTORS_3.c **** 
 775:Generated_Source\PSoC5/PWM_MOTORS_3.c **** 
 776:Generated_Source\PSoC5/PWM_MOTORS_3.c ****     /*******************************************************************************
 777:Generated_Source\PSoC5/PWM_MOTORS_3.c ****     * Function Name: PWM_MOTORS_3_ReadCapture
 778:Generated_Source\PSoC5/PWM_MOTORS_3.c ****     ********************************************************************************
 779:Generated_Source\PSoC5/PWM_MOTORS_3.c ****     *
 780:Generated_Source\PSoC5/PWM_MOTORS_3.c ****     * Summary:
 781:Generated_Source\PSoC5/PWM_MOTORS_3.c ****     *  Reads the capture value from the capture FIFO.
 782:Generated_Source\PSoC5/PWM_MOTORS_3.c ****     *
 783:Generated_Source\PSoC5/PWM_MOTORS_3.c ****     * Parameters:
 784:Generated_Source\PSoC5/PWM_MOTORS_3.c ****     *  None
 785:Generated_Source\PSoC5/PWM_MOTORS_3.c ****     *
 786:Generated_Source\PSoC5/PWM_MOTORS_3.c ****     * Return:
 787:Generated_Source\PSoC5/PWM_MOTORS_3.c ****     *  uint8/uint16: The current capture value
 788:Generated_Source\PSoC5/PWM_MOTORS_3.c ****     *
 789:Generated_Source\PSoC5/PWM_MOTORS_3.c ****     *******************************************************************************/
 790:Generated_Source\PSoC5/PWM_MOTORS_3.c ****     uint8 PWM_MOTORS_3_ReadCapture(void) 
 791:Generated_Source\PSoC5/PWM_MOTORS_3.c ****     {
 402              		.loc 1 791 0
 403              		.cfi_startproc
 404              		@ args = 0, pretend = 0, frame = 0
 405              		@ frame_needed = 1, uses_anonymous_args = 0
 406              		@ link register save eliminated.
ARM GAS  C:\Users\mgnocco\AppData\Local\Temp\ccNRgxPZ.s 			page 22


 407 0000 80B4     		push	{r7}
 408              		.cfi_def_cfa_offset 4
 409              		.cfi_offset 7, -4
 410 0002 00AF     		add	r7, sp, #0
 411              		.cfi_def_cfa_register 7
 792:Generated_Source\PSoC5/PWM_MOTORS_3.c ****         return (CY_GET_REG8(PWM_MOTORS_3_CAPTURE_LSB_PTR));
 412              		.loc 1 792 0
 413 0004 034B     		ldr	r3, .L28
 414 0006 1B78     		ldrb	r3, [r3]
 415 0008 DBB2     		uxtb	r3, r3
 793:Generated_Source\PSoC5/PWM_MOTORS_3.c ****     }
 416              		.loc 1 793 0
 417 000a 1846     		mov	r0, r3
 418 000c BD46     		mov	sp, r7
 419              		.cfi_def_cfa_register 13
 420              		@ sp needed
 421 000e 80BC     		pop	{r7}
 422              		.cfi_restore 7
 423              		.cfi_def_cfa_offset 0
 424 0010 7047     		bx	lr
 425              	.L29:
 426 0012 00BF     		.align	2
 427              	.L28:
 428 0014 55650040 		.word	1073767765
 429              		.cfi_endproc
 430              	.LFE9:
 431              		.size	PWM_MOTORS_3_ReadCapture, .-PWM_MOTORS_3_ReadCapture
 432              		.section	.text.PWM_MOTORS_3_ReadCompare1,"ax",%progbits
 433              		.align	2
 434              		.global	PWM_MOTORS_3_ReadCompare1
 435              		.thumb
 436              		.thumb_func
 437              		.type	PWM_MOTORS_3_ReadCompare1, %function
 438              	PWM_MOTORS_3_ReadCompare1:
 439              	.LFB10:
 794:Generated_Source\PSoC5/PWM_MOTORS_3.c **** 
 795:Generated_Source\PSoC5/PWM_MOTORS_3.c **** #endif /* (!PWM_MOTORS_3_UsingFixedFunction) */
 796:Generated_Source\PSoC5/PWM_MOTORS_3.c **** 
 797:Generated_Source\PSoC5/PWM_MOTORS_3.c **** 
 798:Generated_Source\PSoC5/PWM_MOTORS_3.c **** #if (PWM_MOTORS_3_UseOneCompareMode)
 799:Generated_Source\PSoC5/PWM_MOTORS_3.c **** 
 800:Generated_Source\PSoC5/PWM_MOTORS_3.c **** 
 801:Generated_Source\PSoC5/PWM_MOTORS_3.c ****     /*******************************************************************************
 802:Generated_Source\PSoC5/PWM_MOTORS_3.c ****     * Function Name: PWM_MOTORS_3_ReadCompare
 803:Generated_Source\PSoC5/PWM_MOTORS_3.c ****     ********************************************************************************
 804:Generated_Source\PSoC5/PWM_MOTORS_3.c ****     *
 805:Generated_Source\PSoC5/PWM_MOTORS_3.c ****     * Summary:
 806:Generated_Source\PSoC5/PWM_MOTORS_3.c ****     *  Reads the compare value for the compare output when the PWM Mode parameter is
 807:Generated_Source\PSoC5/PWM_MOTORS_3.c ****     *  set to Dither mode, Center Aligned mode, or One Output mode.
 808:Generated_Source\PSoC5/PWM_MOTORS_3.c ****     *
 809:Generated_Source\PSoC5/PWM_MOTORS_3.c ****     * Parameters:
 810:Generated_Source\PSoC5/PWM_MOTORS_3.c ****     *  None
 811:Generated_Source\PSoC5/PWM_MOTORS_3.c ****     *
 812:Generated_Source\PSoC5/PWM_MOTORS_3.c ****     * Return:
 813:Generated_Source\PSoC5/PWM_MOTORS_3.c ****     *  uint8/uint16: Current compare value
 814:Generated_Source\PSoC5/PWM_MOTORS_3.c ****     *
 815:Generated_Source\PSoC5/PWM_MOTORS_3.c ****     *******************************************************************************/
ARM GAS  C:\Users\mgnocco\AppData\Local\Temp\ccNRgxPZ.s 			page 23


 816:Generated_Source\PSoC5/PWM_MOTORS_3.c ****     uint8 PWM_MOTORS_3_ReadCompare(void) 
 817:Generated_Source\PSoC5/PWM_MOTORS_3.c ****     {
 818:Generated_Source\PSoC5/PWM_MOTORS_3.c ****         #if(PWM_MOTORS_3_UsingFixedFunction)
 819:Generated_Source\PSoC5/PWM_MOTORS_3.c ****             return ((uint8)CY_GET_REG16(PWM_MOTORS_3_COMPARE1_LSB_PTR));
 820:Generated_Source\PSoC5/PWM_MOTORS_3.c ****         #else
 821:Generated_Source\PSoC5/PWM_MOTORS_3.c ****             return (CY_GET_REG8(PWM_MOTORS_3_COMPARE1_LSB_PTR));
 822:Generated_Source\PSoC5/PWM_MOTORS_3.c ****         #endif /* (PWM_MOTORS_3_UsingFixedFunction) */
 823:Generated_Source\PSoC5/PWM_MOTORS_3.c ****     }
 824:Generated_Source\PSoC5/PWM_MOTORS_3.c **** 
 825:Generated_Source\PSoC5/PWM_MOTORS_3.c **** #else
 826:Generated_Source\PSoC5/PWM_MOTORS_3.c **** 
 827:Generated_Source\PSoC5/PWM_MOTORS_3.c **** 
 828:Generated_Source\PSoC5/PWM_MOTORS_3.c ****     /*******************************************************************************
 829:Generated_Source\PSoC5/PWM_MOTORS_3.c ****     * Function Name: PWM_MOTORS_3_ReadCompare1
 830:Generated_Source\PSoC5/PWM_MOTORS_3.c ****     ********************************************************************************
 831:Generated_Source\PSoC5/PWM_MOTORS_3.c ****     *
 832:Generated_Source\PSoC5/PWM_MOTORS_3.c ****     * Summary:
 833:Generated_Source\PSoC5/PWM_MOTORS_3.c ****     *  Reads the compare value for the compare1 output.
 834:Generated_Source\PSoC5/PWM_MOTORS_3.c ****     *
 835:Generated_Source\PSoC5/PWM_MOTORS_3.c ****     * Parameters:
 836:Generated_Source\PSoC5/PWM_MOTORS_3.c ****     *  None
 837:Generated_Source\PSoC5/PWM_MOTORS_3.c ****     *
 838:Generated_Source\PSoC5/PWM_MOTORS_3.c ****     * Return:
 839:Generated_Source\PSoC5/PWM_MOTORS_3.c ****     *  uint8/uint16: Current compare value.
 840:Generated_Source\PSoC5/PWM_MOTORS_3.c ****     *
 841:Generated_Source\PSoC5/PWM_MOTORS_3.c ****     *******************************************************************************/
 842:Generated_Source\PSoC5/PWM_MOTORS_3.c ****     uint8 PWM_MOTORS_3_ReadCompare1(void) 
 843:Generated_Source\PSoC5/PWM_MOTORS_3.c ****     {
 440              		.loc 1 843 0
 441              		.cfi_startproc
 442              		@ args = 0, pretend = 0, frame = 0
 443              		@ frame_needed = 1, uses_anonymous_args = 0
 444              		@ link register save eliminated.
 445 0000 80B4     		push	{r7}
 446              		.cfi_def_cfa_offset 4
 447              		.cfi_offset 7, -4
 448 0002 00AF     		add	r7, sp, #0
 449              		.cfi_def_cfa_register 7
 844:Generated_Source\PSoC5/PWM_MOTORS_3.c ****         return (CY_GET_REG8(PWM_MOTORS_3_COMPARE1_LSB_PTR));
 450              		.loc 1 844 0
 451 0004 034B     		ldr	r3, .L32
 452 0006 1B78     		ldrb	r3, [r3]
 453 0008 DBB2     		uxtb	r3, r3
 845:Generated_Source\PSoC5/PWM_MOTORS_3.c ****     }
 454              		.loc 1 845 0
 455 000a 1846     		mov	r0, r3
 456 000c BD46     		mov	sp, r7
 457              		.cfi_def_cfa_register 13
 458              		@ sp needed
 459 000e 80BC     		pop	{r7}
 460              		.cfi_restore 7
 461              		.cfi_def_cfa_offset 0
 462 0010 7047     		bx	lr
 463              	.L33:
 464 0012 00BF     		.align	2
 465              	.L32:
 466 0014 25650040 		.word	1073767717
ARM GAS  C:\Users\mgnocco\AppData\Local\Temp\ccNRgxPZ.s 			page 24


 467              		.cfi_endproc
 468              	.LFE10:
 469              		.size	PWM_MOTORS_3_ReadCompare1, .-PWM_MOTORS_3_ReadCompare1
 470              		.section	.text.PWM_MOTORS_3_ReadCompare2,"ax",%progbits
 471              		.align	2
 472              		.global	PWM_MOTORS_3_ReadCompare2
 473              		.thumb
 474              		.thumb_func
 475              		.type	PWM_MOTORS_3_ReadCompare2, %function
 476              	PWM_MOTORS_3_ReadCompare2:
 477              	.LFB11:
 846:Generated_Source\PSoC5/PWM_MOTORS_3.c **** 
 847:Generated_Source\PSoC5/PWM_MOTORS_3.c **** 
 848:Generated_Source\PSoC5/PWM_MOTORS_3.c ****     /*******************************************************************************
 849:Generated_Source\PSoC5/PWM_MOTORS_3.c ****     * Function Name: PWM_MOTORS_3_ReadCompare2
 850:Generated_Source\PSoC5/PWM_MOTORS_3.c ****     ********************************************************************************
 851:Generated_Source\PSoC5/PWM_MOTORS_3.c ****     *
 852:Generated_Source\PSoC5/PWM_MOTORS_3.c ****     * Summary:
 853:Generated_Source\PSoC5/PWM_MOTORS_3.c ****     *  Reads the compare value for the compare2 output.
 854:Generated_Source\PSoC5/PWM_MOTORS_3.c ****     *
 855:Generated_Source\PSoC5/PWM_MOTORS_3.c ****     * Parameters:
 856:Generated_Source\PSoC5/PWM_MOTORS_3.c ****     *  None
 857:Generated_Source\PSoC5/PWM_MOTORS_3.c ****     *
 858:Generated_Source\PSoC5/PWM_MOTORS_3.c ****     * Return:
 859:Generated_Source\PSoC5/PWM_MOTORS_3.c ****     *  uint8/uint16: Current compare value.
 860:Generated_Source\PSoC5/PWM_MOTORS_3.c ****     *
 861:Generated_Source\PSoC5/PWM_MOTORS_3.c ****     *******************************************************************************/
 862:Generated_Source\PSoC5/PWM_MOTORS_3.c ****     uint8 PWM_MOTORS_3_ReadCompare2(void) 
 863:Generated_Source\PSoC5/PWM_MOTORS_3.c ****     {
 478              		.loc 1 863 0
 479              		.cfi_startproc
 480              		@ args = 0, pretend = 0, frame = 0
 481              		@ frame_needed = 1, uses_anonymous_args = 0
 482              		@ link register save eliminated.
 483 0000 80B4     		push	{r7}
 484              		.cfi_def_cfa_offset 4
 485              		.cfi_offset 7, -4
 486 0002 00AF     		add	r7, sp, #0
 487              		.cfi_def_cfa_register 7
 864:Generated_Source\PSoC5/PWM_MOTORS_3.c ****         return (CY_GET_REG8(PWM_MOTORS_3_COMPARE2_LSB_PTR));
 488              		.loc 1 864 0
 489 0004 034B     		ldr	r3, .L36
 490 0006 1B78     		ldrb	r3, [r3]
 491 0008 DBB2     		uxtb	r3, r3
 865:Generated_Source\PSoC5/PWM_MOTORS_3.c ****     }
 492              		.loc 1 865 0
 493 000a 1846     		mov	r0, r3
 494 000c BD46     		mov	sp, r7
 495              		.cfi_def_cfa_register 13
 496              		@ sp needed
 497 000e 80BC     		pop	{r7}
 498              		.cfi_restore 7
 499              		.cfi_def_cfa_offset 0
 500 0010 7047     		bx	lr
 501              	.L37:
 502 0012 00BF     		.align	2
 503              	.L36:
ARM GAS  C:\Users\mgnocco\AppData\Local\Temp\ccNRgxPZ.s 			page 25


 504 0014 35650040 		.word	1073767733
 505              		.cfi_endproc
 506              	.LFE11:
 507              		.size	PWM_MOTORS_3_ReadCompare2, .-PWM_MOTORS_3_ReadCompare2
 508              		.section	.text.PWM_MOTORS_3_ReadPeriod,"ax",%progbits
 509              		.align	2
 510              		.global	PWM_MOTORS_3_ReadPeriod
 511              		.thumb
 512              		.thumb_func
 513              		.type	PWM_MOTORS_3_ReadPeriod, %function
 514              	PWM_MOTORS_3_ReadPeriod:
 515              	.LFB12:
 866:Generated_Source\PSoC5/PWM_MOTORS_3.c **** 
 867:Generated_Source\PSoC5/PWM_MOTORS_3.c **** #endif /* (PWM_MOTORS_3_UseOneCompareMode) */
 868:Generated_Source\PSoC5/PWM_MOTORS_3.c **** 
 869:Generated_Source\PSoC5/PWM_MOTORS_3.c **** 
 870:Generated_Source\PSoC5/PWM_MOTORS_3.c **** /*******************************************************************************
 871:Generated_Source\PSoC5/PWM_MOTORS_3.c **** * Function Name: PWM_MOTORS_3_ReadPeriod
 872:Generated_Source\PSoC5/PWM_MOTORS_3.c **** ********************************************************************************
 873:Generated_Source\PSoC5/PWM_MOTORS_3.c **** *
 874:Generated_Source\PSoC5/PWM_MOTORS_3.c **** * Summary:
 875:Generated_Source\PSoC5/PWM_MOTORS_3.c **** *  Reads the period value used by the PWM hardware.
 876:Generated_Source\PSoC5/PWM_MOTORS_3.c **** *
 877:Generated_Source\PSoC5/PWM_MOTORS_3.c **** * Parameters:
 878:Generated_Source\PSoC5/PWM_MOTORS_3.c **** *  None
 879:Generated_Source\PSoC5/PWM_MOTORS_3.c **** *
 880:Generated_Source\PSoC5/PWM_MOTORS_3.c **** * Return:
 881:Generated_Source\PSoC5/PWM_MOTORS_3.c **** *  uint8/16: Period value
 882:Generated_Source\PSoC5/PWM_MOTORS_3.c **** *
 883:Generated_Source\PSoC5/PWM_MOTORS_3.c **** *******************************************************************************/
 884:Generated_Source\PSoC5/PWM_MOTORS_3.c **** uint8 PWM_MOTORS_3_ReadPeriod(void) 
 885:Generated_Source\PSoC5/PWM_MOTORS_3.c **** {
 516              		.loc 1 885 0
 517              		.cfi_startproc
 518              		@ args = 0, pretend = 0, frame = 0
 519              		@ frame_needed = 1, uses_anonymous_args = 0
 520              		@ link register save eliminated.
 521 0000 80B4     		push	{r7}
 522              		.cfi_def_cfa_offset 4
 523              		.cfi_offset 7, -4
 524 0002 00AF     		add	r7, sp, #0
 525              		.cfi_def_cfa_register 7
 886:Generated_Source\PSoC5/PWM_MOTORS_3.c ****     #if(PWM_MOTORS_3_UsingFixedFunction)
 887:Generated_Source\PSoC5/PWM_MOTORS_3.c ****         return ((uint8)CY_GET_REG16(PWM_MOTORS_3_PERIOD_LSB_PTR));
 888:Generated_Source\PSoC5/PWM_MOTORS_3.c ****     #else
 889:Generated_Source\PSoC5/PWM_MOTORS_3.c ****         return (CY_GET_REG8(PWM_MOTORS_3_PERIOD_LSB_PTR));
 526              		.loc 1 889 0
 527 0004 034B     		ldr	r3, .L40
 528 0006 1B78     		ldrb	r3, [r3]
 529 0008 DBB2     		uxtb	r3, r3
 890:Generated_Source\PSoC5/PWM_MOTORS_3.c ****     #endif /* (PWM_MOTORS_3_UsingFixedFunction) */
 891:Generated_Source\PSoC5/PWM_MOTORS_3.c **** }
 530              		.loc 1 891 0
 531 000a 1846     		mov	r0, r3
 532 000c BD46     		mov	sp, r7
 533              		.cfi_def_cfa_register 13
 534              		@ sp needed
ARM GAS  C:\Users\mgnocco\AppData\Local\Temp\ccNRgxPZ.s 			page 26


 535 000e 80BC     		pop	{r7}
 536              		.cfi_restore 7
 537              		.cfi_def_cfa_offset 0
 538 0010 7047     		bx	lr
 539              	.L41:
 540 0012 00BF     		.align	2
 541              	.L40:
 542 0014 45650040 		.word	1073767749
 543              		.cfi_endproc
 544              	.LFE12:
 545              		.size	PWM_MOTORS_3_ReadPeriod, .-PWM_MOTORS_3_ReadPeriod
 546              		.text
 547              	.Letext0:
 548              		.file 2 "Generated_Source\\PSoC5\\cytypes.h"