ARM GAS  C:\Users\mgnocco\AppData\Local\Temp\ccOXEsk0.s 			page 1


   1              		.syntax unified
   2              		.cpu cortex-m3
   3              		.fpu softvfp
   4              		.eabi_attribute 20, 1
   5              		.eabi_attribute 21, 1
   6              		.eabi_attribute 23, 3
   7              		.eabi_attribute 24, 1
   8              		.eabi_attribute 25, 1
   9              		.eabi_attribute 26, 1
  10              		.eabi_attribute 30, 6
  11              		.eabi_attribute 34, 1
  12              		.eabi_attribute 18, 4
  13              		.thumb
  14              		.syntax unified
  15              		.file	"utils.c"
  16              		.text
  17              	.Ltext0:
  18              		.cfi_sections	.debug_frame
  19              		.global	__aeabi_i2f
  20              		.global	__aeabi_fmul
  21              		.global	__aeabi_fadd
  22              		.global	__aeabi_fdiv
  23              		.global	__aeabi_f2iz
  24              		.section	.text.curr_estim,"ax",%progbits
  25              		.align	2
  26              		.global	curr_estim
  27              		.thumb
  28              		.thumb_func
  29              		.type	curr_estim, %function
  30              	curr_estim:
  31              	.LFB64:
  32              		.file 1 "..\\src\\utils.c"
   1:..\src/utils.c **** // ----------------------------------------------------------------------------
   2:..\src/utils.c **** // BSD 3-Clause License
   3:..\src/utils.c **** 
   4:..\src/utils.c **** // Copyright (c) 2016, qbrobotics
   5:..\src/utils.c **** // Copyright (c) 2017-2020, Centro "E.Piaggio"
   6:..\src/utils.c **** // All rights reserved.
   7:..\src/utils.c **** 
   8:..\src/utils.c **** // Redistribution and use in source and binary forms, with or without
   9:..\src/utils.c **** // modification, are permitted provided that the following conditions are met:
  10:..\src/utils.c **** 
  11:..\src/utils.c **** // * Redistributions of source code must retain the above copyright notice, this
  12:..\src/utils.c **** //   list of conditions and the following disclaimer.
  13:..\src/utils.c **** 
  14:..\src/utils.c **** // * Redistributions in binary form must reproduce the above copyright notice,
  15:..\src/utils.c **** //   this list of conditions and the following disclaimer in the documentation
  16:..\src/utils.c **** //   and/or other materials provided with the distribution.
  17:..\src/utils.c **** 
  18:..\src/utils.c **** // * Neither the name of the copyright holder nor the names of its
  19:..\src/utils.c **** //   contributors may be used to endorse or promote products derived from
  20:..\src/utils.c **** //   this software without specific prior written permission.
  21:..\src/utils.c **** 
  22:..\src/utils.c **** // THIS SOFTWARE IS PROVIDED BY THE COPYRIGHT HOLDERS AND CONTRIBUTORS "AS IS"
  23:..\src/utils.c **** // AND ANY EXPRESS OR IMPLIED WARRANTIES, INCLUDING, BUT NOT LIMITED TO, THE
  24:..\src/utils.c **** // IMPLIED WARRANTIES OF MERCHANTABILITY AND FITNESS FOR A PARTICULAR PURPOSE ARE
  25:..\src/utils.c **** // DISCLAIMED. IN NO EVENT SHALL THE COPYRIGHT HOLDER OR CONTRIBUTORS BE LIABLE
ARM GAS  C:\Users\mgnocco\AppData\Local\Temp\ccOXEsk0.s 			page 2


  26:..\src/utils.c **** // FOR ANY DIRECT, INDIRECT, INCIDENTAL, SPECIAL, EXEMPLARY, OR CONSEQUENTIAL
  27:..\src/utils.c **** // DAMAGES (INCLUDING, BUT NOT LIMITED TO, PROCUREMENT OF SUBSTITUTE GOODS OR
  28:..\src/utils.c **** // SERVICES; LOSS OF USE, DATA, OR PROFITS; OR BUSINESS INTERRUPTION) HOWEVER
  29:..\src/utils.c **** // CAUSED AND ON ANY THEORY OF LIABILITY, WHETHER IN CONTRACT, STRICT LIABILITY,
  30:..\src/utils.c **** // OR TORT (INCLUDING NEGLIGENCE OR OTHERWISE) ARISING IN ANY WAY OUT OF THE USE
  31:..\src/utils.c **** // OF THIS SOFTWARE, EVEN IF ADVISED OF THE POSSIBILITY OF SUCH DAMAGE.
  32:..\src/utils.c **** // POSSIBILITY OF SUCH DAMAGE.
  33:..\src/utils.c **** // ----------------------------------------------------------------------------
  34:..\src/utils.c **** 
  35:..\src/utils.c **** /**
  36:..\src/utils.c **** * \file         utils.c
  37:..\src/utils.c **** *
  38:..\src/utils.c **** * \brief        Definition of utility functions.
  39:..\src/utils.c **** * \date         March 20th, 2020
  40:..\src/utils.c **** * \author       _Centro "E.Piaggio"_
  41:..\src/utils.c **** * \copyright    (C) 2012-2016 qbrobotics. All rights reserved.
  42:..\src/utils.c **** * \copyright    (C) 2017-2020 Centro "E.Piaggio". All rights reserved.
  43:..\src/utils.c **** */
  44:..\src/utils.c **** 
  45:..\src/utils.c **** #include "utils.h"
  46:..\src/utils.c **** 
  47:..\src/utils.c **** //==============================================================================
  48:..\src/utils.c **** //                                                            Current Estimation
  49:..\src/utils.c **** //==============================================================================
  50:..\src/utils.c **** 
  51:..\src/utils.c **** int32 curr_estim ( uint8 idx, int32 pos, int32 vel, int32 ref ) {
  33              		.loc 1 51 0
  34              		.cfi_startproc
  35              		@ args = 0, pretend = 0, frame = 24
  36              		@ frame_needed = 1, uses_anonymous_args = 0
  37 0000 B0B5     		push	{r4, r5, r7, lr}
  38              		.cfi_def_cfa_offset 16
  39              		.cfi_offset 4, -16
  40              		.cfi_offset 5, -12
  41              		.cfi_offset 7, -8
  42              		.cfi_offset 14, -4
  43 0002 86B0     		sub	sp, sp, #24
  44              		.cfi_def_cfa_offset 40
  45 0004 00AF     		add	r7, sp, #0
  46              		.cfi_def_cfa_register 7
  47 0006 B960     		str	r1, [r7, #8]
  48 0008 7A60     		str	r2, [r7, #4]
  49 000a 3B60     		str	r3, [r7]
  50 000c 0346     		mov	r3, r0
  51 000e FB73     		strb	r3, [r7, #15]
  52:..\src/utils.c **** 
  53:..\src/utils.c ****         static int32 virtual_pos_friction[NUM_OF_MOTORS]; 	// Virtual position used to estimate fri
  54:..\src/utils.c ****         static int32 err_pos_dt[NUM_OF_MOTORS];			    // Temporal evolution of error position.
  55:..\src/utils.c **** 											// Needed to model the current transients due to reference steps.
  56:..\src/utils.c ****         int32 curr_estimate;
  57:..\src/utils.c **** 
  58:..\src/utils.c ****         if (pos < ZERO_TOL) 
  52              		.loc 1 58 0
  53 0010 BB68     		ldr	r3, [r7, #8]
  54 0012 632B     		cmp	r3, #99
  55 0014 05DC     		bgt	.L2
  59:..\src/utils.c **** 			virtual_pos_friction[idx] = pos;
ARM GAS  C:\Users\mgnocco\AppData\Local\Temp\ccOXEsk0.s 			page 3


  56              		.loc 1 59 0
  57 0016 FB7B     		ldrb	r3, [r7, #15]	@ zero_extendqisi2
  58 0018 9049     		ldr	r1, .L9
  59 001a BA68     		ldr	r2, [r7, #8]
  60 001c 41F82320 		str	r2, [r1, r3, lsl #2]
  61 0020 1DE0     		b	.L3
  62              	.L2:
  60:..\src/utils.c ****         else {
  61:..\src/utils.c **** 			if ((pos - virtual_pos_friction[idx]) > ZMAX) 
  63              		.loc 1 61 0
  64 0022 FB7B     		ldrb	r3, [r7, #15]	@ zero_extendqisi2
  65 0024 8D4A     		ldr	r2, .L9
  66 0026 52F82330 		ldr	r3, [r2, r3, lsl #2]
  67 002a BA68     		ldr	r2, [r7, #8]
  68 002c D31A     		subs	r3, r2, r3
  69 002e 052B     		cmp	r3, #5
  70 0030 06DD     		ble	.L4
  62:..\src/utils.c **** 				virtual_pos_friction[idx] =  pos - ZMAX;
  71              		.loc 1 62 0
  72 0032 FB7B     		ldrb	r3, [r7, #15]	@ zero_extendqisi2
  73 0034 BA68     		ldr	r2, [r7, #8]
  74 0036 053A     		subs	r2, r2, #5
  75 0038 8849     		ldr	r1, .L9
  76 003a 41F82320 		str	r2, [r1, r3, lsl #2]
  77 003e 0EE0     		b	.L3
  78              	.L4:
  63:..\src/utils.c ****         	else { 
  64:..\src/utils.c **** 				if ((pos - virtual_pos_friction[idx]) < -ZMAX) 
  79              		.loc 1 64 0
  80 0040 FB7B     		ldrb	r3, [r7, #15]	@ zero_extendqisi2
  81 0042 864A     		ldr	r2, .L9
  82 0044 52F82330 		ldr	r3, [r2, r3, lsl #2]
  83 0048 BA68     		ldr	r2, [r7, #8]
  84 004a D31A     		subs	r3, r2, r3
  85 004c 13F1050F 		cmn	r3, #5
  86 0050 05DA     		bge	.L3
  65:..\src/utils.c **** 					virtual_pos_friction[idx] =  pos + ZMAX;
  87              		.loc 1 65 0
  88 0052 FB7B     		ldrb	r3, [r7, #15]	@ zero_extendqisi2
  89 0054 BA68     		ldr	r2, [r7, #8]
  90 0056 0532     		adds	r2, r2, #5
  91 0058 8049     		ldr	r1, .L9
  92 005a 41F82320 		str	r2, [r1, r3, lsl #2]
  93              	.L3:
  66:..\src/utils.c **** 			}
  67:..\src/utils.c **** 		}        
  68:..\src/utils.c ****        
  69:..\src/utils.c ****         curr_estimate = pos * g_mem.motor[idx].curr_lookup[0] * (1 + pos * g_mem.motor[idx].curr_lo
  94              		.loc 1 69 0
  95 005e B868     		ldr	r0, [r7, #8]
  96 0060 FFF7FEFF 		bl	__aeabi_i2f
  97 0064 FA7B     		ldrb	r2, [r7, #15]	@ zero_extendqisi2
  98 0066 7E49     		ldr	r1, .L9+4
  99 0068 1346     		mov	r3, r2
 100 006a DB00     		lsls	r3, r3, #3
 101 006c 9B1A     		subs	r3, r3, r2
 102 006e 1B01     		lsls	r3, r3, #4
ARM GAS  C:\Users\mgnocco\AppData\Local\Temp\ccOXEsk0.s 			page 4


 103 0070 0B44     		add	r3, r3, r1
 104 0072 F433     		adds	r3, r3, #244
 105 0074 1B68     		ldr	r3, [r3]	@ float
 106 0076 1946     		mov	r1, r3
 107 0078 FFF7FEFF 		bl	__aeabi_fmul
 108 007c 0346     		mov	r3, r0
 109 007e 1C46     		mov	r4, r3
 110 0080 B868     		ldr	r0, [r7, #8]
 111 0082 FFF7FEFF 		bl	__aeabi_i2f
 112 0086 FA7B     		ldrb	r2, [r7, #15]	@ zero_extendqisi2
 113 0088 7549     		ldr	r1, .L9+4
 114 008a 1346     		mov	r3, r2
 115 008c DB00     		lsls	r3, r3, #3
 116 008e 9B1A     		subs	r3, r3, r2
 117 0090 1B01     		lsls	r3, r3, #4
 118 0092 0B44     		add	r3, r3, r1
 119 0094 F833     		adds	r3, r3, #248
 120 0096 1B68     		ldr	r3, [r3]	@ float
 121 0098 1946     		mov	r1, r3
 122 009a FFF7FEFF 		bl	__aeabi_fmul
 123 009e 0346     		mov	r3, r0
 124 00a0 4FF07E51 		mov	r1, #1065353216
 125 00a4 1846     		mov	r0, r3
 126 00a6 FFF7FEFF 		bl	__aeabi_fadd
 127 00aa 0346     		mov	r3, r0
 128 00ac 1946     		mov	r1, r3
 129 00ae 2046     		mov	r0, r4
 130 00b0 FFF7FEFF 		bl	__aeabi_fmul
 131 00b4 0346     		mov	r3, r0
 132 00b6 1C46     		mov	r4, r3
 133 00b8 FB7B     		ldrb	r3, [r7, #15]	@ zero_extendqisi2
 134 00ba 684A     		ldr	r2, .L9
 135 00bc 52F82330 		ldr	r3, [r2, r3, lsl #2]
 136 00c0 BA68     		ldr	r2, [r7, #8]
 137 00c2 D31A     		subs	r3, r2, r3
 138 00c4 1846     		mov	r0, r3
 139 00c6 FFF7FEFF 		bl	__aeabi_i2f
 140 00ca 0546     		mov	r5, r0
 141 00cc FA7B     		ldrb	r2, [r7, #15]	@ zero_extendqisi2
 142 00ce 6449     		ldr	r1, .L9+4
 143 00d0 1346     		mov	r3, r2
 144 00d2 DB00     		lsls	r3, r3, #3
 145 00d4 9B1A     		subs	r3, r3, r2
 146 00d6 1B01     		lsls	r3, r3, #4
 147 00d8 0B44     		add	r3, r3, r1
 148 00da FC33     		adds	r3, r3, #252
 149 00dc 1B68     		ldr	r3, [r3]	@ float
 150 00de 6149     		ldr	r1, .L9+8
 151 00e0 1846     		mov	r0, r3
 152 00e2 FFF7FEFF 		bl	__aeabi_fdiv
 153 00e6 0346     		mov	r3, r0
 154 00e8 1946     		mov	r1, r3
 155 00ea 2846     		mov	r0, r5
 156 00ec FFF7FEFF 		bl	__aeabi_fmul
 157 00f0 0346     		mov	r3, r0
 158 00f2 1946     		mov	r1, r3
 159 00f4 2046     		mov	r0, r4
ARM GAS  C:\Users\mgnocco\AppData\Local\Temp\ccOXEsk0.s 			page 5


 160 00f6 FFF7FEFF 		bl	__aeabi_fadd
 161 00fa 0346     		mov	r3, r0
 162 00fc 1C46     		mov	r4, r3
 163 00fe 7868     		ldr	r0, [r7, #4]
 164 0100 FFF7FEFF 		bl	__aeabi_i2f
 165 0104 FA7B     		ldrb	r2, [r7, #15]	@ zero_extendqisi2
 166 0106 5649     		ldr	r1, .L9+4
 167 0108 1346     		mov	r3, r2
 168 010a DB00     		lsls	r3, r3, #3
 169 010c 9B1A     		subs	r3, r3, r2
 170 010e 1B01     		lsls	r3, r3, #4
 171 0110 0B44     		add	r3, r3, r1
 172 0112 03F58073 		add	r3, r3, #256
 173 0116 1B68     		ldr	r3, [r3]	@ float
 174 0118 1946     		mov	r1, r3
 175 011a FFF7FEFF 		bl	__aeabi_fmul
 176 011e 0346     		mov	r3, r0
 177 0120 1D46     		mov	r5, r3
 178 0122 7B68     		ldr	r3, [r7, #4]
 179 0124 002B     		cmp	r3, #0
 180 0126 B8BF     		it	lt
 181 0128 5B42     		rsblt	r3, r3, #0
 182 012a 1846     		mov	r0, r3
 183 012c FFF7FEFF 		bl	__aeabi_i2f
 184 0130 FA7B     		ldrb	r2, [r7, #15]	@ zero_extendqisi2
 185 0132 4B49     		ldr	r1, .L9+4
 186 0134 1346     		mov	r3, r2
 187 0136 DB00     		lsls	r3, r3, #3
 188 0138 9B1A     		subs	r3, r3, r2
 189 013a 1B01     		lsls	r3, r3, #4
 190 013c 0B44     		add	r3, r3, r1
 191 013e 03F58273 		add	r3, r3, #260
 192 0142 1B68     		ldr	r3, [r3]	@ float
 193 0144 1946     		mov	r1, r3
 194 0146 FFF7FEFF 		bl	__aeabi_fmul
 195 014a 0346     		mov	r3, r0
 196 014c 4FF07E51 		mov	r1, #1065353216
 197 0150 1846     		mov	r0, r3
 198 0152 FFF7FEFF 		bl	__aeabi_fadd
 199 0156 0346     		mov	r3, r0
 200 0158 1946     		mov	r1, r3
 201 015a 2846     		mov	r0, r5
 202 015c FFF7FEFF 		bl	__aeabi_fmul
 203 0160 0346     		mov	r3, r0
 204 0162 1946     		mov	r1, r3
 205 0164 2046     		mov	r0, r4
 206 0166 FFF7FEFF 		bl	__aeabi_fadd
 207 016a 0346     		mov	r3, r0
 208 016c 1C46     		mov	r4, r3
 209 016e FB7B     		ldrb	r3, [r7, #15]	@ zero_extendqisi2
 210 0170 3D4A     		ldr	r2, .L9+12
 211 0172 52F82330 		ldr	r3, [r2, r3, lsl #2]
 212 0176 3A68     		ldr	r2, [r7]
 213 0178 D31A     		subs	r3, r2, r3
 214 017a 1846     		mov	r0, r3
 215 017c FFF7FEFF 		bl	__aeabi_i2f
 216 0180 FA7B     		ldrb	r2, [r7, #15]	@ zero_extendqisi2
ARM GAS  C:\Users\mgnocco\AppData\Local\Temp\ccOXEsk0.s 			page 6


 217 0182 3749     		ldr	r1, .L9+4
 218 0184 1346     		mov	r3, r2
 219 0186 DB00     		lsls	r3, r3, #3
 220 0188 9B1A     		subs	r3, r3, r2
 221 018a 1B01     		lsls	r3, r3, #4
 222 018c 0B44     		add	r3, r3, r1
 223 018e 03F58473 		add	r3, r3, #264
 224 0192 1B68     		ldr	r3, [r3]	@ float
 225 0194 1946     		mov	r1, r3
 226 0196 FFF7FEFF 		bl	__aeabi_fmul
 227 019a 0346     		mov	r3, r0
 228 019c 1946     		mov	r1, r3
 229 019e 2046     		mov	r0, r4
 230 01a0 FFF7FEFF 		bl	__aeabi_fadd
 231 01a4 0346     		mov	r3, r0
 232 01a6 1846     		mov	r0, r3
 233 01a8 FFF7FEFF 		bl	__aeabi_f2iz
 234 01ac 0346     		mov	r3, r0
 235 01ae 7B61     		str	r3, [r7, #20]
  70:..\src/utils.c ****         
  71:..\src/utils.c ****         if (curr_estimate > c_mem.motor[idx].current_limit) 
 236              		.loc 1 71 0
 237 01b0 FA7B     		ldrb	r2, [r7, #15]	@ zero_extendqisi2
 238 01b2 2E49     		ldr	r1, .L9+16
 239 01b4 1346     		mov	r3, r2
 240 01b6 DB00     		lsls	r3, r3, #3
 241 01b8 9B1A     		subs	r3, r3, r2
 242 01ba 1B01     		lsls	r3, r3, #4
 243 01bc 0B44     		add	r3, r3, r1
 244 01be 03F58673 		add	r3, r3, #268
 245 01c2 B3F90030 		ldrsh	r3, [r3]
 246 01c6 1A46     		mov	r2, r3
 247 01c8 7B69     		ldr	r3, [r7, #20]
 248 01ca 9A42     		cmp	r2, r3
 249 01cc 0CDA     		bge	.L5
  72:..\src/utils.c ****             curr_estimate = c_mem.motor[idx].current_limit;
 250              		.loc 1 72 0
 251 01ce FA7B     		ldrb	r2, [r7, #15]	@ zero_extendqisi2
 252 01d0 2649     		ldr	r1, .L9+16
 253 01d2 1346     		mov	r3, r2
 254 01d4 DB00     		lsls	r3, r3, #3
 255 01d6 9B1A     		subs	r3, r3, r2
 256 01d8 1B01     		lsls	r3, r3, #4
 257 01da 0B44     		add	r3, r3, r1
 258 01dc 03F58673 		add	r3, r3, #268
 259 01e0 B3F90030 		ldrsh	r3, [r3]
 260 01e4 7B61     		str	r3, [r7, #20]
 261 01e6 1BE0     		b	.L6
 262              	.L5:
  73:..\src/utils.c ****         else {
  74:..\src/utils.c **** 			if (curr_estimate < -c_mem.motor[idx].current_limit)
 263              		.loc 1 74 0
 264 01e8 FA7B     		ldrb	r2, [r7, #15]	@ zero_extendqisi2
 265 01ea 2049     		ldr	r1, .L9+16
 266 01ec 1346     		mov	r3, r2
 267 01ee DB00     		lsls	r3, r3, #3
 268 01f0 9B1A     		subs	r3, r3, r2
ARM GAS  C:\Users\mgnocco\AppData\Local\Temp\ccOXEsk0.s 			page 7


 269 01f2 1B01     		lsls	r3, r3, #4
 270 01f4 0B44     		add	r3, r3, r1
 271 01f6 03F58673 		add	r3, r3, #268
 272 01fa B3F90030 		ldrsh	r3, [r3]
 273 01fe 5A42     		negs	r2, r3
 274 0200 7B69     		ldr	r3, [r7, #20]
 275 0202 9A42     		cmp	r2, r3
 276 0204 0CDD     		ble	.L6
  75:..\src/utils.c ****             	curr_estimate = -c_mem.motor[idx].current_limit;
 277              		.loc 1 75 0
 278 0206 FA7B     		ldrb	r2, [r7, #15]	@ zero_extendqisi2
 279 0208 1849     		ldr	r1, .L9+16
 280 020a 1346     		mov	r3, r2
 281 020c DB00     		lsls	r3, r3, #3
 282 020e 9B1A     		subs	r3, r3, r2
 283 0210 1B01     		lsls	r3, r3, #4
 284 0212 0B44     		add	r3, r3, r1
 285 0214 03F58673 		add	r3, r3, #268
 286 0218 B3F90030 		ldrsh	r3, [r3]
 287 021c 5B42     		negs	r3, r3
 288 021e 7B61     		str	r3, [r7, #20]
 289              	.L6:
  76:..\src/utils.c **** 		}
  77:..\src/utils.c **** 
  78:..\src/utils.c ****         err_pos_dt[idx] = (REFSPEED * ref + (1024 - REFSPEED) * err_pos_dt[idx]) / 1024;         
 290              		.loc 1 78 0
 291 0220 F97B     		ldrb	r1, [r7, #15]	@ zero_extendqisi2
 292 0222 3A68     		ldr	r2, [r7]
 293 0224 1346     		mov	r3, r2
 294 0226 9B00     		lsls	r3, r3, #2
 295 0228 1344     		add	r3, r3, r2
 296 022a 9B00     		lsls	r3, r3, #2
 297 022c 1846     		mov	r0, r3
 298 022e FB7B     		ldrb	r3, [r7, #15]	@ zero_extendqisi2
 299 0230 0D4A     		ldr	r2, .L9+12
 300 0232 52F82330 		ldr	r3, [r2, r3, lsl #2]
 301 0236 4FF47B72 		mov	r2, #1004
 302 023a 02FB03F3 		mul	r3, r2, r3
 303 023e 0344     		add	r3, r3, r0
 304 0240 002B     		cmp	r3, #0
 305 0242 01DA     		bge	.L7
 306 0244 03F2FF33 		addw	r3, r3, #1023
 307              	.L7:
 308 0248 9B12     		asrs	r3, r3, #10
 309 024a 1A46     		mov	r2, r3
 310 024c 064B     		ldr	r3, .L9+12
 311 024e 43F82120 		str	r2, [r3, r1, lsl #2]
  79:..\src/utils.c ****         
  80:..\src/utils.c ****         return curr_estimate; 
 312              		.loc 1 80 0
 313 0252 7B69     		ldr	r3, [r7, #20]
  81:..\src/utils.c ****     
  82:..\src/utils.c **** }
 314              		.loc 1 82 0
 315 0254 1846     		mov	r0, r3
 316 0256 1837     		adds	r7, r7, #24
 317              		.cfi_def_cfa_offset 16
ARM GAS  C:\Users\mgnocco\AppData\Local\Temp\ccOXEsk0.s 			page 8


 318 0258 BD46     		mov	sp, r7
 319              		.cfi_def_cfa_register 13
 320              		@ sp needed
 321 025a B0BD     		pop	{r4, r5, r7, pc}
 322              	.L10:
 323              		.align	2
 324              	.L9:
 325 025c 00000000 		.word	virtual_pos_friction.9546
 326 0260 00000000 		.word	g_mem
 327 0264 0000A040 		.word	1084227584
 328 0268 08000000 		.word	err_pos_dt.9547
 329 026c 00000000 		.word	c_mem
 330              		.cfi_endproc
 331              	.LFE64:
 332              		.size	curr_estim, .-curr_estim
 333              		.section	.text.filter,"ax",%progbits
 334              		.align	2
 335              		.global	filter
 336              		.thumb
 337              		.thumb_func
 338              		.type	filter, %function
 339              	filter:
 340              	.LFB65:
  83:..\src/utils.c **** 
  84:..\src/utils.c **** //==============================================================================
  85:..\src/utils.c **** //                                                                General filter
  86:..\src/utils.c **** //==============================================================================
  87:..\src/utils.c **** int32 filter(int32 new_value, struct st_filter *f) {
 341              		.loc 1 87 0
 342              		.cfi_startproc
 343              		@ args = 0, pretend = 0, frame = 16
 344              		@ frame_needed = 1, uses_anonymous_args = 0
 345              		@ link register save eliminated.
 346 0000 80B4     		push	{r7}
 347              		.cfi_def_cfa_offset 4
 348              		.cfi_offset 7, -4
 349 0002 85B0     		sub	sp, sp, #20
 350              		.cfi_def_cfa_offset 24
 351 0004 00AF     		add	r7, sp, #0
 352              		.cfi_def_cfa_register 7
 353 0006 7860     		str	r0, [r7, #4]
 354 0008 3960     		str	r1, [r7]
  88:..\src/utils.c **** 
  89:..\src/utils.c ****     int32 aux;
  90:..\src/utils.c **** 
  91:..\src/utils.c ****     aux = (f->old_value * (1024 - f->gain) + (new_value << 6) * (f->gain)) /1024;
 355              		.loc 1 91 0
 356 000a 3B68     		ldr	r3, [r7]
 357 000c 1B68     		ldr	r3, [r3]
 358 000e 3A68     		ldr	r2, [r7]
 359 0010 5268     		ldr	r2, [r2, #4]
 360 0012 C2F58062 		rsb	r2, r2, #1024
 361 0016 02FB03F2 		mul	r2, r2, r3
 362 001a 7B68     		ldr	r3, [r7, #4]
 363 001c 9B01     		lsls	r3, r3, #6
 364 001e 3968     		ldr	r1, [r7]
 365 0020 4968     		ldr	r1, [r1, #4]
ARM GAS  C:\Users\mgnocco\AppData\Local\Temp\ccOXEsk0.s 			page 9


 366 0022 01FB03F3 		mul	r3, r1, r3
 367 0026 1344     		add	r3, r3, r2
 368 0028 002B     		cmp	r3, #0
 369 002a 01DA     		bge	.L12
 370 002c 03F2FF33 		addw	r3, r3, #1023
 371              	.L12:
 372 0030 9B12     		asrs	r3, r3, #10
 373 0032 FB60     		str	r3, [r7, #12]
  92:..\src/utils.c **** 
  93:..\src/utils.c ****     f->old_value = aux;
 374              		.loc 1 93 0
 375 0034 3B68     		ldr	r3, [r7]
 376 0036 FA68     		ldr	r2, [r7, #12]
 377 0038 1A60     		str	r2, [r3]
  94:..\src/utils.c **** 
  95:..\src/utils.c ****     return (aux / 64);
 378              		.loc 1 95 0
 379 003a FB68     		ldr	r3, [r7, #12]
 380 003c 002B     		cmp	r3, #0
 381 003e 00DA     		bge	.L13
 382 0040 3F33     		adds	r3, r3, #63
 383              	.L13:
 384 0042 9B11     		asrs	r3, r3, #6
  96:..\src/utils.c **** }
 385              		.loc 1 96 0
 386 0044 1846     		mov	r0, r3
 387 0046 1437     		adds	r7, r7, #20
 388              		.cfi_def_cfa_offset 4
 389 0048 BD46     		mov	sp, r7
 390              		.cfi_def_cfa_register 13
 391              		@ sp needed
 392 004a 80BC     		pop	{r7}
 393              		.cfi_restore 7
 394              		.cfi_def_cfa_offset 0
 395 004c 7047     		bx	lr
 396              		.cfi_endproc
 397              	.LFE65:
 398              		.size	filter, .-filter
 399 004e 00BF     		.section	.text.my_mod,"ax",%progbits
 400              		.align	2
 401              		.global	my_mod
 402              		.thumb
 403              		.thumb_func
 404              		.type	my_mod, %function
 405              	my_mod:
 406              	.LFB66:
  97:..\src/utils.c **** 
  98:..\src/utils.c **** //==============================================================================
  99:..\src/utils.c **** //                                                                        MODULE
 100:..\src/utils.c **** //==============================================================================
 101:..\src/utils.c **** 
 102:..\src/utils.c **** uint32 my_mod(int32 val, int32 divisor) {
 407              		.loc 1 102 0
 408              		.cfi_startproc
 409              		@ args = 0, pretend = 0, frame = 8
 410              		@ frame_needed = 1, uses_anonymous_args = 0
 411              		@ link register save eliminated.
ARM GAS  C:\Users\mgnocco\AppData\Local\Temp\ccOXEsk0.s 			page 10


 412 0000 80B4     		push	{r7}
 413              		.cfi_def_cfa_offset 4
 414              		.cfi_offset 7, -4
 415 0002 83B0     		sub	sp, sp, #12
 416              		.cfi_def_cfa_offset 16
 417 0004 00AF     		add	r7, sp, #0
 418              		.cfi_def_cfa_register 7
 419 0006 7860     		str	r0, [r7, #4]
 420 0008 3960     		str	r1, [r7]
 103:..\src/utils.c **** 
 104:..\src/utils.c ****     if (val >= 0) {
 421              		.loc 1 104 0
 422 000a 7B68     		ldr	r3, [r7, #4]
 423 000c 002B     		cmp	r3, #0
 424 000e 08DB     		blt	.L16
 105:..\src/utils.c ****         return (int32)(val % divisor);
 425              		.loc 1 105 0
 426 0010 7B68     		ldr	r3, [r7, #4]
 427 0012 3A68     		ldr	r2, [r7]
 428 0014 93FBF2F2 		sdiv	r2, r3, r2
 429 0018 3968     		ldr	r1, [r7]
 430 001a 01FB02F2 		mul	r2, r1, r2
 431 001e 9B1A     		subs	r3, r3, r2
 432 0020 11E0     		b	.L17
 433              	.L16:
 106:..\src/utils.c ****     } else {
 107:..\src/utils.c ****         return (int32)((divisor - (-val % divisor)) % divisor);
 434              		.loc 1 107 0
 435 0022 7B68     		ldr	r3, [r7, #4]
 436 0024 5B42     		negs	r3, r3
 437 0026 3A68     		ldr	r2, [r7]
 438 0028 93FBF2F2 		sdiv	r2, r3, r2
 439 002c 3968     		ldr	r1, [r7]
 440 002e 01FB02F2 		mul	r2, r1, r2
 441 0032 9B1A     		subs	r3, r3, r2
 442 0034 3A68     		ldr	r2, [r7]
 443 0036 D31A     		subs	r3, r2, r3
 444 0038 3A68     		ldr	r2, [r7]
 445 003a 93FBF2F2 		sdiv	r2, r3, r2
 446 003e 3968     		ldr	r1, [r7]
 447 0040 01FB02F2 		mul	r2, r1, r2
 448 0044 9B1A     		subs	r3, r3, r2
 449              	.L17:
 108:..\src/utils.c ****     }
 109:..\src/utils.c **** }
 450              		.loc 1 109 0
 451 0046 1846     		mov	r0, r3
 452 0048 0C37     		adds	r7, r7, #12
 453              		.cfi_def_cfa_offset 4
 454 004a BD46     		mov	sp, r7
 455              		.cfi_def_cfa_register 13
 456              		@ sp needed
 457 004c 80BC     		pop	{r7}
 458              		.cfi_restore 7
 459              		.cfi_def_cfa_offset 0
 460 004e 7047     		bx	lr
 461              		.cfi_endproc
ARM GAS  C:\Users\mgnocco\AppData\Local\Temp\ccOXEsk0.s 			page 11


 462              	.LFE66:
 463              		.size	my_mod, .-my_mod
 464              		.section	.text.calibration,"ax",%progbits
 465              		.align	2
 466              		.global	calibration
 467              		.thumb
 468              		.thumb_func
 469              		.type	calibration, %function
 470              	calibration:
 471              	.LFB67:
 110:..\src/utils.c **** 
 111:..\src/utils.c **** 
 112:..\src/utils.c **** //==============================================================================
 113:..\src/utils.c **** //                                                                     CALIBRATE
 114:..\src/utils.c **** //==============================================================================
 115:..\src/utils.c **** 
 116:..\src/utils.c **** void calibration(void) {
 472              		.loc 1 116 0
 473              		.cfi_startproc
 474              		@ args = 0, pretend = 0, frame = 0
 475              		@ frame_needed = 1, uses_anonymous_args = 0
 476              		@ link register save eliminated.
 477 0000 90B4     		push	{r4, r7}
 478              		.cfi_def_cfa_offset 8
 479              		.cfi_offset 4, -8
 480              		.cfi_offset 7, -4
 481 0002 00AF     		add	r7, sp, #0
 482              		.cfi_def_cfa_register 7
 117:..\src/utils.c ****     static uint8 direction;                 //0 closing, 1 opening.
 118:..\src/utils.c ****     static uint16 closure_counter = 0;          //Range [0 - 2^16].
 119:..\src/utils.c ****     //static CYBIT count_one = 1;             //Used to count only one cycle, when inputs are gener
 120:..\src/utils.c ****                                             //and pass the threshold, having the condition verified
 121:..\src/utils.c **** 
 122:..\src/utils.c ****     // closing
 123:..\src/utils.c ****     if (direction == 0) {
 483              		.loc 1 123 0
 484 0004 2E4B     		ldr	r3, .L23
 485 0006 1B78     		ldrb	r3, [r3]	@ zero_extendqisi2
 486 0008 002B     		cmp	r3, #0
 487 000a 22D1     		bne	.L19
 124:..\src/utils.c ****         g_refNew[0].pos += (calib.speed << g_mem.enc[g_mem.motor[0].encoder_line].res[0]);
 488              		.loc 1 124 0
 489 000c 2D4B     		ldr	r3, .L23+4
 490 000e 1A68     		ldr	r2, [r3]
 491 0010 2D4B     		ldr	r3, .L23+8
 492 0012 B3F90230 		ldrsh	r3, [r3, #2]
 493 0016 1C46     		mov	r4, r3
 494 0018 2C4B     		ldr	r3, .L23+12
 495 001a 93F81031 		ldrb	r3, [r3, #272]	@ zero_extendqisi2
 496 001e 1846     		mov	r0, r3
 497 0020 2A49     		ldr	r1, .L23+12
 498 0022 0346     		mov	r3, r0
 499 0024 5B00     		lsls	r3, r3, #1
 500 0026 0344     		add	r3, r3, r0
 501 0028 1B01     		lsls	r3, r3, #4
 502 002a 0B44     		add	r3, r3, r1
 503 002c 03F29513 		addw	r3, r3, #405
ARM GAS  C:\Users\mgnocco\AppData\Local\Temp\ccOXEsk0.s 			page 12


 504 0030 1B78     		ldrb	r3, [r3]	@ zero_extendqisi2
 505 0032 04FA03F3 		lsl	r3, r4, r3
 506 0036 1344     		add	r3, r3, r2
 507 0038 224A     		ldr	r2, .L23+4
 508 003a 1360     		str	r3, [r2]
 125:..\src/utils.c ****         
 126:..\src/utils.c ****         if ((g_refNew[0].pos) > g_mem.motor[0].pos_lim_sup) {
 509              		.loc 1 126 0
 510 003c 214B     		ldr	r3, .L23+4
 511 003e 1A68     		ldr	r2, [r3]
 512 0040 224B     		ldr	r3, .L23+12
 513 0042 D3F8E830 		ldr	r3, [r3, #232]
 514 0046 9A42     		cmp	r2, r3
 515 0048 36DD     		ble	.L22
 127:..\src/utils.c ****             direction = 1;
 516              		.loc 1 127 0
 517 004a 1D4B     		ldr	r3, .L23
 518 004c 0122     		movs	r2, #1
 519 004e 1A70     		strb	r2, [r3]
 128:..\src/utils.c ****         }
 129:..\src/utils.c ****     } else { //opening
 130:..\src/utils.c ****         g_refNew[0].pos -= (calib.speed << g_mem.enc[g_mem.motor[0].encoder_line].res[0]);
 131:..\src/utils.c ****         if (SIGN(g_refNew[0].pos) != 1) {
 132:..\src/utils.c ****             direction = 0;
 133:..\src/utils.c ****             closure_counter++;
 134:..\src/utils.c **** //            count_one = 1;          // Enables back the cycles counter
 135:..\src/utils.c ****             if (closure_counter == calib.repetitions) {
 136:..\src/utils.c ****                 closure_counter = 0;
 137:..\src/utils.c ****                 calib.enabled = FALSE;
 138:..\src/utils.c ****             }
 139:..\src/utils.c ****         }
 140:..\src/utils.c ****     }
 141:..\src/utils.c **** }
 520              		.loc 1 141 0
 521 0050 32E0     		b	.L22
 522              	.L19:
 130:..\src/utils.c ****         if (SIGN(g_refNew[0].pos) != 1) {
 523              		.loc 1 130 0
 524 0052 1C4B     		ldr	r3, .L23+4
 525 0054 1A68     		ldr	r2, [r3]
 526 0056 1C4B     		ldr	r3, .L23+8
 527 0058 B3F90230 		ldrsh	r3, [r3, #2]
 528 005c 1C46     		mov	r4, r3
 529 005e 1B4B     		ldr	r3, .L23+12
 530 0060 93F81031 		ldrb	r3, [r3, #272]	@ zero_extendqisi2
 531 0064 1846     		mov	r0, r3
 532 0066 1949     		ldr	r1, .L23+12
 533 0068 0346     		mov	r3, r0
 534 006a 5B00     		lsls	r3, r3, #1
 535 006c 0344     		add	r3, r3, r0
 536 006e 1B01     		lsls	r3, r3, #4
 537 0070 0B44     		add	r3, r3, r1
 538 0072 03F29513 		addw	r3, r3, #405
 539 0076 1B78     		ldrb	r3, [r3]	@ zero_extendqisi2
 540 0078 04FA03F3 		lsl	r3, r4, r3
 541 007c D31A     		subs	r3, r2, r3
 542 007e 114A     		ldr	r2, .L23+4
ARM GAS  C:\Users\mgnocco\AppData\Local\Temp\ccOXEsk0.s 			page 13


 543 0080 1360     		str	r3, [r2]
 131:..\src/utils.c ****             direction = 0;
 544              		.loc 1 131 0
 545 0082 104B     		ldr	r3, .L23+4
 546 0084 1B68     		ldr	r3, [r3]
 547 0086 002B     		cmp	r3, #0
 548 0088 16DA     		bge	.L22
 132:..\src/utils.c ****             closure_counter++;
 549              		.loc 1 132 0
 550 008a 0D4B     		ldr	r3, .L23
 551 008c 0022     		movs	r2, #0
 552 008e 1A70     		strb	r2, [r3]
 133:..\src/utils.c **** //            count_one = 1;          // Enables back the cycles counter
 553              		.loc 1 133 0
 554 0090 0F4B     		ldr	r3, .L23+16
 555 0092 1B88     		ldrh	r3, [r3]
 556 0094 0133     		adds	r3, r3, #1
 557 0096 9AB2     		uxth	r2, r3
 558 0098 0D4B     		ldr	r3, .L23+16
 559 009a 1A80     		strh	r2, [r3]	@ movhi
 135:..\src/utils.c ****                 closure_counter = 0;
 560              		.loc 1 135 0
 561 009c 0C4B     		ldr	r3, .L23+16
 562 009e 1B88     		ldrh	r3, [r3]
 563 00a0 1A46     		mov	r2, r3
 564 00a2 094B     		ldr	r3, .L23+8
 565 00a4 B3F90430 		ldrsh	r3, [r3, #4]
 566 00a8 9A42     		cmp	r2, r3
 567 00aa 05D1     		bne	.L22
 136:..\src/utils.c ****                 calib.enabled = FALSE;
 568              		.loc 1 136 0
 569 00ac 084B     		ldr	r3, .L23+16
 570 00ae 0022     		movs	r2, #0
 571 00b0 1A80     		strh	r2, [r3]	@ movhi
 137:..\src/utils.c ****             }
 572              		.loc 1 137 0
 573 00b2 054B     		ldr	r3, .L23+8
 574 00b4 0022     		movs	r2, #0
 575 00b6 1A70     		strb	r2, [r3]
 576              	.L22:
 577              		.loc 1 141 0
 578 00b8 00BF     		nop
 579 00ba BD46     		mov	sp, r7
 580              		.cfi_def_cfa_register 13
 581              		@ sp needed
 582 00bc 90BC     		pop	{r4, r7}
 583              		.cfi_restore 7
 584              		.cfi_restore 4
 585              		.cfi_def_cfa_offset 0
 586 00be 7047     		bx	lr
 587              	.L24:
 588              		.align	2
 589              	.L23:
 590 00c0 10000000 		.word	direction.9561
 591 00c4 00000000 		.word	g_refNew
 592 00c8 00000000 		.word	calib
 593 00cc 00000000 		.word	g_mem
ARM GAS  C:\Users\mgnocco\AppData\Local\Temp\ccOXEsk0.s 			page 14


 594 00d0 12000000 		.word	closure_counter.9562
 595              		.cfi_endproc
 596              	.LFE67:
 597              		.size	calibration, .-calibration
 598              		.section	.text.calc_turns_fcn_SH,"ax",%progbits
 599              		.align	2
 600              		.global	calc_turns_fcn_SH
 601              		.thumb
 602              		.thumb_func
 603              		.type	calc_turns_fcn_SH, %function
 604              	calc_turns_fcn_SH:
 605              	.LFB68:
 142:..\src/utils.c **** 
 143:..\src/utils.c **** 
 144:..\src/utils.c **** //==============================================================================
 145:..\src/utils.c **** //                                                      DOUBLE ENCODER CALC TURN
 146:..\src/utils.c **** //==============================================================================
 147:..\src/utils.c **** 
 148:..\src/utils.c **** // Use this matlab function to calculate I1 and I2
 149:..\src/utils.c **** //
 150:..\src/utils.c **** // function [inv_a, inv_b] = mod_mul_inv(a, b)
 151:..\src/utils.c **** //     a = int32(a);
 152:..\src/utils.c **** //     b = int32(b);
 153:..\src/utils.c **** //     if b == 0
 154:..\src/utils.c **** //         inv_a = 1;
 155:..\src/utils.c **** //         inv_b = 0;
 156:..\src/utils.c **** //         return
 157:..\src/utils.c **** //     else
 158:..\src/utils.c **** //         q = idivide(a,b,'floor');
 159:..\src/utils.c **** //         r = mod(a,b);
 160:..\src/utils.c **** //         [s, t] = mod_mul_inv(b, r);
 161:..\src/utils.c **** //     end
 162:..\src/utils.c **** //     inv_a = t;
 163:..\src/utils.c **** //     inv_b = s - q * t;
 164:..\src/utils.c **** // return
 165:..\src/utils.c **** 
 166:..\src/utils.c **** // Number of ticks per turn
 167:..\src/utils.c **** #define M 65536          ///< Number of encoder ticks per turn.
 168:..\src/utils.c **** 
 169:..\src/utils.c **** int calc_turns_fcn_SH(const int32 pos1, const int32 pos2, const int N1, const int N2, const int I1)
 606              		.loc 1 169 0
 607              		.cfi_startproc
 608              		@ args = 4, pretend = 0, frame = 24
 609              		@ frame_needed = 1, uses_anonymous_args = 0
 610 0000 80B5     		push	{r7, lr}
 611              		.cfi_def_cfa_offset 8
 612              		.cfi_offset 7, -8
 613              		.cfi_offset 14, -4
 614 0002 86B0     		sub	sp, sp, #24
 615              		.cfi_def_cfa_offset 32
 616 0004 00AF     		add	r7, sp, #0
 617              		.cfi_def_cfa_register 7
 618 0006 F860     		str	r0, [r7, #12]
 619 0008 B960     		str	r1, [r7, #8]
 620 000a 7A60     		str	r2, [r7, #4]
 621 000c 3B60     		str	r3, [r7]
 170:..\src/utils.c ****     
ARM GAS  C:\Users\mgnocco\AppData\Local\Temp\ccOXEsk0.s 			page 15


 171:..\src/utils.c ****     int32 x;
 172:..\src/utils.c ****     int32 aux;
 173:..\src/utils.c ****     
 174:..\src/utils.c ****     switch (c_mem.dev.right_left){
 622              		.loc 1 174 0
 623 000e 2C4B     		ldr	r3, .L32
 624 0010 93F8A730 		ldrb	r3, [r3, #167]	@ zero_extendqisi2
 625 0014 002B     		cmp	r3, #0
 626 0016 02D0     		beq	.L27
 627 0018 012B     		cmp	r3, #1
 628 001a 2BD0     		beq	.L28
 629 001c 4AE0     		b	.L26
 630              	.L27:
 175:..\src/utils.c ****         case RIGHT_HAND:
 176:..\src/utils.c ****             x = (my_mod( - N2*(pos2) - N1*pos1, M*N2) + M/2) / M;
 631              		.loc 1 176 0
 632 001e 3B68     		ldr	r3, [r7]
 633 0020 5B42     		negs	r3, r3
 634 0022 BA68     		ldr	r2, [r7, #8]
 635 0024 02FB03F2 		mul	r2, r2, r3
 636 0028 7B68     		ldr	r3, [r7, #4]
 637 002a F968     		ldr	r1, [r7, #12]
 638 002c 01FB03F3 		mul	r3, r1, r3
 639 0030 D21A     		subs	r2, r2, r3
 640 0032 3B68     		ldr	r3, [r7]
 641 0034 1B04     		lsls	r3, r3, #16
 642 0036 1946     		mov	r1, r3
 643 0038 1046     		mov	r0, r2
 644 003a FFF7FEFF 		bl	my_mod
 645 003e 0346     		mov	r3, r0
 646 0040 03F50043 		add	r3, r3, #32768
 647 0044 1B0C     		lsrs	r3, r3, #16
 648 0046 3B61     		str	r3, [r7, #16]
 177:..\src/utils.c ****             
 178:..\src/utils.c ****             aux = my_mod(x*I1, N2);       // Module between x*I1 and N2.
 649              		.loc 1 178 0
 650 0048 3B69     		ldr	r3, [r7, #16]
 651 004a 3A6A     		ldr	r2, [r7, #32]
 652 004c 02FB03F3 		mul	r3, r2, r3
 653 0050 3968     		ldr	r1, [r7]
 654 0052 1846     		mov	r0, r3
 655 0054 FFF7FEFF 		bl	my_mod
 656 0058 0346     		mov	r3, r0
 657 005a 7B61     		str	r3, [r7, #20]
 179:..\src/utils.c ****             
 180:..\src/utils.c ****             // Wrap turns
 181:..\src/utils.c ****             aux -= N2;      //N2 (teeth of the second encoder wheel)
 658              		.loc 1 181 0
 659 005c 7A69     		ldr	r2, [r7, #20]
 660 005e 3B68     		ldr	r3, [r7]
 661 0060 D31A     		subs	r3, r2, r3
 662 0062 7B61     		str	r3, [r7, #20]
 182:..\src/utils.c ****             if (aux == -N2){
 663              		.loc 1 182 0
 664 0064 3B68     		ldr	r3, [r7]
 665 0066 5A42     		negs	r2, r3
 666 0068 7B69     		ldr	r3, [r7, #20]
ARM GAS  C:\Users\mgnocco\AppData\Local\Temp\ccOXEsk0.s 			page 16


 667 006a 9A42     		cmp	r2, r3
 668 006c 21D1     		bne	.L31
 183:..\src/utils.c ****                 aux = 0;
 669              		.loc 1 183 0
 670 006e 0023     		movs	r3, #0
 671 0070 7B61     		str	r3, [r7, #20]
 184:..\src/utils.c ****             }
 185:..\src/utils.c ****             
 186:..\src/utils.c ****             break;
 672              		.loc 1 186 0
 673 0072 1EE0     		b	.L31
 674              	.L28:
 187:..\src/utils.c ****         case LEFT_HAND:
 188:..\src/utils.c ****             x = (my_mod( - N2*(-pos2) - N1*pos1, M*N2) + M/2) / M;
 675              		.loc 1 188 0
 676 0074 3B68     		ldr	r3, [r7]
 677 0076 BA68     		ldr	r2, [r7, #8]
 678 0078 02FB03F2 		mul	r2, r2, r3
 679 007c 7B68     		ldr	r3, [r7, #4]
 680 007e F968     		ldr	r1, [r7, #12]
 681 0080 01FB03F3 		mul	r3, r1, r3
 682 0084 D21A     		subs	r2, r2, r3
 683 0086 3B68     		ldr	r3, [r7]
 684 0088 1B04     		lsls	r3, r3, #16
 685 008a 1946     		mov	r1, r3
 686 008c 1046     		mov	r0, r2
 687 008e FFF7FEFF 		bl	my_mod
 688 0092 0346     		mov	r3, r0
 689 0094 03F50043 		add	r3, r3, #32768
 690 0098 1B0C     		lsrs	r3, r3, #16
 691 009a 3B61     		str	r3, [r7, #16]
 189:..\src/utils.c ****             
 190:..\src/utils.c ****             aux = my_mod(x*I1, N2);       // Module between x*I1 and N2.
 692              		.loc 1 190 0
 693 009c 3B69     		ldr	r3, [r7, #16]
 694 009e 3A6A     		ldr	r2, [r7, #32]
 695 00a0 02FB03F3 		mul	r3, r2, r3
 696 00a4 3968     		ldr	r1, [r7]
 697 00a6 1846     		mov	r0, r3
 698 00a8 FFF7FEFF 		bl	my_mod
 699 00ac 0346     		mov	r3, r0
 700 00ae 7B61     		str	r3, [r7, #20]
 191:..\src/utils.c ****             
 192:..\src/utils.c ****             break;
 701              		.loc 1 192 0
 702 00b0 00E0     		b	.L26
 703              	.L31:
 186:..\src/utils.c ****         case LEFT_HAND:
 704              		.loc 1 186 0
 705 00b2 00BF     		nop
 706              	.L26:
 193:..\src/utils.c ****     }
 194:..\src/utils.c ****   
 195:..\src/utils.c ****     // SoftHand Pro firmware turns computation does not have to take into account turns shift like 
 196:..\src/utils.c ****     return aux; 
 707              		.loc 1 196 0
 708 00b4 7B69     		ldr	r3, [r7, #20]
ARM GAS  C:\Users\mgnocco\AppData\Local\Temp\ccOXEsk0.s 			page 17


 197:..\src/utils.c **** 
 198:..\src/utils.c **** }
 709              		.loc 1 198 0
 710 00b6 1846     		mov	r0, r3
 711 00b8 1837     		adds	r7, r7, #24
 712              		.cfi_def_cfa_offset 8
 713 00ba BD46     		mov	sp, r7
 714              		.cfi_def_cfa_register 13
 715              		@ sp needed
 716 00bc 80BD     		pop	{r7, pc}
 717              	.L33:
 718 00be 00BF     		.align	2
 719              	.L32:
 720 00c0 00000000 		.word	c_mem
 721              		.cfi_endproc
 722              	.LFE68:
 723              		.size	calc_turns_fcn_SH, .-calc_turns_fcn_SH
 724              		.section	.text.calc_turns_fcn,"ax",%progbits
 725              		.align	2
 726              		.global	calc_turns_fcn
 727              		.thumb
 728              		.thumb_func
 729              		.type	calc_turns_fcn, %function
 730              	calc_turns_fcn:
 731              	.LFB69:
 199:..\src/utils.c **** 
 200:..\src/utils.c **** int calc_turns_fcn(const int32 pos1, const int32 pos2, const int N1, const int N2, const int I1) { 
 732              		.loc 1 200 0
 733              		.cfi_startproc
 734              		@ args = 4, pretend = 0, frame = 24
 735              		@ frame_needed = 1, uses_anonymous_args = 0
 736 0000 80B5     		push	{r7, lr}
 737              		.cfi_def_cfa_offset 8
 738              		.cfi_offset 7, -8
 739              		.cfi_offset 14, -4
 740 0002 88B0     		sub	sp, sp, #32
 741              		.cfi_def_cfa_offset 40
 742 0004 02AF     		add	r7, sp, #8
 743              		.cfi_def_cfa 7, 32
 744 0006 F860     		str	r0, [r7, #12]
 745 0008 B960     		str	r1, [r7, #8]
 746 000a 7A60     		str	r2, [r7, #4]
 747 000c 3B60     		str	r3, [r7]
 201:..\src/utils.c **** 
 202:..\src/utils.c ****     if (c_mem.dev.dev_type == SOFTHAND_PRO) {
 748              		.loc 1 202 0
 749 000e 214B     		ldr	r3, .L37
 750 0010 93F8AC30 		ldrb	r3, [r3, #172]	@ zero_extendqisi2
 751 0014 002B     		cmp	r3, #0
 752 0016 09D1     		bne	.L35
 203:..\src/utils.c ****         return calc_turns_fcn_SH(pos1, pos2, N1, N2, I1);   
 753              		.loc 1 203 0
 754 0018 3B6A     		ldr	r3, [r7, #32]
 755 001a 0093     		str	r3, [sp]
 756 001c 3B68     		ldr	r3, [r7]
 757 001e 7A68     		ldr	r2, [r7, #4]
 758 0020 B968     		ldr	r1, [r7, #8]
ARM GAS  C:\Users\mgnocco\AppData\Local\Temp\ccOXEsk0.s 			page 18


 759 0022 F868     		ldr	r0, [r7, #12]
 760 0024 FFF7FEFF 		bl	calc_turns_fcn_SH
 761 0028 0346     		mov	r3, r0
 762 002a 2FE0     		b	.L36
 763              	.L35:
 764              	.LBB2:
 204:..\src/utils.c ****     }
 205:..\src/utils.c ****     else {
 206:..\src/utils.c ****         // This is the same computation and formulas used in previous firmwares
 207:..\src/utils.c ****         int32 x = (my_mod( - N2*pos2 - N1*pos1, M*N2) + M/2) / M;
 765              		.loc 1 207 0
 766 002c 3B68     		ldr	r3, [r7]
 767 002e 5B42     		negs	r3, r3
 768 0030 BA68     		ldr	r2, [r7, #8]
 769 0032 02FB03F2 		mul	r2, r2, r3
 770 0036 7B68     		ldr	r3, [r7, #4]
 771 0038 F968     		ldr	r1, [r7, #12]
 772 003a 01FB03F3 		mul	r3, r1, r3
 773 003e D21A     		subs	r2, r2, r3
 774 0040 3B68     		ldr	r3, [r7]
 775 0042 1B04     		lsls	r3, r3, #16
 776 0044 1946     		mov	r1, r3
 777 0046 1046     		mov	r0, r2
 778 0048 FFF7FEFF 		bl	my_mod
 779 004c 0346     		mov	r3, r0
 780 004e 03F50043 		add	r3, r3, #32768
 781 0052 1B0C     		lsrs	r3, r3, #16
 782 0054 7B61     		str	r3, [r7, #20]
 208:..\src/utils.c **** 
 209:..\src/utils.c ****         int32 aux = my_mod(x*I1, N2);
 783              		.loc 1 209 0
 784 0056 7B69     		ldr	r3, [r7, #20]
 785 0058 3A6A     		ldr	r2, [r7, #32]
 786 005a 02FB03F3 		mul	r3, r2, r3
 787 005e 3968     		ldr	r1, [r7]
 788 0060 1846     		mov	r0, r3
 789 0062 FFF7FEFF 		bl	my_mod
 790 0066 0346     		mov	r3, r0
 791 0068 3B61     		str	r3, [r7, #16]
 210:..\src/utils.c **** 
 211:..\src/utils.c ****         return (my_mod(aux + N2/2, N2) - N2/2);
 792              		.loc 1 211 0
 793 006a 3B68     		ldr	r3, [r7]
 794 006c DA0F     		lsrs	r2, r3, #31
 795 006e 1344     		add	r3, r3, r2
 796 0070 5B10     		asrs	r3, r3, #1
 797 0072 1A46     		mov	r2, r3
 798 0074 3B69     		ldr	r3, [r7, #16]
 799 0076 1344     		add	r3, r3, r2
 800 0078 3968     		ldr	r1, [r7]
 801 007a 1846     		mov	r0, r3
 802 007c FFF7FEFF 		bl	my_mod
 803 0080 0146     		mov	r1, r0
 804 0082 3B68     		ldr	r3, [r7]
 805 0084 DA0F     		lsrs	r2, r3, #31
 806 0086 1344     		add	r3, r3, r2
 807 0088 5B10     		asrs	r3, r3, #1
ARM GAS  C:\Users\mgnocco\AppData\Local\Temp\ccOXEsk0.s 			page 19


 808 008a CB1A     		subs	r3, r1, r3
 809              	.L36:
 810              	.LBE2:
 212:..\src/utils.c ****     }
 213:..\src/utils.c **** }
 811              		.loc 1 213 0
 812 008c 1846     		mov	r0, r3
 813 008e 1837     		adds	r7, r7, #24
 814              		.cfi_def_cfa_offset 8
 815 0090 BD46     		mov	sp, r7
 816              		.cfi_def_cfa_register 13
 817              		@ sp needed
 818 0092 80BD     		pop	{r7, pc}
 819              	.L38:
 820              		.align	2
 821              	.L37:
 822 0094 00000000 		.word	c_mem
 823              		.cfi_endproc
 824              	.LFE69:
 825              		.size	calc_turns_fcn, .-calc_turns_fcn
 826              		.section	.text.check_rest_position,"ax",%progbits
 827              		.align	2
 828              		.global	check_rest_position
 829              		.thumb
 830              		.thumb_func
 831              		.type	check_rest_position, %function
 832              	check_rest_position:
 833              	.LFB70:
 214:..\src/utils.c **** 
 215:..\src/utils.c **** //==============================================================================
 216:..\src/utils.c **** //                                                                 REST POSITION
 217:..\src/utils.c **** //==============================================================================
 218:..\src/utils.c **** void check_rest_position(void) {     // 100 Hz frequency.
 834              		.loc 1 218 0
 835              		.cfi_startproc
 836              		@ args = 0, pretend = 0, frame = 8
 837              		@ frame_needed = 1, uses_anonymous_args = 0
 838 0000 90B5     		push	{r4, r7, lr}
 839              		.cfi_def_cfa_offset 12
 840              		.cfi_offset 4, -12
 841              		.cfi_offset 7, -8
 842              		.cfi_offset 14, -4
 843 0002 83B0     		sub	sp, sp, #12
 844              		.cfi_def_cfa_offset 24
 845 0004 00AF     		add	r7, sp, #0
 846              		.cfi_def_cfa_register 7
 219:..\src/utils.c ****     
 220:..\src/utils.c ****     static uint32 count = 0;        // Range [0 - 2^31].
 221:..\src/utils.c ****     static uint8 flag_count = 1;
 222:..\src/utils.c ****     static uint8 first_time = 1;
 223:..\src/utils.c ****     static float m = 0;
 224:..\src/utils.c ****     static int32 abs_err_thr = 0;
 225:..\src/utils.c ****     static int32 delta_inc = 0;
 226:..\src/utils.c ****     int32 act_pos = 0;
 847              		.loc 1 226 0
 848 0006 0023     		movs	r3, #0
 849 0008 7B60     		str	r3, [r7, #4]
ARM GAS  C:\Users\mgnocco\AppData\Local\Temp\ccOXEsk0.s 			page 20


 227:..\src/utils.c ****     static int32 rest_error;
 228:..\src/utils.c ****     float rest_vel_ticks_ms = ((float)g_mem.SH.rest_vel)/1000.0;    //[ticks/s] -> [ticks/ms]
 850              		.loc 1 228 0
 851 000a A14B     		ldr	r3, .L54
 852 000c D3F8A832 		ldr	r3, [r3, #680]
 853 0010 1846     		mov	r0, r3
 854 0012 FFF7FEFF 		bl	__aeabi_i2f
 855 0016 0346     		mov	r3, r0
 856 0018 9E49     		ldr	r1, .L54+4
 857 001a 1846     		mov	r0, r3
 858 001c FFF7FEFF 		bl	__aeabi_fdiv
 859 0020 0346     		mov	r3, r0
 860 0022 3B60     		str	r3, [r7]	@ float
 229:..\src/utils.c ****     
 230:..\src/utils.c ****     if (first_time){
 861              		.loc 1 230 0
 862 0024 9C4B     		ldr	r3, .L54+8
 863 0026 1B78     		ldrb	r3, [r3]	@ zero_extendqisi2
 864 0028 002B     		cmp	r3, #0
 865 002a 05D0     		beq	.L40
 231:..\src/utils.c ****         count = 0;
 866              		.loc 1 231 0
 867 002c 9B4B     		ldr	r3, .L54+12
 868 002e 0022     		movs	r2, #0
 869 0030 1A60     		str	r2, [r3]
 232:..\src/utils.c ****         first_time = 0;
 870              		.loc 1 232 0
 871 0032 994B     		ldr	r3, .L54+8
 872 0034 0022     		movs	r2, #0
 873 0036 1A70     		strb	r2, [r3]
 874              	.L40:
 233:..\src/utils.c ****     }
 234:..\src/utils.c ****     
 235:..\src/utils.c ****     act_pos = (int32)(g_meas[g_mem.motor[0].encoder_line].pos[0] >> g_mem.enc[g_mem.motor[0].encode
 875              		.loc 1 235 0
 876 0038 954B     		ldr	r3, .L54
 877 003a 93F81031 		ldrb	r3, [r3, #272]	@ zero_extendqisi2
 878 003e 1946     		mov	r1, r3
 879 0040 974A     		ldr	r2, .L54+16
 880 0042 3423     		movs	r3, #52
 881 0044 03FB01F3 		mul	r3, r3, r1
 882 0048 1344     		add	r3, r3, r2
 883 004a 1A68     		ldr	r2, [r3]
 884 004c 904B     		ldr	r3, .L54
 885 004e 93F81031 		ldrb	r3, [r3, #272]	@ zero_extendqisi2
 886 0052 1846     		mov	r0, r3
 887 0054 8E49     		ldr	r1, .L54
 888 0056 0346     		mov	r3, r0
 889 0058 5B00     		lsls	r3, r3, #1
 890 005a 0344     		add	r3, r3, r0
 891 005c 1B01     		lsls	r3, r3, #4
 892 005e 0B44     		add	r3, r3, r1
 893 0060 03F29513 		addw	r3, r3, #405
 894 0064 1B78     		ldrb	r3, [r3]	@ zero_extendqisi2
 895 0066 42FA03F3 		asr	r3, r2, r3
 896 006a 7B60     		str	r3, [r7, #4]
 236:..\src/utils.c ****     
ARM GAS  C:\Users\mgnocco\AppData\Local\Temp\ccOXEsk0.s 			page 21


 237:..\src/utils.c ****     if ( ( ((c_mem.motor[0].input_mode == INPUT_MODE_EMG_PROPORTIONAL || c_mem.motor[0].input_mode 
 897              		.loc 1 237 0
 898 006c 8D4B     		ldr	r3, .L54+20
 899 006e 93F80E31 		ldrb	r3, [r3, #270]	@ zero_extendqisi2
 900 0072 022B     		cmp	r3, #2
 901 0074 13D0     		beq	.L41
 902              		.loc 1 237 0 is_stmt 0 discriminator 1
 903 0076 8B4B     		ldr	r3, .L54+20
 904 0078 93F80E31 		ldrb	r3, [r3, #270]	@ zero_extendqisi2
 905 007c 032B     		cmp	r3, #3
 906 007e 0ED0     		beq	.L41
 907              		.loc 1 237 0 discriminator 2
 908 0080 884B     		ldr	r3, .L54+20
 909 0082 93F80E31 		ldrb	r3, [r3, #270]	@ zero_extendqisi2
 910 0086 042B     		cmp	r3, #4
 911 0088 09D0     		beq	.L41
 238:..\src/utils.c ****              c_mem.motor[0].input_mode == INPUT_MODE_EMG_FCFS_ADV || c_mem.motor[0].input_mode == I
 912              		.loc 1 238 0 is_stmt 1 discriminator 3
 913 008a 864B     		ldr	r3, .L54+20
 914 008c 93F80E31 		ldrb	r3, [r3, #270]	@ zero_extendqisi2
 237:..\src/utils.c ****              c_mem.motor[0].input_mode == INPUT_MODE_EMG_FCFS_ADV || c_mem.motor[0].input_mode == I
 915              		.loc 1 237 0 discriminator 3
 916 0090 052B     		cmp	r3, #5
 917 0092 04D0     		beq	.L41
 918              		.loc 1 238 0
 919 0094 834B     		ldr	r3, .L54+20
 920 0096 93F80E31 		ldrb	r3, [r3, #270]	@ zero_extendqisi2
 921 009a 072B     		cmp	r3, #7
 922 009c 16D1     		bne	.L42
 923              	.L41:
 924              		.loc 1 238 0 is_stmt 0 discriminator 1
 925 009e 824B     		ldr	r3, .L54+24
 926 00a0 1B68     		ldr	r3, [r3]
 927 00a2 C72B     		cmp	r3, #199
 928 00a4 12DC     		bgt	.L42
 929              		.loc 1 238 0 discriminator 2
 930 00a6 804B     		ldr	r3, .L54+24
 931 00a8 5B68     		ldr	r3, [r3, #4]
 932 00aa C72B     		cmp	r3, #199
 933 00ac 0EDC     		bgt	.L42
 934              		.loc 1 238 0 discriminator 3
 935 00ae 7B68     		ldr	r3, [r7, #4]
 936 00b0 42F20F72 		movw	r2, #9999
 937 00b4 9342     		cmp	r3, r2
 938 00b6 09DC     		bgt	.L42
 239:..\src/utils.c ****         if (flag_count == 1){
 939              		.loc 1 239 0 is_stmt 1
 940 00b8 7C4B     		ldr	r3, .L54+28
 941 00ba 1B78     		ldrb	r3, [r3]	@ zero_extendqisi2
 942 00bc 012B     		cmp	r3, #1
 943 00be 0ED1     		bne	.L44
 240:..\src/utils.c ****             count = count + 1;
 944              		.loc 1 240 0
 945 00c0 764B     		ldr	r3, .L54+12
 946 00c2 1B68     		ldr	r3, [r3]
 947 00c4 0133     		adds	r3, r3, #1
 948 00c6 754A     		ldr	r2, .L54+12
ARM GAS  C:\Users\mgnocco\AppData\Local\Temp\ccOXEsk0.s 			page 22


 949 00c8 1360     		str	r3, [r2]
 239:..\src/utils.c ****         if (flag_count == 1){
 950              		.loc 1 239 0
 951 00ca 08E0     		b	.L44
 952              	.L42:
 241:..\src/utils.c ****         }
 242:..\src/utils.c ****     }
 243:..\src/utils.c ****     else {
 244:..\src/utils.c ****         count = 0;
 953              		.loc 1 244 0
 954 00cc 734B     		ldr	r3, .L54+12
 955 00ce 0022     		movs	r2, #0
 956 00d0 1A60     		str	r2, [r3]
 245:..\src/utils.c ****         rest_enabled = 0;
 957              		.loc 1 245 0
 958 00d2 774B     		ldr	r3, .L54+32
 959 00d4 0022     		movs	r2, #0
 960 00d6 1A70     		strb	r2, [r3]
 246:..\src/utils.c ****         flag_count = 1;
 961              		.loc 1 246 0
 962 00d8 744B     		ldr	r3, .L54+28
 963 00da 0122     		movs	r2, #1
 964 00dc 1A70     		strb	r2, [r3]
 965              	.L44:
 247:..\src/utils.c ****     }
 248:..\src/utils.c ****   
 249:..\src/utils.c ****     /********** Velocity closure procedure *************
 250:..\src/utils.c ****     * m = error/time
 251:..\src/utils.c ****     * m = (g_mem.rest_pos - init_pos)/time
 252:..\src/utils.c ****     * time = g_mem.rest_pos/rest_vel_ticks_ms (rest_vel_ticks_ms is in [ticks/ms])
 253:..\src/utils.c ****     ***************************************************/
 254:..\src/utils.c **** 
 255:..\src/utils.c ****     if (count == (uint32)(g_mem.SH.rest_delay/CALIBRATION_DIV)){ 
 966              		.loc 1 255 0
 967 00de 6C4B     		ldr	r3, .L54
 968 00e0 D3F8A432 		ldr	r3, [r3, #676]
 969 00e4 734A     		ldr	r2, .L54+36
 970 00e6 82FB0312 		smull	r1, r2, r2, r3
 971 00ea 9210     		asrs	r2, r2, #2
 972 00ec DB17     		asrs	r3, r3, #31
 973 00ee D31A     		subs	r3, r2, r3
 974 00f0 1A46     		mov	r2, r3
 975 00f2 6A4B     		ldr	r3, .L54+12
 976 00f4 1B68     		ldr	r3, [r3]
 977 00f6 9A42     		cmp	r2, r3
 978 00f8 40F09480 		bne	.L45
 256:..\src/utils.c ****         // This routine is executed every 10 firmware cycles -> g_mem.rest_delay must be major than
 257:..\src/utils.c ****         rest_enabled = 1;
 979              		.loc 1 257 0
 980 00fc 6C4B     		ldr	r3, .L54+32
 981 00fe 0122     		movs	r2, #1
 982 0100 1A70     		strb	r2, [r3]
 258:..\src/utils.c ****         rest_pos_curr_ref = g_meas[g_mem.motor[0].encoder_line].pos[0];
 983              		.loc 1 258 0
 984 0102 634B     		ldr	r3, .L54
 985 0104 93F81031 		ldrb	r3, [r3, #272]	@ zero_extendqisi2
 986 0108 1946     		mov	r1, r3
ARM GAS  C:\Users\mgnocco\AppData\Local\Temp\ccOXEsk0.s 			page 23


 987 010a 654A     		ldr	r2, .L54+16
 988 010c 3423     		movs	r3, #52
 989 010e 03FB01F3 		mul	r3, r3, r1
 990 0112 1344     		add	r3, r3, r2
 991 0114 1B68     		ldr	r3, [r3]
 992 0116 684A     		ldr	r2, .L54+40
 993 0118 1360     		str	r3, [r2]
 259:..\src/utils.c ****         
 260:..\src/utils.c ****         // Ramp angular coefficient
 261:..\src/utils.c ****         m = ((float)(g_mem.SH.rest_pos - g_meas[g_mem.motor[0].encoder_line].pos[0])/((float)g_mem.
 994              		.loc 1 261 0
 995 011a 5D4B     		ldr	r3, .L54
 996 011c D3F8A022 		ldr	r2, [r3, #672]
 997 0120 5B4B     		ldr	r3, .L54
 998 0122 93F81031 		ldrb	r3, [r3, #272]	@ zero_extendqisi2
 999 0126 1846     		mov	r0, r3
 1000 0128 5D49     		ldr	r1, .L54+16
 1001 012a 3423     		movs	r3, #52
 1002 012c 03FB00F3 		mul	r3, r3, r0
 1003 0130 0B44     		add	r3, r3, r1
 1004 0132 1B68     		ldr	r3, [r3]
 1005 0134 D31A     		subs	r3, r2, r3
 1006 0136 1846     		mov	r0, r3
 1007 0138 FFF7FEFF 		bl	__aeabi_i2f
 1008 013c 0446     		mov	r4, r0
 1009 013e 544B     		ldr	r3, .L54
 1010 0140 D3F8A032 		ldr	r3, [r3, #672]
 1011 0144 1846     		mov	r0, r3
 1012 0146 FFF7FEFF 		bl	__aeabi_i2f
 1013 014a 0346     		mov	r3, r0
 1014 014c 1946     		mov	r1, r3
 1015 014e 2046     		mov	r0, r4
 1016 0150 FFF7FEFF 		bl	__aeabi_fdiv
 1017 0154 0346     		mov	r3, r0
 1018 0156 3968     		ldr	r1, [r7]	@ float
 1019 0158 1846     		mov	r0, r3
 1020 015a FFF7FEFF 		bl	__aeabi_fmul
 1021 015e 0346     		mov	r3, r0
 1022 0160 1A46     		mov	r2, r3
 1023 0162 564B     		ldr	r3, .L54+44
 1024 0164 1A60     		str	r2, [r3]	@ float
 262:..\src/utils.c ****         
 263:..\src/utils.c ****         // Stop condition threshold is related to m coefficient by REST_RATIO value
 264:..\src/utils.c ****         abs_err_thr = (int32)( (int32)(((float)REST_POS_ERR_THR_GAIN)*m*((float)CALIBRATION_DIV)) <
 1025              		.loc 1 264 0
 1026 0166 554B     		ldr	r3, .L54+44
 1027 0168 1B68     		ldr	r3, [r3]	@ float
 1028 016a 5549     		ldr	r1, .L54+48
 1029 016c 1846     		mov	r0, r3
 1030 016e FFF7FEFF 		bl	__aeabi_fmul
 1031 0172 0346     		mov	r3, r0
 1032 0174 5249     		ldr	r1, .L54+48
 1033 0176 1846     		mov	r0, r3
 1034 0178 FFF7FEFF 		bl	__aeabi_fmul
 1035 017c 0346     		mov	r3, r0
 1036 017e 1846     		mov	r0, r3
 1037 0180 FFF7FEFF 		bl	__aeabi_f2iz
ARM GAS  C:\Users\mgnocco\AppData\Local\Temp\ccOXEsk0.s 			page 24


 1038 0184 424B     		ldr	r3, .L54
 1039 0186 93F81031 		ldrb	r3, [r3, #272]	@ zero_extendqisi2
 1040 018a 1946     		mov	r1, r3
 1041 018c 404A     		ldr	r2, .L54
 1042 018e 0B46     		mov	r3, r1
 1043 0190 5B00     		lsls	r3, r3, #1
 1044 0192 0B44     		add	r3, r3, r1
 1045 0194 1B01     		lsls	r3, r3, #4
 1046 0196 1344     		add	r3, r3, r2
 1047 0198 03F29513 		addw	r3, r3, #405
 1048 019c 1B78     		ldrb	r3, [r3]	@ zero_extendqisi2
 1049 019e 00FA03F3 		lsl	r3, r0, r3
 1050 01a2 484A     		ldr	r2, .L54+52
 1051 01a4 1360     		str	r3, [r2]
 265:..\src/utils.c ****         abs_err_thr = (abs_err_thr>0)?abs_err_thr:(0-abs_err_thr);
 1052              		.loc 1 265 0
 1053 01a6 474B     		ldr	r3, .L54+52
 1054 01a8 1B68     		ldr	r3, [r3]
 1055 01aa 002B     		cmp	r3, #0
 1056 01ac B8BF     		it	lt
 1057 01ae 5B42     		rsblt	r3, r3, #0
 1058 01b0 444A     		ldr	r2, .L54+52
 1059 01b2 1360     		str	r3, [r2]
 266:..\src/utils.c ****         
 267:..\src/utils.c ****         rest_error = g_mem.SH.rest_pos - g_meas[g_mem.motor[0].encoder_line].pos[0];    
 1060              		.loc 1 267 0
 1061 01b4 364B     		ldr	r3, .L54
 1062 01b6 D3F8A022 		ldr	r2, [r3, #672]
 1063 01ba 354B     		ldr	r3, .L54
 1064 01bc 93F81031 		ldrb	r3, [r3, #272]	@ zero_extendqisi2
 1065 01c0 1846     		mov	r0, r3
 1066 01c2 3749     		ldr	r1, .L54+16
 1067 01c4 3423     		movs	r3, #52
 1068 01c6 03FB00F3 		mul	r3, r3, r0
 1069 01ca 0B44     		add	r3, r3, r1
 1070 01cc 1B68     		ldr	r3, [r3]
 1071 01ce D31A     		subs	r3, r2, r3
 1072 01d0 3D4A     		ldr	r2, .L54+56
 1073 01d2 1360     		str	r3, [r2]
 268:..\src/utils.c ****         
 269:..\src/utils.c ****         delta_inc = (int32)( ((int32)(m*(float)CALIBRATION_DIV)) << g_mem.enc[g_mem.motor[0].encode
 1074              		.loc 1 269 0
 1075 01d4 394B     		ldr	r3, .L54+44
 1076 01d6 1B68     		ldr	r3, [r3]	@ float
 1077 01d8 3949     		ldr	r1, .L54+48
 1078 01da 1846     		mov	r0, r3
 1079 01dc FFF7FEFF 		bl	__aeabi_fmul
 1080 01e0 0346     		mov	r3, r0
 1081 01e2 1846     		mov	r0, r3
 1082 01e4 FFF7FEFF 		bl	__aeabi_f2iz
 1083 01e8 294B     		ldr	r3, .L54
 1084 01ea 93F81031 		ldrb	r3, [r3, #272]	@ zero_extendqisi2
 1085 01ee 1946     		mov	r1, r3
 1086 01f0 274A     		ldr	r2, .L54
 1087 01f2 0B46     		mov	r3, r1
 1088 01f4 5B00     		lsls	r3, r3, #1
 1089 01f6 0B44     		add	r3, r3, r1
ARM GAS  C:\Users\mgnocco\AppData\Local\Temp\ccOXEsk0.s 			page 25


 1090 01f8 1B01     		lsls	r3, r3, #4
 1091 01fa 1344     		add	r3, r3, r2
 1092 01fc 03F29513 		addw	r3, r3, #405
 1093 0200 1B78     		ldrb	r3, [r3]	@ zero_extendqisi2
 1094 0202 00FA03F3 		lsl	r3, r0, r3
 1095 0206 314A     		ldr	r2, .L54+60
 1096 0208 1360     		str	r3, [r2]
 270:..\src/utils.c ****         delta_inc = (delta_inc>0)?delta_inc:(0-delta_inc);
 1097              		.loc 1 270 0
 1098 020a 304B     		ldr	r3, .L54+60
 1099 020c 1B68     		ldr	r3, [r3]
 1100 020e 002B     		cmp	r3, #0
 1101 0210 B8BF     		it	lt
 1102 0212 5B42     		rsblt	r3, r3, #0
 1103 0214 2D4A     		ldr	r2, .L54+60
 1104 0216 1360     		str	r3, [r2]
 271:..\src/utils.c ****         
 272:..\src/utils.c ****         count = 0;
 1105              		.loc 1 272 0
 1106 0218 204B     		ldr	r3, .L54+12
 1107 021a 0022     		movs	r2, #0
 1108 021c 1A60     		str	r2, [r3]
 273:..\src/utils.c ****         flag_count = 0;
 1109              		.loc 1 273 0
 1110 021e 234B     		ldr	r3, .L54+28
 1111 0220 0022     		movs	r2, #0
 1112 0222 1A70     		strb	r2, [r3]
 1113              	.L45:
 274:..\src/utils.c ****     }
 275:..\src/utils.c ****     
 276:..\src/utils.c ****     if (rest_enabled){
 1114              		.loc 1 276 0
 1115 0224 224B     		ldr	r3, .L54+32
 1116 0226 1B78     		ldrb	r3, [r3]	@ zero_extendqisi2
 1117 0228 002B     		cmp	r3, #0
 1118 022a 79D0     		beq	.L46
 277:..\src/utils.c **** 
 278:..\src/utils.c ****         if (rest_error < abs_err_thr && rest_error > -abs_err_thr){
 1119              		.loc 1 278 0
 1120 022c 264B     		ldr	r3, .L54+56
 1121 022e 1A68     		ldr	r2, [r3]
 1122 0230 244B     		ldr	r3, .L54+52
 1123 0232 1B68     		ldr	r3, [r3]
 1124 0234 9A42     		cmp	r2, r3
 1125 0236 4DDA     		bge	.L47
 1126              		.loc 1 278 0 is_stmt 0 discriminator 1
 1127 0238 224B     		ldr	r3, .L54+52
 1128 023a 1B68     		ldr	r3, [r3]
 1129 023c 5A42     		negs	r2, r3
 1130 023e 224B     		ldr	r3, .L54+56
 1131 0240 1B68     		ldr	r3, [r3]
 1132 0242 9A42     		cmp	r2, r3
 1133 0244 46DA     		bge	.L47
 279:..\src/utils.c ****             // Stop condition
 280:..\src/utils.c ****             rest_pos_curr_ref = g_mem.SH.rest_pos;
 1134              		.loc 1 280 0 is_stmt 1
 1135 0246 124B     		ldr	r3, .L54
ARM GAS  C:\Users\mgnocco\AppData\Local\Temp\ccOXEsk0.s 			page 26


 1136 0248 D3F8A032 		ldr	r3, [r3, #672]
 1137 024c 1A4A     		ldr	r2, .L54+40
 1138 024e 1360     		str	r3, [r2]
 281:..\src/utils.c ****             
 282:..\src/utils.c ****             if (c_mem.motor[0].input_mode == INPUT_MODE_EMG_PROPORTIONAL || c_mem.motor[0].input_mo
 1139              		.loc 1 282 0
 1140 0250 144B     		ldr	r3, .L54+20
 1141 0252 93F80E31 		ldrb	r3, [r3, #270]	@ zero_extendqisi2
 1142 0256 022B     		cmp	r3, #2
 1143 0258 13D0     		beq	.L48
 1144              		.loc 1 282 0 is_stmt 0 discriminator 1
 1145 025a 124B     		ldr	r3, .L54+20
 1146 025c 93F80E31 		ldrb	r3, [r3, #270]	@ zero_extendqisi2
 1147 0260 032B     		cmp	r3, #3
 1148 0262 0ED0     		beq	.L48
 1149              		.loc 1 282 0 discriminator 2
 1150 0264 0F4B     		ldr	r3, .L54+20
 1151 0266 93F80E31 		ldrb	r3, [r3, #270]	@ zero_extendqisi2
 1152 026a 042B     		cmp	r3, #4
 1153 026c 09D0     		beq	.L48
 283:..\src/utils.c ****                 c_mem.motor[0].input_mode == INPUT_MODE_EMG_FCFS_ADV || c_mem.motor[0].input_mode =
 1154              		.loc 1 283 0 is_stmt 1 discriminator 3
 1155 026e 0D4B     		ldr	r3, .L54+20
 1156 0270 93F80E31 		ldrb	r3, [r3, #270]	@ zero_extendqisi2
 282:..\src/utils.c ****                 c_mem.motor[0].input_mode == INPUT_MODE_EMG_FCFS_ADV || c_mem.motor[0].input_mode =
 1157              		.loc 1 282 0 discriminator 3
 1158 0274 052B     		cmp	r3, #5
 1159 0276 04D0     		beq	.L48
 1160              		.loc 1 283 0
 1161 0278 0A4B     		ldr	r3, .L54+20
 1162 027a 93F80E31 		ldrb	r3, [r3, #270]	@ zero_extendqisi2
 1163 027e 072B     		cmp	r3, #7
 1164 0280 02D1     		bne	.L49
 1165              	.L48:
 284:..\src/utils.c ****                 forced_open = 1; 
 1166              		.loc 1 284 0
 1167 0282 134B     		ldr	r3, .L54+64
 1168 0284 0122     		movs	r2, #1
 1169 0286 1A70     		strb	r2, [r3]
 1170              	.L49:
 285:..\src/utils.c ****             
 286:..\src/utils.c ****             count = 0;
 1171              		.loc 1 286 0
 1172 0288 044B     		ldr	r3, .L54+12
 1173 028a 0022     		movs	r2, #0
 1174 028c 1A60     		str	r2, [r3]
 1175 028e 47E0     		b	.L46
 1176              	.L55:
 1177              		.align	2
 1178              	.L54:
 1179 0290 00000000 		.word	g_mem
 1180 0294 00007A44 		.word	1148846080
 1181 0298 00000000 		.word	first_time.9589
 1182 029c 14000000 		.word	count.9587
 1183 02a0 00000000 		.word	g_meas
 1184 02a4 00000000 		.word	c_mem
 1185 02a8 00000000 		.word	g_adc_meas
ARM GAS  C:\Users\mgnocco\AppData\Local\Temp\ccOXEsk0.s 			page 27


 1186 02ac 01000000 		.word	flag_count.9588
 1187 02b0 00000000 		.word	rest_enabled
 1188 02b4 67666666 		.word	1717986919
 1189 02b8 00000000 		.word	rest_pos_curr_ref
 1190 02bc 18000000 		.word	m.9590
 1191 02c0 00002041 		.word	1092616192
 1192 02c4 1C000000 		.word	abs_err_thr.9591
 1193 02c8 20000000 		.word	rest_error.9594
 1194 02cc 24000000 		.word	delta_inc.9592
 1195 02d0 00000000 		.word	forced_open
 1196              	.L47:
 287:..\src/utils.c ****         }
 288:..\src/utils.c ****         else {
 289:..\src/utils.c ****             rest_error = g_mem.SH.rest_pos - g_meas[g_mem.motor[0].encoder_line].pos[0];        
 1197              		.loc 1 289 0
 1198 02d4 234B     		ldr	r3, .L56
 1199 02d6 D3F8A022 		ldr	r2, [r3, #672]
 1200 02da 224B     		ldr	r3, .L56
 1201 02dc 93F81031 		ldrb	r3, [r3, #272]	@ zero_extendqisi2
 1202 02e0 1846     		mov	r0, r3
 1203 02e2 2149     		ldr	r1, .L56+4
 1204 02e4 3423     		movs	r3, #52
 1205 02e6 03FB00F3 		mul	r3, r3, r0
 1206 02ea 0B44     		add	r3, r3, r1
 1207 02ec 1B68     		ldr	r3, [r3]
 1208 02ee D31A     		subs	r3, r2, r3
 1209 02f0 1E4A     		ldr	r2, .L56+8
 1210 02f2 1360     		str	r3, [r2]
 290:..\src/utils.c **** 
 291:..\src/utils.c ****             if (rest_error > 0){
 1211              		.loc 1 291 0
 1212 02f4 1D4B     		ldr	r3, .L56+8
 1213 02f6 1B68     		ldr	r3, [r3]
 1214 02f8 002B     		cmp	r3, #0
 1215 02fa 06DD     		ble	.L50
 292:..\src/utils.c ****                 rest_pos_curr_ref = rest_pos_curr_ref + delta_inc;
 1216              		.loc 1 292 0
 1217 02fc 1C4B     		ldr	r3, .L56+12
 1218 02fe 1A68     		ldr	r2, [r3]
 1219 0300 1C4B     		ldr	r3, .L56+16
 1220 0302 1B68     		ldr	r3, [r3]
 1221 0304 1344     		add	r3, r3, r2
 1222 0306 1A4A     		ldr	r2, .L56+12
 1223 0308 1360     		str	r3, [r2]
 1224              	.L50:
 293:..\src/utils.c ****             }
 294:..\src/utils.c ****             if (rest_error < 0){
 1225              		.loc 1 294 0
 1226 030a 184B     		ldr	r3, .L56+8
 1227 030c 1B68     		ldr	r3, [r3]
 1228 030e 002B     		cmp	r3, #0
 1229 0310 06DA     		bge	.L46
 295:..\src/utils.c ****                 rest_pos_curr_ref = rest_pos_curr_ref - delta_inc;
 1230              		.loc 1 295 0
 1231 0312 174B     		ldr	r3, .L56+12
 1232 0314 1A68     		ldr	r2, [r3]
 1233 0316 174B     		ldr	r3, .L56+16
ARM GAS  C:\Users\mgnocco\AppData\Local\Temp\ccOXEsk0.s 			page 28


 1234 0318 1B68     		ldr	r3, [r3]
 1235 031a D31A     		subs	r3, r2, r3
 1236 031c 144A     		ldr	r2, .L56+12
 1237 031e 1360     		str	r3, [r2]
 1238              	.L46:
 296:..\src/utils.c ****             }
 297:..\src/utils.c ****         } 
 298:..\src/utils.c ****     }
 299:..\src/utils.c ****     
 300:..\src/utils.c ****     // Position limit saturation
 301:..\src/utils.c ****     if (c_mem.motor[0].pos_lim_flag) {
 1239              		.loc 1 301 0
 1240 0320 154B     		ldr	r3, .L56+20
 1241 0322 93F8E330 		ldrb	r3, [r3, #227]	@ zero_extendqisi2
 1242 0326 002B     		cmp	r3, #0
 1243 0328 17D0     		beq	.L53
 302:..\src/utils.c ****         if (rest_pos_curr_ref < c_mem.motor[0].pos_lim_inf) 
 1244              		.loc 1 302 0
 1245 032a 134B     		ldr	r3, .L56+20
 1246 032c D3F8E420 		ldr	r2, [r3, #228]
 1247 0330 0F4B     		ldr	r3, .L56+12
 1248 0332 1B68     		ldr	r3, [r3]
 1249 0334 9A42     		cmp	r2, r3
 1250 0336 04DD     		ble	.L52
 303:..\src/utils.c ****             rest_pos_curr_ref = c_mem.motor[0].pos_lim_inf;
 1251              		.loc 1 303 0
 1252 0338 0F4B     		ldr	r3, .L56+20
 1253 033a D3F8E430 		ldr	r3, [r3, #228]
 1254 033e 0C4A     		ldr	r2, .L56+12
 1255 0340 1360     		str	r3, [r2]
 1256              	.L52:
 304:..\src/utils.c ****         if (rest_pos_curr_ref > c_mem.motor[0].pos_lim_sup) 
 1257              		.loc 1 304 0
 1258 0342 0D4B     		ldr	r3, .L56+20
 1259 0344 D3F8E820 		ldr	r2, [r3, #232]
 1260 0348 094B     		ldr	r3, .L56+12
 1261 034a 1B68     		ldr	r3, [r3]
 1262 034c 9A42     		cmp	r2, r3
 1263 034e 04DA     		bge	.L53
 305:..\src/utils.c ****             rest_pos_curr_ref = c_mem.motor[0].pos_lim_sup;
 1264              		.loc 1 305 0
 1265 0350 094B     		ldr	r3, .L56+20
 1266 0352 D3F8E830 		ldr	r3, [r3, #232]
 1267 0356 064A     		ldr	r2, .L56+12
 1268 0358 1360     		str	r3, [r2]
 1269              	.L53:
 306:..\src/utils.c ****     }
 307:..\src/utils.c **** 
 308:..\src/utils.c **** }
 1270              		.loc 1 308 0
 1271 035a 00BF     		nop
 1272 035c 0C37     		adds	r7, r7, #12
 1273              		.cfi_def_cfa_offset 12
 1274 035e BD46     		mov	sp, r7
 1275              		.cfi_def_cfa_register 13
 1276              		@ sp needed
 1277 0360 90BD     		pop	{r4, r7, pc}
ARM GAS  C:\Users\mgnocco\AppData\Local\Temp\ccOXEsk0.s 			page 29


 1278              	.L57:
 1279 0362 00BF     		.align	2
 1280              	.L56:
 1281 0364 00000000 		.word	g_mem
 1282 0368 00000000 		.word	g_meas
 1283 036c 20000000 		.word	rest_error.9594
 1284 0370 00000000 		.word	rest_pos_curr_ref
 1285 0374 24000000 		.word	delta_inc.9592
 1286 0378 00000000 		.word	c_mem
 1287              		.cfi_endproc
 1288              	.LFE70:
 1289              		.size	check_rest_position, .-check_rest_position
 1290              		.section	.text.LED_control,"ax",%progbits
 1291              		.align	2
 1292              		.global	LED_control
 1293              		.thumb
 1294              		.thumb_func
 1295              		.type	LED_control, %function
 1296              	LED_control:
 1297              	.LFB71:
 309:..\src/utils.c **** 
 310:..\src/utils.c **** //==============================================================================
 311:..\src/utils.c **** //                                                                   LED CONTROL
 312:..\src/utils.c **** //==============================================================================
 313:..\src/utils.c **** 
 314:..\src/utils.c **** void LED_control(uint8 mode) {
 1298              		.loc 1 314 0
 1299              		.cfi_startproc
 1300              		@ args = 0, pretend = 0, frame = 8
 1301              		@ frame_needed = 1, uses_anonymous_args = 0
 1302 0000 80B5     		push	{r7, lr}
 1303              		.cfi_def_cfa_offset 8
 1304              		.cfi_offset 7, -8
 1305              		.cfi_offset 14, -4
 1306 0002 82B0     		sub	sp, sp, #8
 1307              		.cfi_def_cfa_offset 16
 1308 0004 00AF     		add	r7, sp, #0
 1309              		.cfi_def_cfa_register 7
 1310 0006 0346     		mov	r3, r0
 1311 0008 FB71     		strb	r3, [r7, #7]
 315:..\src/utils.c ****     
 316:..\src/utils.c ****     switch (mode) {
 1312              		.loc 1 316 0
 1313 000a FB79     		ldrb	r3, [r7, #7]	@ zero_extendqisi2
 1314 000c 052B     		cmp	r3, #5
 1315 000e 39D8     		bhi	.L68
 1316 0010 01A2     		adr	r2, .L61
 1317 0012 52F823F0 		ldr	pc, [r2, r3, lsl #2]
 1318 0016 00BF     		.p2align 2
 1319              	.L61:
 1320 0018 31000000 		.word	.L60+1
 1321 001c 3F000000 		.word	.L62+1
 1322 0020 4D000000 		.word	.L63+1
 1323 0024 5B000000 		.word	.L64+1
 1324 0028 69000000 		.word	.L65+1
 1325 002c 77000000 		.word	.L66+1
 1326              		.p2align 1
ARM GAS  C:\Users\mgnocco\AppData\Local\Temp\ccOXEsk0.s 			page 30


 1327              	.L60:
 317:..\src/utils.c ****         
 318:..\src/utils.c ****         case 0:     //All LEDs off
 319:..\src/utils.c ****             LED_CTRL_Write(0);
 1328              		.loc 1 319 0
 1329 0030 0020     		movs	r0, #0
 1330 0032 FFF7FEFF 		bl	LED_CTRL_Write
 320:..\src/utils.c ****             BLINK_CTRL_EN_Write(0);
 1331              		.loc 1 320 0
 1332 0036 0020     		movs	r0, #0
 1333 0038 FFF7FEFF 		bl	BLINK_CTRL_EN_Write
 321:..\src/utils.c ****             break;
 1334              		.loc 1 321 0
 1335 003c 23E0     		b	.L67
 1336              	.L62:
 322:..\src/utils.c ****         case 1:     // Green fixed light
 323:..\src/utils.c ****             LED_CTRL_Write(2);
 1337              		.loc 1 323 0
 1338 003e 0220     		movs	r0, #2
 1339 0040 FFF7FEFF 		bl	LED_CTRL_Write
 324:..\src/utils.c ****             BLINK_CTRL_EN_Write(0);
 1340              		.loc 1 324 0
 1341 0044 0020     		movs	r0, #0
 1342 0046 FFF7FEFF 		bl	BLINK_CTRL_EN_Write
 325:..\src/utils.c ****             break;
 1343              		.loc 1 325 0
 1344 004a 1CE0     		b	.L67
 1345              	.L63:
 326:..\src/utils.c ****             
 327:..\src/utils.c ****         case 2:     // Yellow flashing light @ 0.5 Hz
 328:..\src/utils.c ****             LED_CTRL_Write(0);
 1346              		.loc 1 328 0
 1347 004c 0020     		movs	r0, #0
 1348 004e FFF7FEFF 		bl	LED_CTRL_Write
 329:..\src/utils.c ****             BLINK_CTRL_EN_Write(1);        
 1349              		.loc 1 329 0
 1350 0052 0120     		movs	r0, #1
 1351 0054 FFF7FEFF 		bl	BLINK_CTRL_EN_Write
 330:..\src/utils.c ****             break;
 1352              		.loc 1 330 0
 1353 0058 15E0     		b	.L67
 1354              	.L64:
 331:..\src/utils.c ****             
 332:..\src/utils.c ****         case 3:     // Red flashing light @ 2.5 Hz
 333:..\src/utils.c ****             LED_CTRL_Write(0);
 1355              		.loc 1 333 0
 1356 005a 0020     		movs	r0, #0
 1357 005c FFF7FEFF 		bl	LED_CTRL_Write
 334:..\src/utils.c ****             BLINK_CTRL_EN_Write(2);        
 1358              		.loc 1 334 0
 1359 0060 0220     		movs	r0, #2
 1360 0062 FFF7FEFF 		bl	BLINK_CTRL_EN_Write
 335:..\src/utils.c ****             break;
 1361              		.loc 1 335 0
 1362 0066 0EE0     		b	.L67
 1363              	.L65:
 336:..\src/utils.c ****             
ARM GAS  C:\Users\mgnocco\AppData\Local\Temp\ccOXEsk0.s 			page 31


 337:..\src/utils.c ****         case 4:     // Yellow fixed light - maintenance
 338:..\src/utils.c ****             LED_CTRL_Write(3);
 1364              		.loc 1 338 0
 1365 0068 0320     		movs	r0, #3
 1366 006a FFF7FEFF 		bl	LED_CTRL_Write
 339:..\src/utils.c ****             BLINK_CTRL_EN_Write(0);        
 1367              		.loc 1 339 0
 1368 006e 0020     		movs	r0, #0
 1369 0070 FFF7FEFF 		bl	BLINK_CTRL_EN_Write
 340:..\src/utils.c ****             break;
 1370              		.loc 1 340 0
 1371 0074 07E0     		b	.L67
 1372              	.L66:
 341:..\src/utils.c ****         
 342:..\src/utils.c ****         case 5:     // Red fixed light - uUSB power
 343:..\src/utils.c ****             LED_CTRL_Write(1);
 1373              		.loc 1 343 0
 1374 0076 0120     		movs	r0, #1
 1375 0078 FFF7FEFF 		bl	LED_CTRL_Write
 344:..\src/utils.c ****             BLINK_CTRL_EN_Write(0);        
 1376              		.loc 1 344 0
 1377 007c 0020     		movs	r0, #0
 1378 007e FFF7FEFF 		bl	BLINK_CTRL_EN_Write
 345:..\src/utils.c ****             break; 
 1379              		.loc 1 345 0
 1380 0082 00E0     		b	.L67
 1381              	.L68:
 346:..\src/utils.c ****             
 347:..\src/utils.c ****         default:
 348:..\src/utils.c ****             break;
 1382              		.loc 1 348 0
 1383 0084 00BF     		nop
 1384              	.L67:
 349:..\src/utils.c ****     }   
 350:..\src/utils.c **** }
 1385              		.loc 1 350 0
 1386 0086 00BF     		nop
 1387 0088 0837     		adds	r7, r7, #8
 1388              		.cfi_def_cfa_offset 8
 1389 008a BD46     		mov	sp, r7
 1390              		.cfi_def_cfa_register 13
 1391              		@ sp needed
 1392 008c 80BD     		pop	{r7, pc}
 1393              		.cfi_endproc
 1394              	.LFE71:
 1395              		.size	LED_control, .-LED_control
 1396 008e 00BF     		.section	.text.battery_management,"ax",%progbits
 1397              		.align	2
 1398              		.global	battery_management
 1399              		.thumb
 1400              		.thumb_func
 1401              		.type	battery_management, %function
 1402              	battery_management:
 1403              	.LFB72:
 351:..\src/utils.c **** 
 352:..\src/utils.c **** 
 353:..\src/utils.c **** //==============================================================================
ARM GAS  C:\Users\mgnocco\AppData\Local\Temp\ccOXEsk0.s 			page 32


 354:..\src/utils.c **** //                                                            BATTERY MANAGEMENT
 355:..\src/utils.c **** //==============================================================================
 356:..\src/utils.c **** void battery_management() {
 1404              		.loc 1 356 0
 1405              		.cfi_startproc
 1406              		@ args = 0, pretend = 0, frame = 0
 1407              		@ frame_needed = 1, uses_anonymous_args = 0
 1408              		@ link register save eliminated.
 1409 0000 80B4     		push	{r7}
 1410              		.cfi_def_cfa_offset 4
 1411              		.cfi_offset 7, -4
 1412 0002 00AF     		add	r7, sp, #0
 1413              		.cfi_def_cfa_register 7
 357:..\src/utils.c ****    
 358:..\src/utils.c **** }
 1414              		.loc 1 358 0
 1415 0004 00BF     		nop
 1416 0006 BD46     		mov	sp, r7
 1417              		.cfi_def_cfa_register 13
 1418              		@ sp needed
 1419 0008 80BC     		pop	{r7}
 1420              		.cfi_restore 7
 1421              		.cfi_def_cfa_offset 0
 1422 000a 7047     		bx	lr
 1423              		.cfi_endproc
 1424              	.LFE72:
 1425              		.size	battery_management, .-battery_management
 1426              		.section	.text.ADC_Set_N_Channels,"ax",%progbits
 1427              		.align	2
 1428              		.global	ADC_Set_N_Channels
 1429              		.thumb
 1430              		.thumb_func
 1431              		.type	ADC_Set_N_Channels, %function
 1432              	ADC_Set_N_Channels:
 1433              	.LFB73:
 359:..\src/utils.c **** 
 360:..\src/utils.c **** //==============================================================================
 361:..\src/utils.c **** //                                                         ADC SET CHANNELS USED
 362:..\src/utils.c **** //==============================================================================
 363:..\src/utils.c **** void ADC_Set_N_Channels() {
 1434              		.loc 1 363 0
 1435              		.cfi_startproc
 1436              		@ args = 0, pretend = 0, frame = 0
 1437              		@ frame_needed = 1, uses_anonymous_args = 0
 1438              		@ link register save eliminated.
 1439 0000 80B4     		push	{r7}
 1440              		.cfi_def_cfa_offset 4
 1441              		.cfi_offset 7, -4
 1442 0002 00AF     		add	r7, sp, #0
 1443              		.cfi_def_cfa_register 7
 364:..\src/utils.c ****     // Set right number of ADC channels to sample according to chosen flags
 365:..\src/utils.c ****     
 366:..\src/utils.c ****     NUM_OF_ANALOG_INPUTS = 4;       // Voltage_Sense_1
 1444              		.loc 1 366 0
 1445 0004 034B     		ldr	r3, .L71
 1446 0006 0422     		movs	r2, #4
 1447 0008 1A70     		strb	r2, [r3]
ARM GAS  C:\Users\mgnocco\AppData\Local\Temp\ccOXEsk0.s 			page 33


 367:..\src/utils.c ****                                     // Current_Sense_1
 368:..\src/utils.c ****                                     // EMG_A
 369:..\src/utils.c ****                                     // EMG_B
 370:..\src/utils.c **** 
 371:..\src/utils.c **** #ifdef GENERIC_FW    
 372:..\src/utils.c ****     if (c_mem.dev.use_2nd_motor_flag == TRUE){
 373:..\src/utils.c ****         // add 2nd power
 374:..\src/utils.c ****         NUM_OF_ANALOG_INPUTS = 6;   // Voltage_Sense_2
 375:..\src/utils.c ****                                     // Current_Sense_2
 376:..\src/utils.c ****     }
 377:..\src/utils.c ****     
 378:..\src/utils.c ****     if (c_mem.exp.read_ADC_sensors_port_flag == TRUE){
 379:..\src/utils.c ****         // add all emg channels
 380:..\src/utils.c ****         NUM_OF_ANALOG_INPUTS = 12;  // EMG_1
 381:..\src/utils.c ****                                     // EMG_2
 382:..\src/utils.c ****                                     // EMG_3
 383:..\src/utils.c ****                                     // EMG_4
 384:..\src/utils.c ****                                     // EMG_5
 385:..\src/utils.c ****                                     // EMG_6
 386:..\src/utils.c ****     }
 387:..\src/utils.c **** #endif
 388:..\src/utils.c **** 
 389:..\src/utils.c ****     
 390:..\src/utils.c ****     
 391:..\src/utils.c **** }
 1448              		.loc 1 391 0
 1449 000a 00BF     		nop
 1450 000c BD46     		mov	sp, r7
 1451              		.cfi_def_cfa_register 13
 1452              		@ sp needed
 1453 000e 80BC     		pop	{r7}
 1454              		.cfi_restore 7
 1455              		.cfi_def_cfa_offset 0
 1456 0010 7047     		bx	lr
 1457              	.L72:
 1458 0012 00BF     		.align	2
 1459              	.L71:
 1460 0014 00000000 		.word	NUM_OF_ANALOG_INPUTS
 1461              		.cfi_endproc
 1462              	.LFE73:
 1463              		.size	ADC_Set_N_Channels, .-ADC_Set_N_Channels
 1464              		.section	.text.enable_motor,"ax",%progbits
 1465              		.align	2
 1466              		.global	enable_motor
 1467              		.thumb
 1468              		.thumb_func
 1469              		.type	enable_motor, %function
 1470              	enable_motor:
 1471              	.LFB74:
 392:..\src/utils.c **** 
 393:..\src/utils.c **** //==============================================================================
 394:..\src/utils.c **** //                                                                  ENABLE MOTOR
 395:..\src/utils.c **** //==============================================================================
 396:..\src/utils.c **** void enable_motor(uint8 idx, uint8 val){
 1472              		.loc 1 396 0
 1473              		.cfi_startproc
 1474              		@ args = 0, pretend = 0, frame = 8
ARM GAS  C:\Users\mgnocco\AppData\Local\Temp\ccOXEsk0.s 			page 34


 1475              		@ frame_needed = 1, uses_anonymous_args = 0
 1476 0000 80B5     		push	{r7, lr}
 1477              		.cfi_def_cfa_offset 8
 1478              		.cfi_offset 7, -8
 1479              		.cfi_offset 14, -4
 1480 0002 82B0     		sub	sp, sp, #8
 1481              		.cfi_def_cfa_offset 16
 1482 0004 00AF     		add	r7, sp, #0
 1483              		.cfi_def_cfa_register 7
 1484 0006 0346     		mov	r3, r0
 1485 0008 0A46     		mov	r2, r1
 1486 000a FB71     		strb	r3, [r7, #7]
 1487 000c 1346     		mov	r3, r2
 1488 000e BB71     		strb	r3, [r7, #6]
 397:..\src/utils.c ****     // Enables motor idx, according to val value
 398:..\src/utils.c ****     idx=idx;
 399:..\src/utils.c ****         MOTOR_ON_OFF_1_Write(val);
 1489              		.loc 1 399 0
 1490 0010 BB79     		ldrb	r3, [r7, #6]	@ zero_extendqisi2
 1491 0012 1846     		mov	r0, r3
 1492 0014 FFF7FEFF 		bl	MOTOR_ON_OFF_1_Write
 400:..\src/utils.c ****    }
 1493              		.loc 1 400 0
 1494 0018 00BF     		nop
 1495 001a 0837     		adds	r7, r7, #8
 1496              		.cfi_def_cfa_offset 8
 1497 001c BD46     		mov	sp, r7
 1498              		.cfi_def_cfa_register 13
 1499              		@ sp needed
 1500 001e 80BD     		pop	{r7, pc}
 1501              		.cfi_endproc
 1502              	.LFE74:
 1503              		.size	enable_motor, .-enable_motor
 1504              		.section	.text.reset_counters,"ax",%progbits
 1505              		.align	2
 1506              		.global	reset_counters
 1507              		.thumb
 1508              		.thumb_func
 1509              		.type	reset_counters, %function
 1510              	reset_counters:
 1511              	.LFB75:
 401:..\src/utils.c **** 
 402:..\src/utils.c **** 
 403:..\src/utils.c **** 
 404:..\src/utils.c **** //==============================================================================
 405:..\src/utils.c **** //                                                              RESET COUNTERS
 406:..\src/utils.c **** //==============================================================================
 407:..\src/utils.c **** void reset_counters() {
 1512              		.loc 1 407 0
 1513              		.cfi_startproc
 1514              		@ args = 0, pretend = 0, frame = 8
 1515              		@ frame_needed = 1, uses_anonymous_args = 0
 1516              		@ link register save eliminated.
 1517 0000 80B4     		push	{r7}
 1518              		.cfi_def_cfa_offset 4
 1519              		.cfi_offset 7, -4
 1520 0002 83B0     		sub	sp, sp, #12
ARM GAS  C:\Users\mgnocco\AppData\Local\Temp\ccOXEsk0.s 			page 35


 1521              		.cfi_def_cfa_offset 16
 1522 0004 00AF     		add	r7, sp, #0
 1523              		.cfi_def_cfa_register 7
 408:..\src/utils.c ****     uint8 i;
 409:..\src/utils.c ****     
 410:..\src/utils.c ****     // Initialize counters        
 411:..\src/utils.c ****     g_mem.cnt.emg_act_counter[0] = g_mem.cnt.emg_act_counter[1] = 0;
 1524              		.loc 1 411 0
 1525 0006 234B     		ldr	r3, .L79
 1526 0008 0022     		movs	r2, #0
 1527 000a 5A61     		str	r2, [r3, #20]
 1528 000c 214B     		ldr	r3, .L79
 1529 000e 5B69     		ldr	r3, [r3, #20]
 1530 0010 204A     		ldr	r2, .L79
 1531 0012 1361     		str	r3, [r2, #16]
 412:..\src/utils.c ****     for(i = 0; i< 10; i++){
 1532              		.loc 1 412 0
 1533 0014 0023     		movs	r3, #0
 1534 0016 FB71     		strb	r3, [r7, #7]
 1535 0018 08E0     		b	.L75
 1536              	.L76:
 413:..\src/utils.c ****         g_mem.cnt.position_hist[i] = 0;
 1537              		.loc 1 413 0 discriminator 3
 1538 001a FB79     		ldrb	r3, [r7, #7]	@ zero_extendqisi2
 1539 001c 1D4A     		ldr	r2, .L79
 1540 001e 0633     		adds	r3, r3, #6
 1541 0020 0021     		movs	r1, #0
 1542 0022 42F82310 		str	r1, [r2, r3, lsl #2]
 412:..\src/utils.c ****     for(i = 0; i< 10; i++){
 1543              		.loc 1 412 0 discriminator 3
 1544 0026 FB79     		ldrb	r3, [r7, #7]	@ zero_extendqisi2
 1545 0028 0133     		adds	r3, r3, #1
 1546 002a FB71     		strb	r3, [r7, #7]
 1547              	.L75:
 412:..\src/utils.c ****     for(i = 0; i< 10; i++){
 1548              		.loc 1 412 0 is_stmt 0 discriminator 1
 1549 002c FB79     		ldrb	r3, [r7, #7]	@ zero_extendqisi2
 1550 002e 092B     		cmp	r3, #9
 1551 0030 F3D9     		bls	.L76
 414:..\src/utils.c ****     }
 415:..\src/utils.c ****     for(i = 0; i< 4; i++){
 1552              		.loc 1 415 0 is_stmt 1
 1553 0032 0023     		movs	r3, #0
 1554 0034 FB71     		strb	r3, [r7, #7]
 1555 0036 08E0     		b	.L77
 1556              	.L78:
 416:..\src/utils.c ****         g_mem.cnt.current_hist[i] = 0;
 1557              		.loc 1 416 0 discriminator 3
 1558 0038 FB79     		ldrb	r3, [r7, #7]	@ zero_extendqisi2
 1559 003a 164A     		ldr	r2, .L79
 1560 003c 1033     		adds	r3, r3, #16
 1561 003e 0021     		movs	r1, #0
 1562 0040 42F82310 		str	r1, [r2, r3, lsl #2]
 415:..\src/utils.c ****         g_mem.cnt.current_hist[i] = 0;
 1563              		.loc 1 415 0 discriminator 3
 1564 0044 FB79     		ldrb	r3, [r7, #7]	@ zero_extendqisi2
 1565 0046 0133     		adds	r3, r3, #1
ARM GAS  C:\Users\mgnocco\AppData\Local\Temp\ccOXEsk0.s 			page 36


 1566 0048 FB71     		strb	r3, [r7, #7]
 1567              	.L77:
 415:..\src/utils.c ****         g_mem.cnt.current_hist[i] = 0;
 1568              		.loc 1 415 0 is_stmt 0 discriminator 1
 1569 004a FB79     		ldrb	r3, [r7, #7]	@ zero_extendqisi2
 1570 004c 032B     		cmp	r3, #3
 1571 004e F3D9     		bls	.L78
 417:..\src/utils.c ****     }
 418:..\src/utils.c ****     g_mem.cnt.rest_counter = 0;
 1572              		.loc 1 418 0 is_stmt 1
 1573 0050 104B     		ldr	r3, .L79
 1574 0052 0022     		movs	r2, #0
 1575 0054 1A65     		str	r2, [r3, #80]
 419:..\src/utils.c ****     g_mem.cnt.wire_disp = 0;
 1576              		.loc 1 419 0
 1577 0056 0F4B     		ldr	r3, .L79
 1578 0058 0022     		movs	r2, #0
 1579 005a 5A65     		str	r2, [r3, #84]
 420:..\src/utils.c ****     g_mem.cnt.total_runtime = 0;
 1580              		.loc 1 420 0
 1581 005c 0D4B     		ldr	r3, .L79
 1582 005e 0022     		movs	r2, #0
 1583 0060 9A65     		str	r2, [r3, #88]
 421:..\src/utils.c ****     g_mem.cnt.total_time_rest = 0; 
 1584              		.loc 1 421 0
 1585 0062 0C4B     		ldr	r3, .L79
 1586 0064 0022     		movs	r2, #0
 1587 0066 DA65     		str	r2, [r3, #92]
 422:..\src/utils.c ****     g_mem.cnt.power_cycles = 0;
 1588              		.loc 1 422 0
 1589 0068 0A4B     		ldr	r3, .L79
 1590 006a 0022     		movs	r2, #0
 1591 006c 1A66     		str	r2, [r3, #96]
 423:..\src/utils.c ****     g_mem.cnt.excessive_signal_activity[0] = g_mem.cnt.excessive_signal_activity[1] = 0;
 1592              		.loc 1 423 0
 1593 006e 094B     		ldr	r3, .L79
 1594 0070 0022     		movs	r2, #0
 1595 0072 9A66     		str	r2, [r3, #104]
 1596 0074 074B     		ldr	r3, .L79
 1597 0076 9B6E     		ldr	r3, [r3, #104]
 1598 0078 064A     		ldr	r2, .L79
 1599 007a 5366     		str	r3, [r2, #100]
 424:..\src/utils.c ****     g_mem.cnt.motion_counter[0] = g_mem.cnt.motion_counter[1] = 0;
 1600              		.loc 1 424 0
 1601 007c 054B     		ldr	r3, .L79
 1602 007e 0022     		movs	r2, #0
 1603 0080 1A67     		str	r2, [r3, #112]
 1604 0082 044B     		ldr	r3, .L79
 1605 0084 1B6F     		ldr	r3, [r3, #112]
 1606 0086 034A     		ldr	r2, .L79
 1607 0088 D366     		str	r3, [r2, #108]
 425:..\src/utils.c **** }
 1608              		.loc 1 425 0
 1609 008a 00BF     		nop
 1610 008c 0C37     		adds	r7, r7, #12
 1611              		.cfi_def_cfa_offset 4
 1612 008e BD46     		mov	sp, r7
ARM GAS  C:\Users\mgnocco\AppData\Local\Temp\ccOXEsk0.s 			page 37


 1613              		.cfi_def_cfa_register 13
 1614              		@ sp needed
 1615 0090 80BC     		pop	{r7}
 1616              		.cfi_restore 7
 1617              		.cfi_def_cfa_offset 0
 1618 0092 7047     		bx	lr
 1619              	.L80:
 1620              		.align	2
 1621              	.L79:
 1622 0094 00000000 		.word	g_mem
 1623              		.cfi_endproc
 1624              	.LFE75:
 1625              		.size	reset_counters, .-reset_counters
 1626              		.global	__aeabi_fsub
 1627              		.section	.text.invSqrt,"ax",%progbits
 1628              		.align	2
 1629              		.global	invSqrt
 1630              		.thumb
 1631              		.thumb_func
 1632              		.type	invSqrt, %function
 1633              	invSqrt:
 1634              	.LFB76:
 426:..\src/utils.c **** 
 427:..\src/utils.c **** 
 428:..\src/utils.c **** //==============================================================================
 429:..\src/utils.c **** //                                                                       INVSQRT
 430:..\src/utils.c **** //==============================================================================
 431:..\src/utils.c **** float invSqrt(float x) {
 1635              		.loc 1 431 0
 1636              		.cfi_startproc
 1637              		@ args = 0, pretend = 0, frame = 24
 1638              		@ frame_needed = 1, uses_anonymous_args = 0
 1639 0000 80B5     		push	{r7, lr}
 1640              		.cfi_def_cfa_offset 8
 1641              		.cfi_offset 7, -8
 1642              		.cfi_offset 14, -4
 1643 0002 86B0     		sub	sp, sp, #24
 1644              		.cfi_def_cfa_offset 32
 1645 0004 00AF     		add	r7, sp, #0
 1646              		.cfi_def_cfa_register 7
 1647 0006 7860     		str	r0, [r7, #4]	@ float
 432:..\src/utils.c **** 	float halfx = 0.5f * x;
 1648              		.loc 1 432 0
 1649 0008 4FF07C51 		mov	r1, #1056964608
 1650 000c 7868     		ldr	r0, [r7, #4]	@ float
 1651 000e FFF7FEFF 		bl	__aeabi_fmul
 1652 0012 0346     		mov	r3, r0
 1653 0014 7B61     		str	r3, [r7, #20]	@ float
 433:..\src/utils.c **** 	float y = x;
 1654              		.loc 1 433 0
 1655 0016 7B68     		ldr	r3, [r7, #4]	@ float
 1656 0018 3B61     		str	r3, [r7, #16]	@ float
 434:..\src/utils.c **** 	long i = *(long*)&y;
 1657              		.loc 1 434 0
 1658 001a 07F11003 		add	r3, r7, #16
 1659 001e 1B68     		ldr	r3, [r3]
 1660 0020 FB60     		str	r3, [r7, #12]
ARM GAS  C:\Users\mgnocco\AppData\Local\Temp\ccOXEsk0.s 			page 38


 435:..\src/utils.c **** 	i = 0x5f3759df - (i>>1);
 1661              		.loc 1 435 0
 1662 0022 FB68     		ldr	r3, [r7, #12]
 1663 0024 5A10     		asrs	r2, r3, #1
 1664 0026 134B     		ldr	r3, .L83
 1665 0028 9B1A     		subs	r3, r3, r2
 1666 002a FB60     		str	r3, [r7, #12]
 436:..\src/utils.c **** 	y = *(float*)&i;
 1667              		.loc 1 436 0
 1668 002c 07F10C03 		add	r3, r7, #12
 1669 0030 1B68     		ldr	r3, [r3]	@ float
 1670 0032 3B61     		str	r3, [r7, #16]	@ float
 437:..\src/utils.c **** 	y = y * (1.5f - (halfx * y * y));
 1671              		.loc 1 437 0
 1672 0034 3B69     		ldr	r3, [r7, #16]	@ float
 1673 0036 7969     		ldr	r1, [r7, #20]	@ float
 1674 0038 1846     		mov	r0, r3
 1675 003a FFF7FEFF 		bl	__aeabi_fmul
 1676 003e 0346     		mov	r3, r0
 1677 0040 1A46     		mov	r2, r3
 1678 0042 3B69     		ldr	r3, [r7, #16]	@ float
 1679 0044 1946     		mov	r1, r3
 1680 0046 1046     		mov	r0, r2
 1681 0048 FFF7FEFF 		bl	__aeabi_fmul
 1682 004c 0346     		mov	r3, r0
 1683 004e 1946     		mov	r1, r3
 1684 0050 4FF07F50 		mov	r0, #1069547520
 1685 0054 FFF7FEFF 		bl	__aeabi_fsub
 1686 0058 0346     		mov	r3, r0
 1687 005a 1A46     		mov	r2, r3
 1688 005c 3B69     		ldr	r3, [r7, #16]	@ float
 1689 005e 1946     		mov	r1, r3
 1690 0060 1046     		mov	r0, r2
 1691 0062 FFF7FEFF 		bl	__aeabi_fmul
 1692 0066 0346     		mov	r3, r0
 1693 0068 3B61     		str	r3, [r7, #16]	@ float
 438:..\src/utils.c **** 	return y;
 1694              		.loc 1 438 0
 1695 006a 3B69     		ldr	r3, [r7, #16]	@ float
 439:..\src/utils.c **** }
 1696              		.loc 1 439 0
 1697 006c 1846     		mov	r0, r3
 1698 006e 1837     		adds	r7, r7, #24
 1699              		.cfi_def_cfa_offset 8
 1700 0070 BD46     		mov	sp, r7
 1701              		.cfi_def_cfa_register 13
 1702              		@ sp needed
 1703 0072 80BD     		pop	{r7, pc}
 1704              	.L84:
 1705              		.align	2
 1706              	.L83:
 1707 0074 DF59375F 		.word	1597463007
 1708              		.cfi_endproc
 1709              	.LFE76:
 1710              		.size	invSqrt, .-invSqrt
 1711              		.section	.text.v3_normalize,"ax",%progbits
 1712              		.align	2
ARM GAS  C:\Users\mgnocco\AppData\Local\Temp\ccOXEsk0.s 			page 39


 1713              		.global	v3_normalize
 1714              		.thumb
 1715              		.thumb_func
 1716              		.type	v3_normalize, %function
 1717              	v3_normalize:
 1718              	.LFB77:
 440:..\src/utils.c **** 
 441:..\src/utils.c **** //==============================================================================
 442:..\src/utils.c **** //                                                                  V3_NORMALIZE
 443:..\src/utils.c **** //==============================================================================
 444:..\src/utils.c **** void v3_normalize(float v3_in[3]){
 1719              		.loc 1 444 0
 1720              		.cfi_startproc
 1721              		@ args = 0, pretend = 0, frame = 16
 1722              		@ frame_needed = 1, uses_anonymous_args = 0
 1723 0000 90B5     		push	{r4, r7, lr}
 1724              		.cfi_def_cfa_offset 12
 1725              		.cfi_offset 4, -12
 1726              		.cfi_offset 7, -8
 1727              		.cfi_offset 14, -4
 1728 0002 85B0     		sub	sp, sp, #20
 1729              		.cfi_def_cfa_offset 32
 1730 0004 00AF     		add	r7, sp, #0
 1731              		.cfi_def_cfa_register 7
 1732 0006 7860     		str	r0, [r7, #4]
 445:..\src/utils.c ****     // Vector 3 normalization
 446:..\src/utils.c ****     float norm = invSqrt(v3_in[0] * v3_in[0] + v3_in[1] * v3_in[1] + v3_in[2] * v3_in[2]);
 1733              		.loc 1 446 0
 1734 0008 7B68     		ldr	r3, [r7, #4]
 1735 000a 1A68     		ldr	r2, [r3]	@ float
 1736 000c 7B68     		ldr	r3, [r7, #4]
 1737 000e 1B68     		ldr	r3, [r3]	@ float
 1738 0010 1946     		mov	r1, r3
 1739 0012 1046     		mov	r0, r2
 1740 0014 FFF7FEFF 		bl	__aeabi_fmul
 1741 0018 0346     		mov	r3, r0
 1742 001a 1C46     		mov	r4, r3
 1743 001c 7B68     		ldr	r3, [r7, #4]
 1744 001e 0433     		adds	r3, r3, #4
 1745 0020 1A68     		ldr	r2, [r3]	@ float
 1746 0022 7B68     		ldr	r3, [r7, #4]
 1747 0024 0433     		adds	r3, r3, #4
 1748 0026 1B68     		ldr	r3, [r3]	@ float
 1749 0028 1946     		mov	r1, r3
 1750 002a 1046     		mov	r0, r2
 1751 002c FFF7FEFF 		bl	__aeabi_fmul
 1752 0030 0346     		mov	r3, r0
 1753 0032 1946     		mov	r1, r3
 1754 0034 2046     		mov	r0, r4
 1755 0036 FFF7FEFF 		bl	__aeabi_fadd
 1756 003a 0346     		mov	r3, r0
 1757 003c 1C46     		mov	r4, r3
 1758 003e 7B68     		ldr	r3, [r7, #4]
 1759 0040 0833     		adds	r3, r3, #8
 1760 0042 1A68     		ldr	r2, [r3]	@ float
 1761 0044 7B68     		ldr	r3, [r7, #4]
 1762 0046 0833     		adds	r3, r3, #8
ARM GAS  C:\Users\mgnocco\AppData\Local\Temp\ccOXEsk0.s 			page 40


 1763 0048 1B68     		ldr	r3, [r3]	@ float
 1764 004a 1946     		mov	r1, r3
 1765 004c 1046     		mov	r0, r2
 1766 004e FFF7FEFF 		bl	__aeabi_fmul
 1767 0052 0346     		mov	r3, r0
 1768 0054 1946     		mov	r1, r3
 1769 0056 2046     		mov	r0, r4
 1770 0058 FFF7FEFF 		bl	__aeabi_fadd
 1771 005c 0346     		mov	r3, r0
 1772 005e 1846     		mov	r0, r3
 1773 0060 FFF7FEFF 		bl	invSqrt
 1774 0064 F860     		str	r0, [r7, #12]	@ float
 447:..\src/utils.c ****     
 448:..\src/utils.c ****     v3_in[0] = v3_in[0]*norm;
 1775              		.loc 1 448 0
 1776 0066 7B68     		ldr	r3, [r7, #4]
 1777 0068 1B68     		ldr	r3, [r3]	@ float
 1778 006a F968     		ldr	r1, [r7, #12]	@ float
 1779 006c 1846     		mov	r0, r3
 1780 006e FFF7FEFF 		bl	__aeabi_fmul
 1781 0072 0346     		mov	r3, r0
 1782 0074 1A46     		mov	r2, r3
 1783 0076 7B68     		ldr	r3, [r7, #4]
 1784 0078 1A60     		str	r2, [r3]	@ float
 449:..\src/utils.c ****     v3_in[1] = v3_in[1]*norm;
 1785              		.loc 1 449 0
 1786 007a 7B68     		ldr	r3, [r7, #4]
 1787 007c 1C1D     		adds	r4, r3, #4
 1788 007e 7B68     		ldr	r3, [r7, #4]
 1789 0080 0433     		adds	r3, r3, #4
 1790 0082 1B68     		ldr	r3, [r3]	@ float
 1791 0084 F968     		ldr	r1, [r7, #12]	@ float
 1792 0086 1846     		mov	r0, r3
 1793 0088 FFF7FEFF 		bl	__aeabi_fmul
 1794 008c 0346     		mov	r3, r0
 1795 008e 2360     		str	r3, [r4]	@ float
 450:..\src/utils.c ****     v3_in[2] = v3_in[2]*norm;
 1796              		.loc 1 450 0
 1797 0090 7B68     		ldr	r3, [r7, #4]
 1798 0092 03F10804 		add	r4, r3, #8
 1799 0096 7B68     		ldr	r3, [r7, #4]
 1800 0098 0833     		adds	r3, r3, #8
 1801 009a 1B68     		ldr	r3, [r3]	@ float
 1802 009c F968     		ldr	r1, [r7, #12]	@ float
 1803 009e 1846     		mov	r0, r3
 1804 00a0 FFF7FEFF 		bl	__aeabi_fmul
 1805 00a4 0346     		mov	r3, r0
 1806 00a6 2360     		str	r3, [r4]	@ float
 451:..\src/utils.c **** }
 1807              		.loc 1 451 0
 1808 00a8 00BF     		nop
 1809 00aa 1437     		adds	r7, r7, #20
 1810              		.cfi_def_cfa_offset 12
 1811 00ac BD46     		mov	sp, r7
 1812              		.cfi_def_cfa_register 13
 1813              		@ sp needed
 1814 00ae 90BD     		pop	{r4, r7, pc}
ARM GAS  C:\Users\mgnocco\AppData\Local\Temp\ccOXEsk0.s 			page 41


 1815              		.cfi_endproc
 1816              	.LFE77:
 1817              		.size	v3_normalize, .-v3_normalize
 1818              		.section	.text.v4_normalize,"ax",%progbits
 1819              		.align	2
 1820              		.global	v4_normalize
 1821              		.thumb
 1822              		.thumb_func
 1823              		.type	v4_normalize, %function
 1824              	v4_normalize:
 1825              	.LFB78:
 452:..\src/utils.c ****  
 453:..\src/utils.c **** //==============================================================================
 454:..\src/utils.c **** //                                                                  V4_NORMALIZE
 455:..\src/utils.c **** //==============================================================================
 456:..\src/utils.c **** void v4_normalize(float v4_in[4]){
 1826              		.loc 1 456 0
 1827              		.cfi_startproc
 1828              		@ args = 0, pretend = 0, frame = 16
 1829              		@ frame_needed = 1, uses_anonymous_args = 0
 1830 0000 90B5     		push	{r4, r7, lr}
 1831              		.cfi_def_cfa_offset 12
 1832              		.cfi_offset 4, -12
 1833              		.cfi_offset 7, -8
 1834              		.cfi_offset 14, -4
 1835 0002 85B0     		sub	sp, sp, #20
 1836              		.cfi_def_cfa_offset 32
 1837 0004 00AF     		add	r7, sp, #0
 1838              		.cfi_def_cfa_register 7
 1839 0006 7860     		str	r0, [r7, #4]
 457:..\src/utils.c ****     // Vector 4 normalization
 458:..\src/utils.c ****     float norm = invSqrt(v4_in[0] * v4_in[0] + v4_in[1] * v4_in[1] + v4_in[2] * v4_in[2] + v4_in[3]
 1840              		.loc 1 458 0
 1841 0008 7B68     		ldr	r3, [r7, #4]
 1842 000a 1A68     		ldr	r2, [r3]	@ float
 1843 000c 7B68     		ldr	r3, [r7, #4]
 1844 000e 1B68     		ldr	r3, [r3]	@ float
 1845 0010 1946     		mov	r1, r3
 1846 0012 1046     		mov	r0, r2
 1847 0014 FFF7FEFF 		bl	__aeabi_fmul
 1848 0018 0346     		mov	r3, r0
 1849 001a 1C46     		mov	r4, r3
 1850 001c 7B68     		ldr	r3, [r7, #4]
 1851 001e 0433     		adds	r3, r3, #4
 1852 0020 1A68     		ldr	r2, [r3]	@ float
 1853 0022 7B68     		ldr	r3, [r7, #4]
 1854 0024 0433     		adds	r3, r3, #4
 1855 0026 1B68     		ldr	r3, [r3]	@ float
 1856 0028 1946     		mov	r1, r3
 1857 002a 1046     		mov	r0, r2
 1858 002c FFF7FEFF 		bl	__aeabi_fmul
 1859 0030 0346     		mov	r3, r0
 1860 0032 1946     		mov	r1, r3
 1861 0034 2046     		mov	r0, r4
 1862 0036 FFF7FEFF 		bl	__aeabi_fadd
 1863 003a 0346     		mov	r3, r0
 1864 003c 1C46     		mov	r4, r3
ARM GAS  C:\Users\mgnocco\AppData\Local\Temp\ccOXEsk0.s 			page 42


 1865 003e 7B68     		ldr	r3, [r7, #4]
 1866 0040 0833     		adds	r3, r3, #8
 1867 0042 1A68     		ldr	r2, [r3]	@ float
 1868 0044 7B68     		ldr	r3, [r7, #4]
 1869 0046 0833     		adds	r3, r3, #8
 1870 0048 1B68     		ldr	r3, [r3]	@ float
 1871 004a 1946     		mov	r1, r3
 1872 004c 1046     		mov	r0, r2
 1873 004e FFF7FEFF 		bl	__aeabi_fmul
 1874 0052 0346     		mov	r3, r0
 1875 0054 1946     		mov	r1, r3
 1876 0056 2046     		mov	r0, r4
 1877 0058 FFF7FEFF 		bl	__aeabi_fadd
 1878 005c 0346     		mov	r3, r0
 1879 005e 1C46     		mov	r4, r3
 1880 0060 7B68     		ldr	r3, [r7, #4]
 1881 0062 0C33     		adds	r3, r3, #12
 1882 0064 1A68     		ldr	r2, [r3]	@ float
 1883 0066 7B68     		ldr	r3, [r7, #4]
 1884 0068 0C33     		adds	r3, r3, #12
 1885 006a 1B68     		ldr	r3, [r3]	@ float
 1886 006c 1946     		mov	r1, r3
 1887 006e 1046     		mov	r0, r2
 1888 0070 FFF7FEFF 		bl	__aeabi_fmul
 1889 0074 0346     		mov	r3, r0
 1890 0076 1946     		mov	r1, r3
 1891 0078 2046     		mov	r0, r4
 1892 007a FFF7FEFF 		bl	__aeabi_fadd
 1893 007e 0346     		mov	r3, r0
 1894 0080 1846     		mov	r0, r3
 1895 0082 FFF7FEFF 		bl	invSqrt
 1896 0086 F860     		str	r0, [r7, #12]	@ float
 459:..\src/utils.c ****     
 460:..\src/utils.c ****     v4_in[0] = v4_in[0]*norm;
 1897              		.loc 1 460 0
 1898 0088 7B68     		ldr	r3, [r7, #4]
 1899 008a 1B68     		ldr	r3, [r3]	@ float
 1900 008c F968     		ldr	r1, [r7, #12]	@ float
 1901 008e 1846     		mov	r0, r3
 1902 0090 FFF7FEFF 		bl	__aeabi_fmul
 1903 0094 0346     		mov	r3, r0
 1904 0096 1A46     		mov	r2, r3
 1905 0098 7B68     		ldr	r3, [r7, #4]
 1906 009a 1A60     		str	r2, [r3]	@ float
 461:..\src/utils.c ****     v4_in[1] = v4_in[1]*norm;
 1907              		.loc 1 461 0
 1908 009c 7B68     		ldr	r3, [r7, #4]
 1909 009e 1C1D     		adds	r4, r3, #4
 1910 00a0 7B68     		ldr	r3, [r7, #4]
 1911 00a2 0433     		adds	r3, r3, #4
 1912 00a4 1B68     		ldr	r3, [r3]	@ float
 1913 00a6 F968     		ldr	r1, [r7, #12]	@ float
 1914 00a8 1846     		mov	r0, r3
 1915 00aa FFF7FEFF 		bl	__aeabi_fmul
 1916 00ae 0346     		mov	r3, r0
 1917 00b0 2360     		str	r3, [r4]	@ float
 462:..\src/utils.c ****     v4_in[2] = v4_in[2]*norm;
ARM GAS  C:\Users\mgnocco\AppData\Local\Temp\ccOXEsk0.s 			page 43


 1918              		.loc 1 462 0
 1919 00b2 7B68     		ldr	r3, [r7, #4]
 1920 00b4 03F10804 		add	r4, r3, #8
 1921 00b8 7B68     		ldr	r3, [r7, #4]
 1922 00ba 0833     		adds	r3, r3, #8
 1923 00bc 1B68     		ldr	r3, [r3]	@ float
 1924 00be F968     		ldr	r1, [r7, #12]	@ float
 1925 00c0 1846     		mov	r0, r3
 1926 00c2 FFF7FEFF 		bl	__aeabi_fmul
 1927 00c6 0346     		mov	r3, r0
 1928 00c8 2360     		str	r3, [r4]	@ float
 463:..\src/utils.c ****     v4_in[3] = v4_in[3]*norm;
 1929              		.loc 1 463 0
 1930 00ca 7B68     		ldr	r3, [r7, #4]
 1931 00cc 03F10C04 		add	r4, r3, #12
 1932 00d0 7B68     		ldr	r3, [r7, #4]
 1933 00d2 0C33     		adds	r3, r3, #12
 1934 00d4 1B68     		ldr	r3, [r3]	@ float
 1935 00d6 F968     		ldr	r1, [r7, #12]	@ float
 1936 00d8 1846     		mov	r0, r3
 1937 00da FFF7FEFF 		bl	__aeabi_fmul
 1938 00de 0346     		mov	r3, r0
 1939 00e0 2360     		str	r3, [r4]	@ float
 464:..\src/utils.c **** }
 1940              		.loc 1 464 0
 1941 00e2 00BF     		nop
 1942 00e4 1437     		adds	r7, r7, #20
 1943              		.cfi_def_cfa_offset 12
 1944 00e6 BD46     		mov	sp, r7
 1945              		.cfi_def_cfa_register 13
 1946              		@ sp needed
 1947 00e8 90BD     		pop	{r4, r7, pc}
 1948              		.cfi_endproc
 1949              	.LFE78:
 1950              		.size	v4_normalize, .-v4_normalize
 1951 00ea 00BF     		.section	.text.update_EMG_history,"ax",%progbits
 1952              		.align	2
 1953              		.global	update_EMG_history
 1954              		.thumb
 1955              		.thumb_func
 1956              		.type	update_EMG_history, %function
 1957              	update_EMG_history:
 1958              	.LFB79:
 465:..\src/utils.c **** 
 466:..\src/utils.c **** //==============================================================================
 467:..\src/utils.c **** //                                                            UPDATE_EMG_HISTORY
 468:..\src/utils.c **** //==============================================================================
 469:..\src/utils.c **** void update_EMG_history(){
 1959              		.loc 1 469 0
 1960              		.cfi_startproc
 1961              		@ args = 0, pretend = 0, frame = 16
 1962              		@ frame_needed = 1, uses_anonymous_args = 0
 1963 0000 80B5     		push	{r7, lr}
 1964              		.cfi_def_cfa_offset 8
 1965              		.cfi_offset 7, -8
 1966              		.cfi_offset 14, -4
 1967 0002 84B0     		sub	sp, sp, #16
ARM GAS  C:\Users\mgnocco\AppData\Local\Temp\ccOXEsk0.s 			page 44


 1968              		.cfi_def_cfa_offset 24
 1969 0004 00AF     		add	r7, sp, #0
 1970              		.cfi_def_cfa_register 7
 470:..\src/utils.c ****     
 471:..\src/utils.c ****     static int32 last_counter_value = 6000;
 472:..\src/utils.c ****     
 473:..\src/utils.c ****     uint32 current_counter_value = (uint32)CYCLES_TIMER_ReadCounter();
 1971              		.loc 1 473 0
 1972 0006 FFF7FEFF 		bl	CYCLES_TIMER_ReadCounter
 1973 000a 0346     		mov	r3, r0
 1974 000c BB60     		str	r3, [r7, #8]
 474:..\src/utils.c ****     int32 counter_diff = last_counter_value - current_counter_value;
 1975              		.loc 1 474 0
 1976 000e 1C4B     		ldr	r3, .L93
 1977 0010 1B68     		ldr	r3, [r3]
 1978 0012 1A46     		mov	r2, r3
 1979 0014 BB68     		ldr	r3, [r7, #8]
 1980 0016 D31A     		subs	r3, r2, r3
 1981 0018 7B60     		str	r3, [r7, #4]
 475:..\src/utils.c ****     
 476:..\src/utils.c ****     if ( counter_diff >= 10 || counter_diff <= -10 ){
 1982              		.loc 1 476 0
 1983 001a 7B68     		ldr	r3, [r7, #4]
 1984 001c 092B     		cmp	r3, #9
 1985 001e 03DC     		bgt	.L88
 1986              		.loc 1 476 0 is_stmt 0 discriminator 1
 1987 0020 7B68     		ldr	r3, [r7, #4]
 1988 0022 13F1090F 		cmn	r3, #9
 1989 0026 26DA     		bge	.L92
 1990              	.L88:
 1991              	.LBB3:
 477:..\src/utils.c ****         // Run this part only after 10 CYCLES_TIMER timer steps (50Hz timer -> 5 Hz)
 478:..\src/utils.c ****         
 479:..\src/utils.c ****         
 480:..\src/utils.c ****         for (int i = 0; i < NUM_OF_INPUT_EMGS; i++){
 1992              		.loc 1 480 0 is_stmt 1
 1993 0028 0023     		movs	r3, #0
 1994 002a FB60     		str	r3, [r7, #12]
 1995 002c 10E0     		b	.L90
 1996              	.L91:
 481:..\src/utils.c ****             emg_history[emg_history_next_idx][i] = g_adc_meas.emg[i];
 1997              		.loc 1 481 0 discriminator 3
 1998 002e 154B     		ldr	r3, .L93+4
 1999 0030 1B68     		ldr	r3, [r3]
 2000 0032 1549     		ldr	r1, .L93+8
 2001 0034 FA68     		ldr	r2, [r7, #12]
 2002 0036 51F82220 		ldr	r2, [r1, r2, lsl #2]
 2003 003a 90B2     		uxth	r0, r2
 2004 003c 1349     		ldr	r1, .L93+12
 2005 003e 5A00     		lsls	r2, r3, #1
 2006 0040 FB68     		ldr	r3, [r7, #12]
 2007 0042 1344     		add	r3, r3, r2
 2008 0044 0246     		mov	r2, r0	@ movhi
 2009 0046 21F81320 		strh	r2, [r1, r3, lsl #1]	@ movhi
 480:..\src/utils.c ****             emg_history[emg_history_next_idx][i] = g_adc_meas.emg[i];
 2010              		.loc 1 480 0 discriminator 3
 2011 004a FB68     		ldr	r3, [r7, #12]
ARM GAS  C:\Users\mgnocco\AppData\Local\Temp\ccOXEsk0.s 			page 45


 2012 004c 0133     		adds	r3, r3, #1
 2013 004e FB60     		str	r3, [r7, #12]
 2014              	.L90:
 480:..\src/utils.c ****             emg_history[emg_history_next_idx][i] = g_adc_meas.emg[i];
 2015              		.loc 1 480 0 is_stmt 0 discriminator 1
 2016 0050 FB68     		ldr	r3, [r7, #12]
 2017 0052 012B     		cmp	r3, #1
 2018 0054 EBDD     		ble	.L91
 2019              	.LBE3:
 482:..\src/utils.c ****         }        
 483:..\src/utils.c ****         
 484:..\src/utils.c ****         last_counter_value = current_counter_value;
 2020              		.loc 1 484 0 is_stmt 1
 2021 0056 BB68     		ldr	r3, [r7, #8]
 2022 0058 094A     		ldr	r2, .L93
 2023 005a 1360     		str	r3, [r2]
 485:..\src/utils.c ****         
 486:..\src/utils.c ****         emg_history_next_idx++;
 2024              		.loc 1 486 0
 2025 005c 094B     		ldr	r3, .L93+4
 2026 005e 1B68     		ldr	r3, [r3]
 2027 0060 0133     		adds	r3, r3, #1
 2028 0062 084A     		ldr	r2, .L93+4
 2029 0064 1360     		str	r3, [r2]
 487:..\src/utils.c ****         if (emg_history_next_idx >= SAMPLES_FOR_EMG_HISTORY){
 2030              		.loc 1 487 0
 2031 0066 074B     		ldr	r3, .L93+4
 2032 0068 1B68     		ldr	r3, [r3]
 2033 006a B3F5167F 		cmp	r3, #600
 2034 006e 02D3     		bcc	.L92
 488:..\src/utils.c ****             emg_history_next_idx = 0;
 2035              		.loc 1 488 0
 2036 0070 044B     		ldr	r3, .L93+4
 2037 0072 0022     		movs	r2, #0
 2038 0074 1A60     		str	r2, [r3]
 2039              	.L92:
 489:..\src/utils.c ****         }
 490:..\src/utils.c ****     }
 491:..\src/utils.c **** }
 2040              		.loc 1 491 0
 2041 0076 00BF     		nop
 2042 0078 1037     		adds	r7, r7, #16
 2043              		.cfi_def_cfa_offset 8
 2044 007a BD46     		mov	sp, r7
 2045              		.cfi_def_cfa_register 13
 2046              		@ sp needed
 2047 007c 80BD     		pop	{r7, pc}
 2048              	.L94:
 2049 007e 00BF     		.align	2
 2050              	.L93:
 2051 0080 04000000 		.word	last_counter_value.9640
 2052 0084 00000000 		.word	emg_history_next_idx
 2053 0088 00000000 		.word	g_adc_meas
 2054 008c 00000000 		.word	emg_history
 2055              		.cfi_endproc
 2056              	.LFE79:
 2057              		.size	update_EMG_history, .-update_EMG_history
ARM GAS  C:\Users\mgnocco\AppData\Local\Temp\ccOXEsk0.s 			page 46


 2058              		.bss
 2059              		.align	2
 2060              	virtual_pos_friction.9546:
 2061 0000 00000000 		.space	8
 2061      00000000 
 2062              		.align	2
 2063              	err_pos_dt.9547:
 2064 0008 00000000 		.space	8
 2064      00000000 
 2065              	direction.9561:
 2066 0010 00       		.space	1
 2067 0011 00       		.align	1
 2068              	closure_counter.9562:
 2069 0012 0000     		.space	2
 2070              		.data
 2071              		.type	first_time.9589, %object
 2072              		.size	first_time.9589, 1
 2073              	first_time.9589:
 2074 0000 01       		.byte	1
 2075              		.bss
 2076              		.align	2
 2077              	count.9587:
 2078 0014 00000000 		.space	4
 2079              		.data
 2080              		.type	flag_count.9588, %object
 2081              		.size	flag_count.9588, 1
 2082              	flag_count.9588:
 2083 0001 01       		.byte	1
 2084              		.bss
 2085              		.align	2
 2086              	m.9590:
 2087 0018 00000000 		.space	4
 2088              		.align	2
 2089              	abs_err_thr.9591:
 2090 001c 00000000 		.space	4
 2091              		.align	2
 2092              	rest_error.9594:
 2093 0020 00000000 		.space	4
 2094              		.align	2
 2095              	delta_inc.9592:
 2096 0024 00000000 		.space	4
 2097              		.data
 2098 0002 0000     		.align	2
 2099              		.type	last_counter_value.9640, %object
 2100              		.size	last_counter_value.9640, 4
 2101              	last_counter_value.9640:
 2102 0004 70170000 		.word	6000
 2103              		.text
 2104              	.Letext0:
 2105              		.file 2 "c:\\program files (x86)\\cypress\\psoc creator\\4.4\\psoc creator\\import\\gnu\\arm\\5.4.
 2106              		.file 3 "c:\\program files (x86)\\cypress\\psoc creator\\4.4\\psoc creator\\import\\gnu\\arm\\5.4.
 2107              		.file 4 "Generated_Source\\PSoC5/cytypes.h"
 2108              		.file 5 "..\\src\\globals.h"
 2109              		.file 6 "Generated_Source\\PSoC5/core_cm3.h"
 2110              		.file 7 "..\\src\\commands.h"
 2111              		.section	.debug_info,"",%progbits
 2112              	.Ldebug_info0:
ARM GAS  C:\Users\mgnocco\AppData\Local\Temp\ccOXEsk0.s 			page 47


 2113 0000 2A100000 		.4byte	0x102a
 2114 0004 0400     		.2byte	0x4
 2115 0006 00000000 		.4byte	.Ldebug_abbrev0
 2116 000a 04       		.byte	0x4
 2117 000b 01       		.uleb128 0x1
 2118 000c CD000000 		.4byte	.LASF199
 2119 0010 0C       		.byte	0xc
 2120 0011 66080000 		.4byte	.LASF200
 2121 0015 4B050000 		.4byte	.LASF201
 2122 0019 00000000 		.4byte	.Ldebug_ranges0+0
 2123 001d 00000000 		.4byte	0
 2124 0021 00000000 		.4byte	.Ldebug_line0
 2125 0025 02       		.uleb128 0x2
 2126 0026 01       		.byte	0x1
 2127 0027 06       		.byte	0x6
 2128 0028 CF010000 		.4byte	.LASF0
 2129 002c 02       		.uleb128 0x2
 2130 002d 01       		.byte	0x1
 2131 002e 08       		.byte	0x8
 2132 002f E9080000 		.4byte	.LASF1
 2133 0033 02       		.uleb128 0x2
 2134 0034 02       		.byte	0x2
 2135 0035 05       		.byte	0x5
 2136 0036 1B000000 		.4byte	.LASF2
 2137 003a 02       		.uleb128 0x2
 2138 003b 02       		.byte	0x2
 2139 003c 07       		.byte	0x7
 2140 003d 3D040000 		.4byte	.LASF3
 2141 0041 03       		.uleb128 0x3
 2142 0042 14050000 		.4byte	.LASF9
 2143 0046 02       		.byte	0x2
 2144 0047 3F       		.byte	0x3f
 2145 0048 4C000000 		.4byte	0x4c
 2146 004c 02       		.uleb128 0x2
 2147 004d 04       		.byte	0x4
 2148 004e 05       		.byte	0x5
 2149 004f 19020000 		.4byte	.LASF4
 2150 0053 02       		.uleb128 0x2
 2151 0054 04       		.byte	0x4
 2152 0055 07       		.byte	0x7
 2153 0056 09080000 		.4byte	.LASF5
 2154 005a 02       		.uleb128 0x2
 2155 005b 08       		.byte	0x8
 2156 005c 05       		.byte	0x5
 2157 005d C1010000 		.4byte	.LASF6
 2158 0061 02       		.uleb128 0x2
 2159 0062 08       		.byte	0x8
 2160 0063 07       		.byte	0x7
 2161 0064 5B010000 		.4byte	.LASF7
 2162 0068 04       		.uleb128 0x4
 2163 0069 04       		.byte	0x4
 2164 006a 05       		.byte	0x5
 2165 006b 696E7400 		.ascii	"int\000"
 2166 006f 02       		.uleb128 0x2
 2167 0070 04       		.byte	0x4
 2168 0071 07       		.byte	0x7
 2169 0072 9B030000 		.4byte	.LASF8
ARM GAS  C:\Users\mgnocco\AppData\Local\Temp\ccOXEsk0.s 			page 48


 2170 0076 03       		.uleb128 0x3
 2171 0077 23070000 		.4byte	.LASF10
 2172 007b 03       		.byte	0x3
 2173 007c 2C       		.byte	0x2c
 2174 007d 41000000 		.4byte	0x41
 2175 0081 05       		.uleb128 0x5
 2176 0082 55060000 		.4byte	.LASF11
 2177 0086 04       		.byte	0x4
 2178 0087 E401     		.2byte	0x1e4
 2179 0089 2C000000 		.4byte	0x2c
 2180 008d 05       		.uleb128 0x5
 2181 008e 38030000 		.4byte	.LASF12
 2182 0092 04       		.byte	0x4
 2183 0093 E501     		.2byte	0x1e5
 2184 0095 3A000000 		.4byte	0x3a
 2185 0099 05       		.uleb128 0x5
 2186 009a D8020000 		.4byte	.LASF13
 2187 009e 04       		.byte	0x4
 2188 009f E601     		.2byte	0x1e6
 2189 00a1 53000000 		.4byte	0x53
 2190 00a5 05       		.uleb128 0x5
 2191 00a6 65040000 		.4byte	.LASF14
 2192 00aa 04       		.byte	0x4
 2193 00ab E701     		.2byte	0x1e7
 2194 00ad 25000000 		.4byte	0x25
 2195 00b1 05       		.uleb128 0x5
 2196 00b2 C1070000 		.4byte	.LASF15
 2197 00b6 04       		.byte	0x4
 2198 00b7 E801     		.2byte	0x1e8
 2199 00b9 33000000 		.4byte	0x33
 2200 00bd 05       		.uleb128 0x5
 2201 00be 08020000 		.4byte	.LASF16
 2202 00c2 04       		.byte	0x4
 2203 00c3 E901     		.2byte	0x1e9
 2204 00c5 4C000000 		.4byte	0x4c
 2205 00c9 05       		.uleb128 0x5
 2206 00ca CA050000 		.4byte	.LASF17
 2207 00ce 04       		.byte	0x4
 2208 00cf EA01     		.2byte	0x1ea
 2209 00d1 D5000000 		.4byte	0xd5
 2210 00d5 02       		.uleb128 0x2
 2211 00d6 04       		.byte	0x4
 2212 00d7 04       		.byte	0x4
 2213 00d8 F9090000 		.4byte	.LASF18
 2214 00dc 02       		.uleb128 0x2
 2215 00dd 08       		.byte	0x8
 2216 00de 04       		.byte	0x4
 2217 00df B30A0000 		.4byte	.LASF19
 2218 00e3 02       		.uleb128 0x2
 2219 00e4 01       		.byte	0x1
 2220 00e5 08       		.byte	0x8
 2221 00e6 32080000 		.4byte	.LASF20
 2222 00ea 02       		.uleb128 0x2
 2223 00eb 08       		.byte	0x8
 2224 00ec 04       		.byte	0x4
 2225 00ed FD050000 		.4byte	.LASF21
 2226 00f1 02       		.uleb128 0x2
ARM GAS  C:\Users\mgnocco\AppData\Local\Temp\ccOXEsk0.s 			page 49


 2227 00f2 04       		.byte	0x4
 2228 00f3 07       		.byte	0x7
 2229 00f4 DF050000 		.4byte	.LASF22
 2230 00f8 06       		.uleb128 0x6
 2231 00f9 E3000000 		.4byte	0xe3
 2232 00fd 08010000 		.4byte	0x108
 2233 0101 07       		.uleb128 0x7
 2234 0102 F1000000 		.4byte	0xf1
 2235 0106 07       		.byte	0x7
 2236 0107 00       		.byte	0
 2237 0108 08       		.uleb128 0x8
 2238 0109 80040000 		.4byte	.LASF202
 2239 010d 01       		.byte	0x1
 2240 010e 2C000000 		.4byte	0x2c
 2241 0112 07       		.byte	0x7
 2242 0113 8F       		.byte	0x8f
 2243 0114 49010000 		.4byte	0x149
 2244 0118 09       		.uleb128 0x9
 2245 0119 52080000 		.4byte	.LASF23
 2246 011d 00       		.byte	0
 2247 011e 09       		.uleb128 0x9
 2248 011f F2040000 		.4byte	.LASF24
 2249 0123 01       		.byte	0x1
 2250 0124 09       		.uleb128 0x9
 2251 0125 F9020000 		.4byte	.LASF25
 2252 0129 02       		.byte	0x2
 2253 012a 09       		.uleb128 0x9
 2254 012b 9D090000 		.4byte	.LASF26
 2255 012f 03       		.byte	0x3
 2256 0130 09       		.uleb128 0x9
 2257 0131 DD030000 		.4byte	.LASF27
 2258 0135 04       		.byte	0x4
 2259 0136 09       		.uleb128 0x9
 2260 0137 8E060000 		.4byte	.LASF28
 2261 013b 05       		.byte	0x5
 2262 013c 09       		.uleb128 0x9
 2263 013d 4A030000 		.4byte	.LASF29
 2264 0141 06       		.byte	0x6
 2265 0142 09       		.uleb128 0x9
 2266 0143 75090000 		.4byte	.LASF30
 2267 0147 07       		.byte	0x7
 2268 0148 00       		.byte	0
 2269 0149 0A       		.uleb128 0xa
 2270 014a A8030000 		.4byte	.LASF33
 2271 014e 10       		.byte	0x10
 2272 014f 05       		.byte	0x5
 2273 0150 E5       		.byte	0xe5
 2274 0151 86010000 		.4byte	0x186
 2275 0155 0B       		.uleb128 0xb
 2276 0156 706F7300 		.ascii	"pos\000"
 2277 015a 05       		.byte	0x5
 2278 015b E6       		.byte	0xe6
 2279 015c BD000000 		.4byte	0xbd
 2280 0160 00       		.byte	0
 2281 0161 0C       		.uleb128 0xc
 2282 0162 39070000 		.4byte	.LASF31
 2283 0166 05       		.byte	0x5
ARM GAS  C:\Users\mgnocco\AppData\Local\Temp\ccOXEsk0.s 			page 50


 2284 0167 E7       		.byte	0xe7
 2285 0168 BD000000 		.4byte	0xbd
 2286 016c 04       		.byte	0x4
 2287 016d 0B       		.uleb128 0xb
 2288 016e 70776D00 		.ascii	"pwm\000"
 2289 0172 05       		.byte	0x5
 2290 0173 E8       		.byte	0xe8
 2291 0174 BD000000 		.4byte	0xbd
 2292 0178 08       		.byte	0x8
 2293 0179 0C       		.uleb128 0xc
 2294 017a 45070000 		.4byte	.LASF32
 2295 017e 05       		.byte	0x5
 2296 017f E9       		.byte	0xe9
 2297 0180 81000000 		.4byte	0x81
 2298 0184 0C       		.byte	0xc
 2299 0185 00       		.byte	0
 2300 0186 0A       		.uleb128 0xa
 2301 0187 38000000 		.4byte	.LASF34
 2302 018b 34       		.byte	0x34
 2303 018c 05       		.byte	0x5
 2304 018d F0       		.byte	0xf0
 2305 018e E7010000 		.4byte	0x1e7
 2306 0192 0B       		.uleb128 0xb
 2307 0193 706F7300 		.ascii	"pos\000"
 2308 0197 05       		.byte	0x5
 2309 0198 F1       		.byte	0xf1
 2310 0199 E7010000 		.4byte	0x1e7
 2311 019d 00       		.byte	0
 2312 019e 0C       		.uleb128 0xc
 2313 019f 39070000 		.4byte	.LASF31
 2314 01a3 05       		.byte	0x5
 2315 01a4 F2       		.byte	0xf2
 2316 01a5 BD000000 		.4byte	0xbd
 2317 01a9 0C       		.byte	0xc
 2318 01aa 0C       		.uleb128 0xc
 2319 01ab EB010000 		.4byte	.LASF35
 2320 01af 05       		.byte	0x5
 2321 01b0 F3       		.byte	0xf3
 2322 01b1 BD000000 		.4byte	0xbd
 2323 01b5 10       		.byte	0x10
 2324 01b6 0C       		.uleb128 0xc
 2325 01b7 22020000 		.4byte	.LASF36
 2326 01bb 05       		.byte	0x5
 2327 01bc F4       		.byte	0xf4
 2328 01bd BD000000 		.4byte	0xbd
 2329 01c1 14       		.byte	0x14
 2330 01c2 0B       		.uleb128 0xb
 2331 01c3 726F7400 		.ascii	"rot\000"
 2332 01c7 05       		.byte	0x5
 2333 01c8 F5       		.byte	0xf5
 2334 01c9 F7010000 		.4byte	0x1f7
 2335 01cd 18       		.byte	0x18
 2336 01ce 0B       		.uleb128 0xb
 2337 01cf 76656C00 		.ascii	"vel\000"
 2338 01d3 05       		.byte	0x5
 2339 01d4 F6       		.byte	0xf6
 2340 01d5 E7010000 		.4byte	0x1e7
ARM GAS  C:\Users\mgnocco\AppData\Local\Temp\ccOXEsk0.s 			page 51


 2341 01d9 1C       		.byte	0x1c
 2342 01da 0B       		.uleb128 0xb
 2343 01db 61636300 		.ascii	"acc\000"
 2344 01df 05       		.byte	0x5
 2345 01e0 F7       		.byte	0xf7
 2346 01e1 E7010000 		.4byte	0x1e7
 2347 01e5 28       		.byte	0x28
 2348 01e6 00       		.byte	0
 2349 01e7 06       		.uleb128 0x6
 2350 01e8 BD000000 		.4byte	0xbd
 2351 01ec F7010000 		.4byte	0x1f7
 2352 01f0 07       		.uleb128 0x7
 2353 01f1 F1000000 		.4byte	0xf1
 2354 01f5 02       		.byte	0x2
 2355 01f6 00       		.byte	0
 2356 01f7 06       		.uleb128 0x6
 2357 01f8 A5000000 		.4byte	0xa5
 2358 01fc 07020000 		.4byte	0x207
 2359 0200 07       		.uleb128 0x7
 2360 0201 F1000000 		.4byte	0xf1
 2361 0205 02       		.byte	0x2
 2362 0206 00       		.byte	0
 2363 0207 0A       		.uleb128 0xa
 2364 0208 DB070000 		.4byte	.LASF37
 2365 020c 28       		.byte	0x28
 2366 020d 05       		.byte	0x5
 2367 020e FA       		.byte	0xfa
 2368 020f 38020000 		.4byte	0x238
 2369 0213 0B       		.uleb128 0xb
 2370 0214 656D6700 		.ascii	"emg\000"
 2371 0218 05       		.byte	0x5
 2372 0219 FB       		.byte	0xfb
 2373 021a 38020000 		.4byte	0x238
 2374 021e 00       		.byte	0
 2375 021f 0C       		.uleb128 0xc
 2376 0220 8F080000 		.4byte	.LASF38
 2377 0224 05       		.byte	0x5
 2378 0225 FC       		.byte	0xfc
 2379 0226 48020000 		.4byte	0x248
 2380 022a 08       		.byte	0x8
 2381 022b 0C       		.uleb128 0xc
 2382 022c 94090000 		.4byte	.LASF39
 2383 0230 05       		.byte	0x5
 2384 0231 FD       		.byte	0xfd
 2385 0232 38020000 		.4byte	0x238
 2386 0236 20       		.byte	0x20
 2387 0237 00       		.byte	0
 2388 0238 06       		.uleb128 0x6
 2389 0239 BD000000 		.4byte	0xbd
 2390 023d 48020000 		.4byte	0x248
 2391 0241 07       		.uleb128 0x7
 2392 0242 F1000000 		.4byte	0xf1
 2393 0246 01       		.byte	0x1
 2394 0247 00       		.byte	0
 2395 0248 06       		.uleb128 0x6
 2396 0249 BD000000 		.4byte	0xbd
 2397 024d 58020000 		.4byte	0x258
ARM GAS  C:\Users\mgnocco\AppData\Local\Temp\ccOXEsk0.s 			page 52


 2398 0251 07       		.uleb128 0x7
 2399 0252 F1000000 		.4byte	0xf1
 2400 0256 05       		.byte	0x5
 2401 0257 00       		.byte	0
 2402 0258 0D       		.uleb128 0xd
 2403 0259 92070000 		.4byte	.LASF40
 2404 025d 70       		.byte	0x70
 2405 025e 05       		.byte	0x5
 2406 025f 1501     		.2byte	0x115
 2407 0261 F5020000 		.4byte	0x2f5
 2408 0265 0E       		.uleb128 0xe
 2409 0266 DC090000 		.4byte	.LASF41
 2410 026a 05       		.byte	0x5
 2411 026b 1601     		.2byte	0x116
 2412 026d F5020000 		.4byte	0x2f5
 2413 0271 00       		.byte	0
 2414 0272 0E       		.uleb128 0xe
 2415 0273 06050000 		.4byte	.LASF42
 2416 0277 05       		.byte	0x5
 2417 0278 1701     		.2byte	0x117
 2418 027a 05030000 		.4byte	0x305
 2419 027e 08       		.byte	0x8
 2420 027f 0E       		.uleb128 0xe
 2421 0280 A6060000 		.4byte	.LASF43
 2422 0284 05       		.byte	0x5
 2423 0285 1801     		.2byte	0x118
 2424 0287 15030000 		.4byte	0x315
 2425 028b 30       		.byte	0x30
 2426 028c 0E       		.uleb128 0xe
 2427 028d FC070000 		.4byte	.LASF44
 2428 0291 05       		.byte	0x5
 2429 0292 1901     		.2byte	0x119
 2430 0294 99000000 		.4byte	0x99
 2431 0298 40       		.byte	0x40
 2432 0299 0E       		.uleb128 0xe
 2433 029a 57020000 		.4byte	.LASF45
 2434 029e 05       		.byte	0x5
 2435 029f 1A01     		.2byte	0x11a
 2436 02a1 99000000 		.4byte	0x99
 2437 02a5 44       		.byte	0x44
 2438 02a6 0E       		.uleb128 0xe
 2439 02a7 1E030000 		.4byte	.LASF46
 2440 02ab 05       		.byte	0x5
 2441 02ac 1B01     		.2byte	0x11b
 2442 02ae 99000000 		.4byte	0x99
 2443 02b2 48       		.byte	0x48
 2444 02b3 0E       		.uleb128 0xe
 2445 02b4 460A0000 		.4byte	.LASF47
 2446 02b8 05       		.byte	0x5
 2447 02b9 1C01     		.2byte	0x11c
 2448 02bb 99000000 		.4byte	0x99
 2449 02bf 4C       		.byte	0x4c
 2450 02c0 0E       		.uleb128 0xe
 2451 02c1 3E050000 		.4byte	.LASF48
 2452 02c5 05       		.byte	0x5
 2453 02c6 1D01     		.2byte	0x11d
 2454 02c8 99000000 		.4byte	0x99
ARM GAS  C:\Users\mgnocco\AppData\Local\Temp\ccOXEsk0.s 			page 53


 2455 02cc 50       		.byte	0x50
 2456 02cd 0E       		.uleb128 0xe
 2457 02ce BD060000 		.4byte	.LASF49
 2458 02d2 05       		.byte	0x5
 2459 02d3 1E01     		.2byte	0x11e
 2460 02d5 F5020000 		.4byte	0x2f5
 2461 02d9 54       		.byte	0x54
 2462 02da 0E       		.uleb128 0xe
 2463 02db 43080000 		.4byte	.LASF50
 2464 02df 05       		.byte	0x5
 2465 02e0 1F01     		.2byte	0x11f
 2466 02e2 F5020000 		.4byte	0x2f5
 2467 02e6 5C       		.byte	0x5c
 2468 02e7 0E       		.uleb128 0xe
 2469 02e8 C1040000 		.4byte	.LASF51
 2470 02ec 05       		.byte	0x5
 2471 02ed 2001     		.2byte	0x120
 2472 02ef 25030000 		.4byte	0x325
 2473 02f3 64       		.byte	0x64
 2474 02f4 00       		.byte	0
 2475 02f5 06       		.uleb128 0x6
 2476 02f6 99000000 		.4byte	0x99
 2477 02fa 05030000 		.4byte	0x305
 2478 02fe 07       		.uleb128 0x7
 2479 02ff F1000000 		.4byte	0xf1
 2480 0303 01       		.byte	0x1
 2481 0304 00       		.byte	0
 2482 0305 06       		.uleb128 0x6
 2483 0306 99000000 		.4byte	0x99
 2484 030a 15030000 		.4byte	0x315
 2485 030e 07       		.uleb128 0x7
 2486 030f F1000000 		.4byte	0xf1
 2487 0313 09       		.byte	0x9
 2488 0314 00       		.byte	0
 2489 0315 06       		.uleb128 0x6
 2490 0316 99000000 		.4byte	0x99
 2491 031a 25030000 		.4byte	0x325
 2492 031e 07       		.uleb128 0x7
 2493 031f F1000000 		.4byte	0xf1
 2494 0323 03       		.byte	0x3
 2495 0324 00       		.byte	0
 2496 0325 06       		.uleb128 0x6
 2497 0326 81000000 		.4byte	0x81
 2498 032a 35030000 		.4byte	0x335
 2499 032e 07       		.uleb128 0x7
 2500 032f F1000000 		.4byte	0xf1
 2501 0333 0B       		.byte	0xb
 2502 0334 00       		.byte	0
 2503 0335 0D       		.uleb128 0xd
 2504 0336 09060000 		.4byte	.LASF52
 2505 033a 10       		.byte	0x10
 2506 033b 05       		.byte	0x5
 2507 033c 2701     		.2byte	0x127
 2508 033e C4030000 		.4byte	0x3c4
 2509 0342 0F       		.uleb128 0xf
 2510 0343 696400   		.ascii	"id\000"
 2511 0346 05       		.byte	0x5
ARM GAS  C:\Users\mgnocco\AppData\Local\Temp\ccOXEsk0.s 			page 54


 2512 0347 2801     		.2byte	0x128
 2513 0349 81000000 		.4byte	0x81
 2514 034d 00       		.byte	0
 2515 034e 0E       		.uleb128 0xe
 2516 034f 30050000 		.4byte	.LASF53
 2517 0353 05       		.byte	0x5
 2518 0354 2901     		.2byte	0x129
 2519 0356 C4030000 		.4byte	0x3c4
 2520 035a 01       		.byte	0x1
 2521 035b 0E       		.uleb128 0xe
 2522 035c 9B0A0000 		.4byte	.LASF54
 2523 0360 05       		.byte	0x5
 2524 0361 2A01     		.2byte	0x12a
 2525 0363 C4030000 		.4byte	0x3c4
 2526 0367 04       		.byte	0x4
 2527 0368 0E       		.uleb128 0xe
 2528 0369 4C020000 		.4byte	.LASF55
 2529 036d 05       		.byte	0x5
 2530 036e 2B01     		.2byte	0x12b
 2531 0370 81000000 		.4byte	0x81
 2532 0374 07       		.byte	0x7
 2533 0375 0E       		.uleb128 0xe
 2534 0376 75030000 		.4byte	.LASF56
 2535 037a 05       		.byte	0x5
 2536 037b 2C01     		.2byte	0x12c
 2537 037d 81000000 		.4byte	0x81
 2538 0381 08       		.byte	0x8
 2539 0382 0E       		.uleb128 0xe
 2540 0383 25000000 		.4byte	.LASF57
 2541 0387 05       		.byte	0x5
 2542 0388 2D01     		.2byte	0x12d
 2543 038a 81000000 		.4byte	0x81
 2544 038e 09       		.byte	0x9
 2545 038f 0E       		.uleb128 0xe
 2546 0390 72010000 		.4byte	.LASF58
 2547 0394 05       		.byte	0x5
 2548 0395 2E01     		.2byte	0x12e
 2549 0397 81000000 		.4byte	0x81
 2550 039b 0A       		.byte	0xa
 2551 039c 0E       		.uleb128 0xe
 2552 039d E1080000 		.4byte	.LASF59
 2553 03a1 05       		.byte	0x5
 2554 03a2 2F01     		.2byte	0x12f
 2555 03a4 81000000 		.4byte	0x81
 2556 03a8 0B       		.byte	0xb
 2557 03a9 0E       		.uleb128 0xe
 2558 03aa BC080000 		.4byte	.LASF60
 2559 03ae 05       		.byte	0x5
 2560 03af 3001     		.2byte	0x130
 2561 03b1 81000000 		.4byte	0x81
 2562 03b5 0C       		.byte	0xc
 2563 03b6 0E       		.uleb128 0xe
 2564 03b7 C1040000 		.4byte	.LASF51
 2565 03bb 05       		.byte	0x5
 2566 03bc 3101     		.2byte	0x131
 2567 03be C4030000 		.4byte	0x3c4
 2568 03c2 0D       		.byte	0xd
ARM GAS  C:\Users\mgnocco\AppData\Local\Temp\ccOXEsk0.s 			page 55


 2569 03c3 00       		.byte	0
 2570 03c4 06       		.uleb128 0x6
 2571 03c5 81000000 		.4byte	0x81
 2572 03c9 D4030000 		.4byte	0x3d4
 2573 03cd 07       		.uleb128 0x7
 2574 03ce F1000000 		.4byte	0xf1
 2575 03d2 02       		.byte	0x2
 2576 03d3 00       		.byte	0
 2577 03d4 0D       		.uleb128 0xd
 2578 03d5 09090000 		.4byte	.LASF61
 2579 03d9 70       		.byte	0x70
 2580 03da 05       		.byte	0x5
 2581 03db 3801     		.2byte	0x138
 2582 03dd 4E050000 		.4byte	0x54e
 2583 03e1 0F       		.uleb128 0xf
 2584 03e2 6B5F7000 		.ascii	"k_p\000"
 2585 03e6 05       		.byte	0x5
 2586 03e7 3901     		.2byte	0x139
 2587 03e9 BD000000 		.4byte	0xbd
 2588 03ed 00       		.byte	0
 2589 03ee 0F       		.uleb128 0xf
 2590 03ef 6B5F6900 		.ascii	"k_i\000"
 2591 03f3 05       		.byte	0x5
 2592 03f4 3A01     		.2byte	0x13a
 2593 03f6 BD000000 		.4byte	0xbd
 2594 03fa 04       		.byte	0x4
 2595 03fb 0F       		.uleb128 0xf
 2596 03fc 6B5F6400 		.ascii	"k_d\000"
 2597 0400 05       		.byte	0x5
 2598 0401 3B01     		.2byte	0x13b
 2599 0403 BD000000 		.4byte	0xbd
 2600 0407 08       		.byte	0x8
 2601 0408 0E       		.uleb128 0xe
 2602 0409 4F060000 		.4byte	.LASF62
 2603 040d 05       		.byte	0x5
 2604 040e 3C01     		.2byte	0x13c
 2605 0410 BD000000 		.4byte	0xbd
 2606 0414 0C       		.byte	0xc
 2607 0415 0E       		.uleb128 0xe
 2608 0416 770A0000 		.4byte	.LASF63
 2609 041a 05       		.byte	0x5
 2610 041b 3D01     		.2byte	0x13d
 2611 041d BD000000 		.4byte	0xbd
 2612 0421 10       		.byte	0x10
 2613 0422 0E       		.uleb128 0xe
 2614 0423 24090000 		.4byte	.LASF64
 2615 0427 05       		.byte	0x5
 2616 0428 3E01     		.2byte	0x13e
 2617 042a BD000000 		.4byte	0xbd
 2618 042e 14       		.byte	0x14
 2619 042f 0E       		.uleb128 0xe
 2620 0430 C70A0000 		.4byte	.LASF65
 2621 0434 05       		.byte	0x5
 2622 0435 3F01     		.2byte	0x13f
 2623 0437 BD000000 		.4byte	0xbd
 2624 043b 18       		.byte	0x18
 2625 043c 0E       		.uleb128 0xe
ARM GAS  C:\Users\mgnocco\AppData\Local\Temp\ccOXEsk0.s 			page 56


 2626 043d CA030000 		.4byte	.LASF66
 2627 0441 05       		.byte	0x5
 2628 0442 4001     		.2byte	0x140
 2629 0444 BD000000 		.4byte	0xbd
 2630 0448 1C       		.byte	0x1c
 2631 0449 0E       		.uleb128 0xe
 2632 044a 6E030000 		.4byte	.LASF67
 2633 044e 05       		.byte	0x5
 2634 044f 4101     		.2byte	0x141
 2635 0451 BD000000 		.4byte	0xbd
 2636 0455 20       		.byte	0x20
 2637 0456 0E       		.uleb128 0xe
 2638 0457 15030000 		.4byte	.LASF68
 2639 045b 05       		.byte	0x5
 2640 045c 4201     		.2byte	0x142
 2641 045e BD000000 		.4byte	0xbd
 2642 0462 24       		.byte	0x24
 2643 0463 0E       		.uleb128 0xe
 2644 0464 C5080000 		.4byte	.LASF69
 2645 0468 05       		.byte	0x5
 2646 0469 4301     		.2byte	0x143
 2647 046b BD000000 		.4byte	0xbd
 2648 046f 28       		.byte	0x28
 2649 0470 0E       		.uleb128 0xe
 2650 0471 D3090000 		.4byte	.LASF70
 2651 0475 05       		.byte	0x5
 2652 0476 4401     		.2byte	0x144
 2653 0478 BD000000 		.4byte	0xbd
 2654 047c 2C       		.byte	0x2c
 2655 047d 0E       		.uleb128 0xe
 2656 047e D7060000 		.4byte	.LASF71
 2657 0482 05       		.byte	0x5
 2658 0483 4501     		.2byte	0x145
 2659 0485 81000000 		.4byte	0x81
 2660 0489 30       		.byte	0x30
 2661 048a 0E       		.uleb128 0xe
 2662 048b 1B080000 		.4byte	.LASF72
 2663 048f 05       		.byte	0x5
 2664 0490 4601     		.2byte	0x146
 2665 0492 81000000 		.4byte	0x81
 2666 0496 31       		.byte	0x31
 2667 0497 0E       		.uleb128 0xe
 2668 0498 A3040000 		.4byte	.LASF73
 2669 049c 05       		.byte	0x5
 2670 049d 4701     		.2byte	0x147
 2671 049f 81000000 		.4byte	0x81
 2672 04a3 32       		.byte	0x32
 2673 04a4 0E       		.uleb128 0xe
 2674 04a5 C7070000 		.4byte	.LASF74
 2675 04a9 05       		.byte	0x5
 2676 04aa 4801     		.2byte	0x148
 2677 04ac 81000000 		.4byte	0x81
 2678 04b0 33       		.byte	0x33
 2679 04b1 0E       		.uleb128 0xe
 2680 04b2 B5040000 		.4byte	.LASF75
 2681 04b6 05       		.byte	0x5
 2682 04b7 4901     		.2byte	0x149
ARM GAS  C:\Users\mgnocco\AppData\Local\Temp\ccOXEsk0.s 			page 57


 2683 04b9 BD000000 		.4byte	0xbd
 2684 04bd 34       		.byte	0x34
 2685 04be 0E       		.uleb128 0xe
 2686 04bf 6F060000 		.4byte	.LASF76
 2687 04c3 05       		.byte	0x5
 2688 04c4 4A01     		.2byte	0x14a
 2689 04c6 BD000000 		.4byte	0xbd
 2690 04ca 38       		.byte	0x38
 2691 04cb 0E       		.uleb128 0xe
 2692 04cc 04040000 		.4byte	.LASF77
 2693 04d0 05       		.byte	0x5
 2694 04d1 4B01     		.2byte	0x14b
 2695 04d3 BD000000 		.4byte	0xbd
 2696 04d7 3C       		.byte	0x3c
 2697 04d8 0E       		.uleb128 0xe
 2698 04d9 E7070000 		.4byte	.LASF78
 2699 04dd 05       		.byte	0x5
 2700 04de 4C01     		.2byte	0x14c
 2701 04e0 BD000000 		.4byte	0xbd
 2702 04e4 40       		.byte	0x40
 2703 04e5 0E       		.uleb128 0xe
 2704 04e6 52090000 		.4byte	.LASF79
 2705 04ea 05       		.byte	0x5
 2706 04eb 4D01     		.2byte	0x14d
 2707 04ed 4E050000 		.4byte	0x54e
 2708 04f1 44       		.byte	0x44
 2709 04f2 0E       		.uleb128 0xe
 2710 04f3 84070000 		.4byte	.LASF80
 2711 04f7 05       		.byte	0x5
 2712 04f8 4E01     		.2byte	0x14e
 2713 04fa B1000000 		.4byte	0xb1
 2714 04fe 5C       		.byte	0x5c
 2715 04ff 0E       		.uleb128 0xe
 2716 0500 5E030000 		.4byte	.LASF81
 2717 0504 05       		.byte	0x5
 2718 0505 4F01     		.2byte	0x14f
 2719 0507 81000000 		.4byte	0x81
 2720 050b 5E       		.byte	0x5e
 2721 050c 0E       		.uleb128 0xe
 2722 050d 6D020000 		.4byte	.LASF82
 2723 0511 05       		.byte	0x5
 2724 0512 5001     		.2byte	0x150
 2725 0514 81000000 		.4byte	0x81
 2726 0518 5F       		.byte	0x5f
 2727 0519 0E       		.uleb128 0xe
 2728 051a 9A000000 		.4byte	.LASF83
 2729 051e 05       		.byte	0x5
 2730 051f 5101     		.2byte	0x151
 2731 0521 81000000 		.4byte	0x81
 2732 0525 60       		.byte	0x60
 2733 0526 0E       		.uleb128 0xe
 2734 0527 CE0A0000 		.4byte	.LASF84
 2735 052b 05       		.byte	0x5
 2736 052c 5201     		.2byte	0x152
 2737 052e 81000000 		.4byte	0x81
 2738 0532 61       		.byte	0x61
 2739 0533 0E       		.uleb128 0xe
ARM GAS  C:\Users\mgnocco\AppData\Local\Temp\ccOXEsk0.s 			page 58


 2740 0534 36020000 		.4byte	.LASF85
 2741 0538 05       		.byte	0x5
 2742 0539 5301     		.2byte	0x153
 2743 053b 81000000 		.4byte	0x81
 2744 053f 62       		.byte	0x62
 2745 0540 0E       		.uleb128 0xe
 2746 0541 C1040000 		.4byte	.LASF51
 2747 0545 05       		.byte	0x5
 2748 0546 5401     		.2byte	0x154
 2749 0548 5E050000 		.4byte	0x55e
 2750 054c 63       		.byte	0x63
 2751 054d 00       		.byte	0
 2752 054e 06       		.uleb128 0x6
 2753 054f D5000000 		.4byte	0xd5
 2754 0553 5E050000 		.4byte	0x55e
 2755 0557 07       		.uleb128 0x7
 2756 0558 F1000000 		.4byte	0xf1
 2757 055c 05       		.byte	0x5
 2758 055d 00       		.byte	0
 2759 055e 06       		.uleb128 0x6
 2760 055f 81000000 		.4byte	0x81
 2761 0563 6E050000 		.4byte	0x56e
 2762 0567 07       		.uleb128 0x7
 2763 0568 F1000000 		.4byte	0xf1
 2764 056c 0C       		.byte	0xc
 2765 056d 00       		.byte	0
 2766 056e 0D       		.uleb128 0xd
 2767 056f 6B070000 		.4byte	.LASF86
 2768 0573 30       		.byte	0x30
 2769 0574 05       		.byte	0x5
 2770 0575 5B01     		.2byte	0x15b
 2771 0577 F1050000 		.4byte	0x5f1
 2772 057b 0E       		.uleb128 0xe
 2773 057c F7080000 		.4byte	.LASF87
 2774 0580 05       		.byte	0x5
 2775 0581 5C01     		.2byte	0x15c
 2776 0583 F1050000 		.4byte	0x5f1
 2777 0587 00       		.byte	0
 2778 0588 0F       		.uleb128 0xf
 2779 0589 72657300 		.ascii	"res\000"
 2780 058d 05       		.byte	0x5
 2781 058e 5D01     		.2byte	0x15d
 2782 0590 C4030000 		.4byte	0x3c4
 2783 0594 05       		.byte	0x5
 2784 0595 0E       		.uleb128 0xe
 2785 0596 94000000 		.4byte	.LASF88
 2786 059a 05       		.byte	0x5
 2787 059b 5E01     		.2byte	0x15e
 2788 059d E7010000 		.4byte	0x1e7
 2789 05a1 08       		.byte	0x8
 2790 05a2 0E       		.uleb128 0xe
 2791 05a3 3E070000 		.4byte	.LASF89
 2792 05a7 05       		.byte	0x5
 2793 05a8 5F01     		.2byte	0x15f
 2794 05aa 01060000 		.4byte	0x601
 2795 05ae 14       		.byte	0x14
 2796 05af 0E       		.uleb128 0xe
ARM GAS  C:\Users\mgnocco\AppData\Local\Temp\ccOXEsk0.s 			page 59


 2797 05b0 610A0000 		.4byte	.LASF90
 2798 05b4 05       		.byte	0x5
 2799 05b5 6001     		.2byte	0x160
 2800 05b7 81000000 		.4byte	0x81
 2801 05bb 20       		.byte	0x20
 2802 05bc 0E       		.uleb128 0xe
 2803 05bd 01070000 		.4byte	.LASF91
 2804 05c1 05       		.byte	0x5
 2805 05c2 6101     		.2byte	0x161
 2806 05c4 C4030000 		.4byte	0x3c4
 2807 05c8 21       		.byte	0x21
 2808 05c9 0E       		.uleb128 0xe
 2809 05ca AF030000 		.4byte	.LASF92
 2810 05ce 05       		.byte	0x5
 2811 05cf 6201     		.2byte	0x162
 2812 05d1 A5000000 		.4byte	0xa5
 2813 05d5 24       		.byte	0x24
 2814 05d6 0E       		.uleb128 0xe
 2815 05d7 54070000 		.4byte	.LASF93
 2816 05db 05       		.byte	0x5
 2817 05dc 6301     		.2byte	0x163
 2818 05de F7010000 		.4byte	0x1f7
 2819 05e2 25       		.byte	0x25
 2820 05e3 0E       		.uleb128 0xe
 2821 05e4 C1040000 		.4byte	.LASF51
 2822 05e8 05       		.byte	0x5
 2823 05e9 6401     		.2byte	0x164
 2824 05eb 11060000 		.4byte	0x611
 2825 05ef 28       		.byte	0x28
 2826 05f0 00       		.byte	0
 2827 05f1 06       		.uleb128 0x6
 2828 05f2 81000000 		.4byte	0x81
 2829 05f6 01060000 		.4byte	0x601
 2830 05fa 07       		.uleb128 0x7
 2831 05fb F1000000 		.4byte	0xf1
 2832 05ff 04       		.byte	0x4
 2833 0600 00       		.byte	0
 2834 0601 06       		.uleb128 0x6
 2835 0602 C9000000 		.4byte	0xc9
 2836 0606 11060000 		.4byte	0x611
 2837 060a 07       		.uleb128 0x7
 2838 060b F1000000 		.4byte	0xf1
 2839 060f 02       		.byte	0x2
 2840 0610 00       		.byte	0
 2841 0611 06       		.uleb128 0x6
 2842 0612 81000000 		.4byte	0x81
 2843 0616 21060000 		.4byte	0x621
 2844 061a 07       		.uleb128 0x7
 2845 061b F1000000 		.4byte	0xf1
 2846 061f 07       		.byte	0x7
 2847 0620 00       		.byte	0
 2848 0621 0D       		.uleb128 0xd
 2849 0622 D4070000 		.4byte	.LASF94
 2850 0626 10       		.byte	0x10
 2851 0627 05       		.byte	0x5
 2852 0628 6B01     		.2byte	0x16b
 2853 062a 70060000 		.4byte	0x670
ARM GAS  C:\Users\mgnocco\AppData\Local\Temp\ccOXEsk0.s 			page 60


 2854 062e 0E       		.uleb128 0xe
 2855 062f B3010000 		.4byte	.LASF95
 2856 0633 05       		.byte	0x5
 2857 0634 6C01     		.2byte	0x16c
 2858 0636 70060000 		.4byte	0x670
 2859 063a 00       		.byte	0
 2860 063b 0E       		.uleb128 0xe
 2861 063c DD060000 		.4byte	.LASF96
 2862 0640 05       		.byte	0x5
 2863 0641 6D01     		.2byte	0x16d
 2864 0643 F5020000 		.4byte	0x2f5
 2865 0647 04       		.byte	0x4
 2866 0648 0E       		.uleb128 0xe
 2867 0649 B5090000 		.4byte	.LASF97
 2868 064d 05       		.byte	0x5
 2869 064e 6E01     		.2byte	0x16e
 2870 0650 80060000 		.4byte	0x680
 2871 0654 0C       		.byte	0xc
 2872 0655 0E       		.uleb128 0xe
 2873 0656 A1020000 		.4byte	.LASF98
 2874 065a 05       		.byte	0x5
 2875 065b 6F01     		.2byte	0x16f
 2876 065d 81000000 		.4byte	0x81
 2877 0661 0E       		.byte	0xe
 2878 0662 0E       		.uleb128 0xe
 2879 0663 3F030000 		.4byte	.LASF99
 2880 0667 05       		.byte	0x5
 2881 0668 7001     		.2byte	0x170
 2882 066a 81000000 		.4byte	0x81
 2883 066e 0F       		.byte	0xf
 2884 066f 00       		.byte	0
 2885 0670 06       		.uleb128 0x6
 2886 0671 8D000000 		.4byte	0x8d
 2887 0675 80060000 		.4byte	0x680
 2888 0679 07       		.uleb128 0x7
 2889 067a F1000000 		.4byte	0xf1
 2890 067e 01       		.byte	0x1
 2891 067f 00       		.byte	0
 2892 0680 06       		.uleb128 0x6
 2893 0681 81000000 		.4byte	0x81
 2894 0685 90060000 		.4byte	0x690
 2895 0689 07       		.uleb128 0x7
 2896 068a F1000000 		.4byte	0xf1
 2897 068e 01       		.byte	0x1
 2898 068f 00       		.byte	0
 2899 0690 0D       		.uleb128 0xd
 2900 0691 6C000000 		.4byte	.LASF100
 2901 0695 20       		.byte	0x20
 2902 0696 05       		.byte	0x5
 2903 0697 7701     		.2byte	0x177
 2904 0699 D2060000 		.4byte	0x6d2
 2905 069d 0E       		.uleb128 0xe
 2906 069e 5E090000 		.4byte	.LASF101
 2907 06a2 05       		.byte	0x5
 2908 06a3 7801     		.2byte	0x178
 2909 06a5 81000000 		.4byte	0x81
 2910 06a9 00       		.byte	0
ARM GAS  C:\Users\mgnocco\AppData\Local\Temp\ccOXEsk0.s 			page 61


 2911 06aa 0E       		.uleb128 0xe
 2912 06ab B6020000 		.4byte	.LASF102
 2913 06af 05       		.byte	0x5
 2914 06b0 7901     		.2byte	0x179
 2915 06b2 81000000 		.4byte	0x81
 2916 06b6 01       		.byte	0x1
 2917 06b7 0E       		.uleb128 0xe
 2918 06b8 B0050000 		.4byte	.LASF103
 2919 06bc 05       		.byte	0x5
 2920 06bd 7A01     		.2byte	0x17a
 2921 06bf D2060000 		.4byte	0x6d2
 2922 06c3 02       		.byte	0x2
 2923 06c4 0E       		.uleb128 0xe
 2924 06c5 C1040000 		.4byte	.LASF51
 2925 06c9 05       		.byte	0x5
 2926 06ca 7B01     		.2byte	0x17b
 2927 06cc F1050000 		.4byte	0x5f1
 2928 06d0 1B       		.byte	0x1b
 2929 06d1 00       		.byte	0
 2930 06d2 06       		.uleb128 0x6
 2931 06d3 81000000 		.4byte	0x81
 2932 06d7 E8060000 		.4byte	0x6e8
 2933 06db 07       		.uleb128 0x7
 2934 06dc F1000000 		.4byte	0xf1
 2935 06e0 04       		.byte	0x4
 2936 06e1 07       		.uleb128 0x7
 2937 06e2 F1000000 		.4byte	0xf1
 2938 06e6 04       		.byte	0x4
 2939 06e7 00       		.byte	0
 2940 06e8 0D       		.uleb128 0xd
 2941 06e9 82080000 		.4byte	.LASF104
 2942 06ed 20       		.byte	0x20
 2943 06ee 05       		.byte	0x5
 2944 06ef 8201     		.2byte	0x182
 2945 06f1 44070000 		.4byte	0x744
 2946 06f5 0E       		.uleb128 0xe
 2947 06f6 B3060000 		.4byte	.LASF105
 2948 06fa 05       		.byte	0x5
 2949 06fb 8301     		.2byte	0x183
 2950 06fd 44070000 		.4byte	0x744
 2951 0701 00       		.byte	0
 2952 0702 0E       		.uleb128 0xe
 2953 0703 FF090000 		.4byte	.LASF106
 2954 0707 05       		.byte	0x5
 2955 0708 8401     		.2byte	0x184
 2956 070a 81000000 		.4byte	0x81
 2957 070e 06       		.byte	0x6
 2958 070f 0E       		.uleb128 0xe
 2959 0710 11040000 		.4byte	.LASF107
 2960 0714 05       		.byte	0x5
 2961 0715 8501     		.2byte	0x185
 2962 0717 81000000 		.4byte	0x81
 2963 071b 07       		.byte	0x7
 2964 071c 0E       		.uleb128 0xe
 2965 071d 4B070000 		.4byte	.LASF108
 2966 0721 05       		.byte	0x5
 2967 0722 8601     		.2byte	0x186
ARM GAS  C:\Users\mgnocco\AppData\Local\Temp\ccOXEsk0.s 			page 62


 2968 0724 25030000 		.4byte	0x325
 2969 0728 08       		.byte	0x8
 2970 0729 0E       		.uleb128 0xe
 2971 072a 97080000 		.4byte	.LASF109
 2972 072e 05       		.byte	0x5
 2973 072f 8701     		.2byte	0x187
 2974 0731 81000000 		.4byte	0x81
 2975 0735 14       		.byte	0x14
 2976 0736 0E       		.uleb128 0xe
 2977 0737 C1040000 		.4byte	.LASF51
 2978 073b 05       		.byte	0x5
 2979 073c 8801     		.2byte	0x188
 2980 073e 54070000 		.4byte	0x754
 2981 0742 15       		.byte	0x15
 2982 0743 00       		.byte	0
 2983 0744 06       		.uleb128 0x6
 2984 0745 81000000 		.4byte	0x81
 2985 0749 54070000 		.4byte	0x754
 2986 074d 07       		.uleb128 0x7
 2987 074e F1000000 		.4byte	0xf1
 2988 0752 05       		.byte	0x5
 2989 0753 00       		.byte	0
 2990 0754 06       		.uleb128 0x6
 2991 0755 81000000 		.4byte	0x81
 2992 0759 64070000 		.4byte	0x764
 2993 075d 07       		.uleb128 0x7
 2994 075e F1000000 		.4byte	0xf1
 2995 0762 0A       		.byte	0xa
 2996 0763 00       		.byte	0
 2997 0764 0D       		.uleb128 0xd
 2998 0765 2C040000 		.4byte	.LASF110
 2999 0769 20       		.byte	0x20
 3000 076a 05       		.byte	0x5
 3001 076b 8F01     		.2byte	0x18f
 3002 076d 99070000 		.4byte	0x799
 3003 0771 0E       		.uleb128 0xe
 3004 0772 B9050000 		.4byte	.LASF111
 3005 0776 05       		.byte	0x5
 3006 0777 9001     		.2byte	0x190
 3007 0779 F8000000 		.4byte	0xf8
 3008 077d 00       		.byte	0
 3009 077e 0E       		.uleb128 0xe
 3010 077f 34040000 		.4byte	.LASF112
 3011 0783 05       		.byte	0x5
 3012 0784 9101     		.2byte	0x191
 3013 0786 21060000 		.4byte	0x621
 3014 078a 08       		.byte	0x8
 3015 078b 0E       		.uleb128 0xe
 3016 078c C1040000 		.4byte	.LASF51
 3017 0790 05       		.byte	0x5
 3018 0791 9201     		.2byte	0x192
 3019 0793 11060000 		.4byte	0x611
 3020 0797 18       		.byte	0x18
 3021 0798 00       		.byte	0
 3022 0799 0D       		.uleb128 0xd
 3023 079a 120A0000 		.4byte	.LASF113
 3024 079e 10       		.byte	0x10
ARM GAS  C:\Users\mgnocco\AppData\Local\Temp\ccOXEsk0.s 			page 63


 3025 079f 05       		.byte	0x5
 3026 07a0 9901     		.2byte	0x199
 3027 07a2 E8070000 		.4byte	0x7e8
 3028 07a6 0E       		.uleb128 0xe
 3029 07a7 66060000 		.4byte	.LASF114
 3030 07ab 05       		.byte	0x5
 3031 07ac 9A01     		.2byte	0x19a
 3032 07ae BD000000 		.4byte	0xbd
 3033 07b2 00       		.byte	0
 3034 07b3 0E       		.uleb128 0xe
 3035 07b4 12090000 		.4byte	.LASF115
 3036 07b8 05       		.byte	0x5
 3037 07b9 9B01     		.2byte	0x19b
 3038 07bb BD000000 		.4byte	0xbd
 3039 07bf 04       		.byte	0x4
 3040 07c0 0E       		.uleb128 0xe
 3041 07c1 AA010000 		.4byte	.LASF116
 3042 07c5 05       		.byte	0x5
 3043 07c6 9C01     		.2byte	0x19c
 3044 07c8 BD000000 		.4byte	0xbd
 3045 07cc 08       		.byte	0x8
 3046 07cd 0E       		.uleb128 0xe
 3047 07ce CE080000 		.4byte	.LASF117
 3048 07d2 05       		.byte	0x5
 3049 07d3 9D01     		.2byte	0x19d
 3050 07d5 81000000 		.4byte	0x81
 3051 07d9 0C       		.byte	0xc
 3052 07da 0E       		.uleb128 0xe
 3053 07db C1040000 		.4byte	.LASF51
 3054 07df 05       		.byte	0x5
 3055 07e0 9E01     		.2byte	0x19e
 3056 07e2 C4030000 		.4byte	0x3c4
 3057 07e6 0D       		.byte	0xd
 3058 07e7 00       		.byte	0
 3059 07e8 0D       		.uleb128 0xd
 3060 07e9 50040000 		.4byte	.LASF118
 3061 07ed 10       		.byte	0x10
 3062 07ee 05       		.byte	0x5
 3063 07ef A501     		.2byte	0x1a5
 3064 07f1 2A080000 		.4byte	0x82a
 3065 07f5 0E       		.uleb128 0xe
 3066 07f6 84030000 		.4byte	.LASF119
 3067 07fa 05       		.byte	0x5
 3068 07fb A601     		.2byte	0x1a6
 3069 07fd 8D000000 		.4byte	0x8d
 3070 0801 00       		.byte	0
 3071 0802 0E       		.uleb128 0xe
 3072 0803 59000000 		.4byte	.LASF120
 3073 0807 05       		.byte	0x5
 3074 0808 A701     		.2byte	0x1a7
 3075 080a B1000000 		.4byte	0xb1
 3076 080e 02       		.byte	0x2
 3077 080f 0E       		.uleb128 0xe
 3078 0810 8C0A0000 		.4byte	.LASF121
 3079 0814 05       		.byte	0x5
 3080 0815 A801     		.2byte	0x1a8
 3081 0817 70060000 		.4byte	0x670
ARM GAS  C:\Users\mgnocco\AppData\Local\Temp\ccOXEsk0.s 			page 64


 3082 081b 04       		.byte	0x4
 3083 081c 0E       		.uleb128 0xe
 3084 081d C1040000 		.4byte	.LASF51
 3085 0821 05       		.byte	0x5
 3086 0822 A901     		.2byte	0x1a9
 3087 0824 11060000 		.4byte	0x611
 3088 0828 08       		.byte	0x8
 3089 0829 00       		.byte	0
 3090 082a 0D       		.uleb128 0xd
 3091 082b 9E070000 		.4byte	.LASF122
 3092 082f 10       		.byte	0x10
 3093 0830 05       		.byte	0x5
 3094 0831 B001     		.2byte	0x1b0
 3095 0833 5F080000 		.4byte	0x85f
 3096 0837 0E       		.uleb128 0xe
 3097 0838 CE040000 		.4byte	.LASF123
 3098 083c 05       		.byte	0x5
 3099 083d B101     		.2byte	0x1b1
 3100 083f 81000000 		.4byte	0x81
 3101 0843 00       		.byte	0
 3102 0844 0E       		.uleb128 0xe
 3103 0845 7B070000 		.4byte	.LASF124
 3104 0849 05       		.byte	0x5
 3105 084a B201     		.2byte	0x1b2
 3106 084c 81000000 		.4byte	0x81
 3107 0850 01       		.byte	0x1
 3108 0851 0E       		.uleb128 0xe
 3109 0852 C1040000 		.4byte	.LASF51
 3110 0856 05       		.byte	0x5
 3111 0857 B301     		.2byte	0x1b3
 3112 0859 5F080000 		.4byte	0x85f
 3113 085d 02       		.byte	0x2
 3114 085e 00       		.byte	0
 3115 085f 06       		.uleb128 0x6
 3116 0860 81000000 		.4byte	0x81
 3117 0864 6F080000 		.4byte	0x86f
 3118 0868 07       		.uleb128 0x7
 3119 0869 F1000000 		.4byte	0xf1
 3120 086d 0D       		.byte	0xd
 3121 086e 00       		.byte	0
 3122 086f 0D       		.uleb128 0xd
 3123 0870 46000000 		.4byte	.LASF125
 3124 0874 10       		.byte	0x10
 3125 0875 05       		.byte	0x5
 3126 0876 BA01     		.2byte	0x1ba
 3127 0878 B1080000 		.4byte	0x8b1
 3128 087c 0E       		.uleb128 0xe
 3129 087d 00000000 		.4byte	.LASF126
 3130 0881 05       		.byte	0x5
 3131 0882 BB01     		.2byte	0x1bb
 3132 0884 BD000000 		.4byte	0xbd
 3133 0888 00       		.byte	0
 3134 0889 0E       		.uleb128 0xe
 3135 088a E8050000 		.4byte	.LASF127
 3136 088e 05       		.byte	0x5
 3137 088f BC01     		.2byte	0x1bc
 3138 0891 D5000000 		.4byte	0xd5
ARM GAS  C:\Users\mgnocco\AppData\Local\Temp\ccOXEsk0.s 			page 65


 3139 0895 04       		.byte	0x4
 3140 0896 0E       		.uleb128 0xe
 3141 0897 350A0000 		.4byte	.LASF128
 3142 089b 05       		.byte	0x5
 3143 089c BD01     		.2byte	0x1bd
 3144 089e D5000000 		.4byte	0xd5
 3145 08a2 08       		.byte	0x8
 3146 08a3 0E       		.uleb128 0xe
 3147 08a4 C1040000 		.4byte	.LASF51
 3148 08a8 05       		.byte	0x5
 3149 08a9 BE01     		.2byte	0x1be
 3150 08ab B1080000 		.4byte	0x8b1
 3151 08af 0C       		.byte	0xc
 3152 08b0 00       		.byte	0
 3153 08b1 06       		.uleb128 0x6
 3154 08b2 81000000 		.4byte	0x81
 3155 08b6 C1080000 		.4byte	0x8c1
 3156 08ba 07       		.uleb128 0x7
 3157 08bb F1000000 		.4byte	0xf1
 3158 08bf 03       		.byte	0x3
 3159 08c0 00       		.byte	0
 3160 08c1 0D       		.uleb128 0xd
 3161 08c2 5B060000 		.4byte	.LASF129
 3162 08c6 12       		.byte	0x12
 3163 08c7 05       		.byte	0x5
 3164 08c8 C501     		.2byte	0x1c5
 3165 08ca 03090000 		.4byte	0x903
 3166 08ce 0E       		.uleb128 0xe
 3167 08cf 7C010000 		.4byte	.LASF130
 3168 08d3 05       		.byte	0x5
 3169 08d4 C601     		.2byte	0x1c6
 3170 08d6 81000000 		.4byte	0x81
 3171 08da 00       		.byte	0
 3172 08db 0E       		.uleb128 0xe
 3173 08dc C5020000 		.4byte	.LASF131
 3174 08e0 05       		.byte	0x5
 3175 08e1 C701     		.2byte	0x1c7
 3176 08e3 70060000 		.4byte	0x670
 3177 08e7 02       		.byte	0x2
 3178 08e8 0E       		.uleb128 0xe
 3179 08e9 B1000000 		.4byte	.LASF132
 3180 08ed 05       		.byte	0x5
 3181 08ee C801     		.2byte	0x1c8
 3182 08f0 81000000 		.4byte	0x81
 3183 08f4 06       		.byte	0x6
 3184 08f5 0E       		.uleb128 0xe
 3185 08f6 C1040000 		.4byte	.LASF51
 3186 08fa 05       		.byte	0x5
 3187 08fb C901     		.2byte	0x1c9
 3188 08fd 03090000 		.4byte	0x903
 3189 0901 07       		.byte	0x7
 3190 0902 00       		.byte	0
 3191 0903 06       		.uleb128 0x6
 3192 0904 81000000 		.4byte	0x81
 3193 0908 13090000 		.4byte	0x913
 3194 090c 07       		.uleb128 0x7
 3195 090d F1000000 		.4byte	0xf1
ARM GAS  C:\Users\mgnocco\AppData\Local\Temp\ccOXEsk0.s 			page 66


 3196 0911 09       		.byte	0x9
 3197 0912 00       		.byte	0
 3198 0913 10       		.uleb128 0x10
 3199 0914 DF020000 		.4byte	.LASF133
 3200 0918 F402     		.2byte	0x2f4
 3201 091a 05       		.byte	0x5
 3202 091b D201     		.2byte	0x1d2
 3203 091d F8090000 		.4byte	0x9f8
 3204 0921 0E       		.uleb128 0xe
 3205 0922 76070000 		.4byte	.LASF134
 3206 0926 05       		.byte	0x5
 3207 0927 D401     		.2byte	0x1d4
 3208 0929 81000000 		.4byte	0x81
 3209 092d 00       		.byte	0
 3210 092e 0E       		.uleb128 0xe
 3211 092f C1040000 		.4byte	.LASF51
 3212 0933 05       		.byte	0x5
 3213 0934 D501     		.2byte	0x1d5
 3214 0936 F8090000 		.4byte	0x9f8
 3215 093a 01       		.byte	0x1
 3216 093b 0F       		.uleb128 0xf
 3217 093c 636E7400 		.ascii	"cnt\000"
 3218 0940 05       		.byte	0x5
 3219 0941 D601     		.2byte	0x1d6
 3220 0943 58020000 		.4byte	0x258
 3221 0947 10       		.byte	0x10
 3222 0948 0E       		.uleb128 0xe
 3223 0949 7A020000 		.4byte	.LASF135
 3224 094d 05       		.byte	0x5
 3225 094e D701     		.2byte	0x1d7
 3226 0950 080A0000 		.4byte	0xa08
 3227 0954 80       		.byte	0x80
 3228 0955 0F       		.uleb128 0xf
 3229 0956 64657600 		.ascii	"dev\000"
 3230 095a 05       		.byte	0x5
 3231 095b D801     		.2byte	0x1d8
 3232 095d 35030000 		.4byte	0x335
 3233 0961 A0       		.byte	0xa0
 3234 0962 0E       		.uleb128 0xe
 3235 0963 F6060000 		.4byte	.LASF136
 3236 0967 05       		.byte	0x5
 3237 0968 D901     		.2byte	0x1d9
 3238 096a 180A0000 		.4byte	0xa18
 3239 096e B0       		.byte	0xb0
 3240 096f 11       		.uleb128 0x11
 3241 0970 656E6300 		.ascii	"enc\000"
 3242 0974 05       		.byte	0x5
 3243 0975 DA01     		.2byte	0x1da
 3244 0977 280A0000 		.4byte	0xa28
 3245 097b 9001     		.2byte	0x190
 3246 097d 11       		.uleb128 0x11
 3247 097e 656D6700 		.ascii	"emg\000"
 3248 0982 05       		.byte	0x5
 3249 0983 DB01     		.2byte	0x1db
 3250 0985 21060000 		.4byte	0x621
 3251 0989 F001     		.2byte	0x1f0
 3252 098b 11       		.uleb128 0x11
ARM GAS  C:\Users\mgnocco\AppData\Local\Temp\ccOXEsk0.s 			page 67


 3253 098c 696D7500 		.ascii	"imu\000"
 3254 0990 05       		.byte	0x5
 3255 0991 DC01     		.2byte	0x1dc
 3256 0993 90060000 		.4byte	0x690
 3257 0997 0002     		.2byte	0x200
 3258 0999 11       		.uleb128 0x11
 3259 099a 65787000 		.ascii	"exp\000"
 3260 099e 05       		.byte	0x5
 3261 099f DD01     		.2byte	0x1dd
 3262 09a1 E8060000 		.4byte	0x6e8
 3263 09a5 2002     		.2byte	0x220
 3264 09a7 12       		.uleb128 0x12
 3265 09a8 19070000 		.4byte	.LASF137
 3266 09ac 05       		.byte	0x5
 3267 09ad DE01     		.2byte	0x1de
 3268 09af 380A0000 		.4byte	0xa38
 3269 09b3 4002     		.2byte	0x240
 3270 09b5 11       		.uleb128 0x11
 3271 09b6 534800   		.ascii	"SH\000"
 3272 09b9 05       		.byte	0x5
 3273 09ba E001     		.2byte	0x1e0
 3274 09bc 99070000 		.4byte	0x799
 3275 09c0 A002     		.2byte	0x2a0
 3276 09c2 12       		.uleb128 0x12
 3277 09c3 6C090000 		.4byte	.LASF138
 3278 09c7 05       		.byte	0x5
 3279 09c8 E101     		.2byte	0x1e1
 3280 09ca E8070000 		.4byte	0x7e8
 3281 09ce B002     		.2byte	0x2b0
 3282 09d0 11       		.uleb128 0x11
 3283 09d1 4D5300   		.ascii	"MS\000"
 3284 09d4 05       		.byte	0x5
 3285 09d5 E201     		.2byte	0x1e2
 3286 09d7 2A080000 		.4byte	0x82a
 3287 09db C002     		.2byte	0x2c0
 3288 09dd 11       		.uleb128 0x11
 3289 09de 464200   		.ascii	"FB\000"
 3290 09e1 05       		.byte	0x5
 3291 09e2 E301     		.2byte	0x1e3
 3292 09e4 6F080000 		.4byte	0x86f
 3293 09e8 D002     		.2byte	0x2d0
 3294 09ea 11       		.uleb128 0x11
 3295 09eb 575200   		.ascii	"WR\000"
 3296 09ee 05       		.byte	0x5
 3297 09ef E401     		.2byte	0x1e4
 3298 09f1 C1080000 		.4byte	0x8c1
 3299 09f5 E002     		.2byte	0x2e0
 3300 09f7 00       		.byte	0
 3301 09f8 06       		.uleb128 0x6
 3302 09f9 81000000 		.4byte	0x81
 3303 09fd 080A0000 		.4byte	0xa08
 3304 0a01 07       		.uleb128 0x7
 3305 0a02 F1000000 		.4byte	0xf1
 3306 0a06 0E       		.byte	0xe
 3307 0a07 00       		.byte	0
 3308 0a08 06       		.uleb128 0x6
 3309 0a09 81000000 		.4byte	0x81
ARM GAS  C:\Users\mgnocco\AppData\Local\Temp\ccOXEsk0.s 			page 68


 3310 0a0d 180A0000 		.4byte	0xa18
 3311 0a11 07       		.uleb128 0x7
 3312 0a12 F1000000 		.4byte	0xf1
 3313 0a16 1F       		.byte	0x1f
 3314 0a17 00       		.byte	0
 3315 0a18 06       		.uleb128 0x6
 3316 0a19 D4030000 		.4byte	0x3d4
 3317 0a1d 280A0000 		.4byte	0xa28
 3318 0a21 07       		.uleb128 0x7
 3319 0a22 F1000000 		.4byte	0xf1
 3320 0a26 01       		.byte	0x1
 3321 0a27 00       		.byte	0
 3322 0a28 06       		.uleb128 0x6
 3323 0a29 6E050000 		.4byte	0x56e
 3324 0a2d 380A0000 		.4byte	0xa38
 3325 0a31 07       		.uleb128 0x7
 3326 0a32 F1000000 		.4byte	0xf1
 3327 0a36 01       		.byte	0x1
 3328 0a37 00       		.byte	0
 3329 0a38 06       		.uleb128 0x6
 3330 0a39 64070000 		.4byte	0x764
 3331 0a3d 480A0000 		.4byte	0xa48
 3332 0a41 07       		.uleb128 0x7
 3333 0a42 F1000000 		.4byte	0xf1
 3334 0a46 02       		.byte	0x2
 3335 0a47 00       		.byte	0
 3336 0a48 0D       		.uleb128 0xd
 3337 0a49 61070000 		.4byte	.LASF139
 3338 0a4d 08       		.byte	0x8
 3339 0a4e 05       		.byte	0x5
 3340 0a4f FC01     		.2byte	0x1fc
 3341 0a51 700A0000 		.4byte	0xa70
 3342 0a55 0E       		.uleb128 0xe
 3343 0a56 2C020000 		.4byte	.LASF140
 3344 0a5a 05       		.byte	0x5
 3345 0a5b FD01     		.2byte	0x1fd
 3346 0a5d BD000000 		.4byte	0xbd
 3347 0a61 00       		.byte	0
 3348 0a62 0E       		.uleb128 0xe
 3349 0a63 1E070000 		.4byte	.LASF141
 3350 0a67 05       		.byte	0x5
 3351 0a68 FE01     		.2byte	0x1fe
 3352 0a6a BD000000 		.4byte	0xbd
 3353 0a6e 04       		.byte	0x4
 3354 0a6f 00       		.byte	0
 3355 0a70 0D       		.uleb128 0xd
 3356 0a71 B8070000 		.4byte	.LASF142
 3357 0a75 06       		.byte	0x6
 3358 0a76 05       		.byte	0x5
 3359 0a77 0502     		.2byte	0x205
 3360 0a79 B20A0000 		.4byte	0xab2
 3361 0a7d 0E       		.uleb128 0xe
 3362 0a7e F4070000 		.4byte	.LASF143
 3363 0a82 05       		.byte	0x5
 3364 0a83 0602     		.2byte	0x206
 3365 0a85 81000000 		.4byte	0x81
 3366 0a89 00       		.byte	0
ARM GAS  C:\Users\mgnocco\AppData\Local\Temp\ccOXEsk0.s 			page 69


 3367 0a8a 0E       		.uleb128 0xe
 3368 0a8b A7000000 		.4byte	.LASF144
 3369 0a8f 05       		.byte	0x5
 3370 0a90 0702     		.2byte	0x207
 3371 0a92 81000000 		.4byte	0x81
 3372 0a96 01       		.byte	0x1
 3373 0a97 0E       		.uleb128 0xe
 3374 0a98 1D0A0000 		.4byte	.LASF145
 3375 0a9c 05       		.byte	0x5
 3376 0a9d 0802     		.2byte	0x208
 3377 0a9f B1000000 		.4byte	0xb1
 3378 0aa3 02       		.byte	0x2
 3379 0aa4 0E       		.uleb128 0xe
 3380 0aa5 2C030000 		.4byte	.LASF146
 3381 0aa9 05       		.byte	0x5
 3382 0aaa 0902     		.2byte	0x209
 3383 0aac B1000000 		.4byte	0xb1
 3384 0ab0 04       		.byte	0x4
 3385 0ab1 00       		.byte	0
 3386 0ab2 13       		.uleb128 0x13
 3387 0ab3 DB010000 		.4byte	.LASF150
 3388 0ab7 01       		.byte	0x1
 3389 0ab8 33       		.byte	0x33
 3390 0ab9 BD000000 		.4byte	0xbd
 3391 0abd 00000000 		.4byte	.LFB64
 3392 0ac1 70020000 		.4byte	.LFE64-.LFB64
 3393 0ac5 01       		.uleb128 0x1
 3394 0ac6 9C       		.byte	0x9c
 3395 0ac7 340B0000 		.4byte	0xb34
 3396 0acb 14       		.uleb128 0x14
 3397 0acc 69647800 		.ascii	"idx\000"
 3398 0ad0 01       		.byte	0x1
 3399 0ad1 33       		.byte	0x33
 3400 0ad2 81000000 		.4byte	0x81
 3401 0ad6 02       		.uleb128 0x2
 3402 0ad7 91       		.byte	0x91
 3403 0ad8 67       		.sleb128 -25
 3404 0ad9 14       		.uleb128 0x14
 3405 0ada 706F7300 		.ascii	"pos\000"
 3406 0ade 01       		.byte	0x1
 3407 0adf 33       		.byte	0x33
 3408 0ae0 BD000000 		.4byte	0xbd
 3409 0ae4 02       		.uleb128 0x2
 3410 0ae5 91       		.byte	0x91
 3411 0ae6 60       		.sleb128 -32
 3412 0ae7 14       		.uleb128 0x14
 3413 0ae8 76656C00 		.ascii	"vel\000"
 3414 0aec 01       		.byte	0x1
 3415 0aed 33       		.byte	0x33
 3416 0aee BD000000 		.4byte	0xbd
 3417 0af2 02       		.uleb128 0x2
 3418 0af3 91       		.byte	0x91
 3419 0af4 5C       		.sleb128 -36
 3420 0af5 14       		.uleb128 0x14
 3421 0af6 72656600 		.ascii	"ref\000"
 3422 0afa 01       		.byte	0x1
 3423 0afb 33       		.byte	0x33
ARM GAS  C:\Users\mgnocco\AppData\Local\Temp\ccOXEsk0.s 			page 70


 3424 0afc BD000000 		.4byte	0xbd
 3425 0b00 02       		.uleb128 0x2
 3426 0b01 91       		.byte	0x91
 3427 0b02 58       		.sleb128 -40
 3428 0b03 15       		.uleb128 0x15
 3429 0b04 8E040000 		.4byte	.LASF147
 3430 0b08 01       		.byte	0x1
 3431 0b09 35       		.byte	0x35
 3432 0b0a 38020000 		.4byte	0x238
 3433 0b0e 05       		.uleb128 0x5
 3434 0b0f 03       		.byte	0x3
 3435 0b10 00000000 		.4byte	virtual_pos_friction.9546
 3436 0b14 15       		.uleb128 0x15
 3437 0b15 0E020000 		.4byte	.LASF148
 3438 0b19 01       		.byte	0x1
 3439 0b1a 36       		.byte	0x36
 3440 0b1b 38020000 		.4byte	0x238
 3441 0b1f 05       		.uleb128 0x5
 3442 0b20 03       		.byte	0x3
 3443 0b21 08000000 		.4byte	err_pos_dt.9547
 3444 0b25 15       		.uleb128 0x15
 3445 0b26 2B070000 		.4byte	.LASF149
 3446 0b2a 01       		.byte	0x1
 3447 0b2b 38       		.byte	0x38
 3448 0b2c BD000000 		.4byte	0xbd
 3449 0b30 02       		.uleb128 0x2
 3450 0b31 91       		.byte	0x91
 3451 0b32 6C       		.sleb128 -20
 3452 0b33 00       		.byte	0
 3453 0b34 16       		.uleb128 0x16
 3454 0b35 1D090000 		.4byte	.LASF151
 3455 0b39 01       		.byte	0x1
 3456 0b3a 57       		.byte	0x57
 3457 0b3b BD000000 		.4byte	0xbd
 3458 0b3f 00000000 		.4byte	.LFB65
 3459 0b43 4E000000 		.4byte	.LFE65-.LFB65
 3460 0b47 01       		.uleb128 0x1
 3461 0b48 9C       		.byte	0x9c
 3462 0b49 760B0000 		.4byte	0xb76
 3463 0b4d 17       		.uleb128 0x17
 3464 0b4e EF020000 		.4byte	.LASF152
 3465 0b52 01       		.byte	0x1
 3466 0b53 57       		.byte	0x57
 3467 0b54 BD000000 		.4byte	0xbd
 3468 0b58 02       		.uleb128 0x2
 3469 0b59 91       		.byte	0x91
 3470 0b5a 6C       		.sleb128 -20
 3471 0b5b 14       		.uleb128 0x14
 3472 0b5c 6600     		.ascii	"f\000"
 3473 0b5e 01       		.byte	0x1
 3474 0b5f 57       		.byte	0x57
 3475 0b60 760B0000 		.4byte	0xb76
 3476 0b64 02       		.uleb128 0x2
 3477 0b65 91       		.byte	0x91
 3478 0b66 68       		.sleb128 -24
 3479 0b67 18       		.uleb128 0x18
 3480 0b68 61757800 		.ascii	"aux\000"
ARM GAS  C:\Users\mgnocco\AppData\Local\Temp\ccOXEsk0.s 			page 71


 3481 0b6c 01       		.byte	0x1
 3482 0b6d 59       		.byte	0x59
 3483 0b6e BD000000 		.4byte	0xbd
 3484 0b72 02       		.uleb128 0x2
 3485 0b73 91       		.byte	0x91
 3486 0b74 74       		.sleb128 -12
 3487 0b75 00       		.byte	0
 3488 0b76 19       		.uleb128 0x19
 3489 0b77 04       		.byte	0x4
 3490 0b78 480A0000 		.4byte	0xa48
 3491 0b7c 16       		.uleb128 0x16
 3492 0b7d A3010000 		.4byte	.LASF153
 3493 0b81 01       		.byte	0x1
 3494 0b82 66       		.byte	0x66
 3495 0b83 99000000 		.4byte	0x99
 3496 0b87 00000000 		.4byte	.LFB66
 3497 0b8b 50000000 		.4byte	.LFE66-.LFB66
 3498 0b8f 01       		.uleb128 0x1
 3499 0b90 9C       		.byte	0x9c
 3500 0b91 B20B0000 		.4byte	0xbb2
 3501 0b95 14       		.uleb128 0x14
 3502 0b96 76616C00 		.ascii	"val\000"
 3503 0b9a 01       		.byte	0x1
 3504 0b9b 66       		.byte	0x66
 3505 0b9c BD000000 		.4byte	0xbd
 3506 0ba0 02       		.uleb128 0x2
 3507 0ba1 91       		.byte	0x91
 3508 0ba2 74       		.sleb128 -12
 3509 0ba3 17       		.uleb128 0x17
 3510 0ba4 20060000 		.4byte	.LASF154
 3511 0ba8 01       		.byte	0x1
 3512 0ba9 66       		.byte	0x66
 3513 0baa BD000000 		.4byte	0xbd
 3514 0bae 02       		.uleb128 0x2
 3515 0baf 91       		.byte	0x91
 3516 0bb0 70       		.sleb128 -16
 3517 0bb1 00       		.byte	0
 3518 0bb2 1A       		.uleb128 0x1a
 3519 0bb3 43060000 		.4byte	.LASF160
 3520 0bb7 01       		.byte	0x1
 3521 0bb8 74       		.byte	0x74
 3522 0bb9 00000000 		.4byte	.LFB67
 3523 0bbd D4000000 		.4byte	.LFE67-.LFB67
 3524 0bc1 01       		.uleb128 0x1
 3525 0bc2 9C       		.byte	0x9c
 3526 0bc3 EA0B0000 		.4byte	0xbea
 3527 0bc7 15       		.uleb128 0x15
 3528 0bc8 A7000000 		.4byte	.LASF144
 3529 0bcc 01       		.byte	0x1
 3530 0bcd 75       		.byte	0x75
 3531 0bce 81000000 		.4byte	0x81
 3532 0bd2 05       		.uleb128 0x5
 3533 0bd3 03       		.byte	0x3
 3534 0bd4 10000000 		.4byte	direction.9561
 3535 0bd8 15       		.uleb128 0x15
 3536 0bd9 73000000 		.4byte	.LASF155
 3537 0bdd 01       		.byte	0x1
ARM GAS  C:\Users\mgnocco\AppData\Local\Temp\ccOXEsk0.s 			page 72


 3538 0bde 76       		.byte	0x76
 3539 0bdf 8D000000 		.4byte	0x8d
 3540 0be3 05       		.uleb128 0x5
 3541 0be4 03       		.byte	0x3
 3542 0be5 12000000 		.4byte	closure_counter.9562
 3543 0be9 00       		.byte	0
 3544 0bea 13       		.uleb128 0x13
 3545 0beb E0040000 		.4byte	.LASF156
 3546 0bef 01       		.byte	0x1
 3547 0bf0 A9       		.byte	0xa9
 3548 0bf1 68000000 		.4byte	0x68
 3549 0bf5 00000000 		.4byte	.LFB68
 3550 0bf9 C4000000 		.4byte	.LFE68-.LFB68
 3551 0bfd 01       		.uleb128 0x1
 3552 0bfe 9C       		.byte	0x9c
 3553 0bff 610C0000 		.4byte	0xc61
 3554 0c03 17       		.uleb128 0x17
 3555 0c04 FC060000 		.4byte	.LASF157
 3556 0c08 01       		.byte	0x1
 3557 0c09 A9       		.byte	0xa9
 3558 0c0a 610C0000 		.4byte	0xc61
 3559 0c0e 02       		.uleb128 0x2
 3560 0c0f 91       		.byte	0x91
 3561 0c10 6C       		.sleb128 -20
 3562 0c11 17       		.uleb128 0x17
 3563 0c12 69030000 		.4byte	.LASF158
 3564 0c16 01       		.byte	0x1
 3565 0c17 A9       		.byte	0xa9
 3566 0c18 610C0000 		.4byte	0xc61
 3567 0c1c 02       		.uleb128 0x2
 3568 0c1d 91       		.byte	0x91
 3569 0c1e 68       		.sleb128 -24
 3570 0c1f 14       		.uleb128 0x14
 3571 0c20 4E3100   		.ascii	"N1\000"
 3572 0c23 01       		.byte	0x1
 3573 0c24 A9       		.byte	0xa9
 3574 0c25 660C0000 		.4byte	0xc66
 3575 0c29 02       		.uleb128 0x2
 3576 0c2a 91       		.byte	0x91
 3577 0c2b 64       		.sleb128 -28
 3578 0c2c 14       		.uleb128 0x14
 3579 0c2d 4E3200   		.ascii	"N2\000"
 3580 0c30 01       		.byte	0x1
 3581 0c31 A9       		.byte	0xa9
 3582 0c32 660C0000 		.4byte	0xc66
 3583 0c36 02       		.uleb128 0x2
 3584 0c37 91       		.byte	0x91
 3585 0c38 60       		.sleb128 -32
 3586 0c39 14       		.uleb128 0x14
 3587 0c3a 493100   		.ascii	"I1\000"
 3588 0c3d 01       		.byte	0x1
 3589 0c3e A9       		.byte	0xa9
 3590 0c3f 660C0000 		.4byte	0xc66
 3591 0c43 02       		.uleb128 0x2
 3592 0c44 91       		.byte	0x91
 3593 0c45 00       		.sleb128 0
 3594 0c46 18       		.uleb128 0x18
ARM GAS  C:\Users\mgnocco\AppData\Local\Temp\ccOXEsk0.s 			page 73


 3595 0c47 7800     		.ascii	"x\000"
 3596 0c49 01       		.byte	0x1
 3597 0c4a AB       		.byte	0xab
 3598 0c4b BD000000 		.4byte	0xbd
 3599 0c4f 02       		.uleb128 0x2
 3600 0c50 91       		.byte	0x91
 3601 0c51 70       		.sleb128 -16
 3602 0c52 18       		.uleb128 0x18
 3603 0c53 61757800 		.ascii	"aux\000"
 3604 0c57 01       		.byte	0x1
 3605 0c58 AC       		.byte	0xac
 3606 0c59 BD000000 		.4byte	0xbd
 3607 0c5d 02       		.uleb128 0x2
 3608 0c5e 91       		.byte	0x91
 3609 0c5f 74       		.sleb128 -12
 3610 0c60 00       		.byte	0
 3611 0c61 1B       		.uleb128 0x1b
 3612 0c62 BD000000 		.4byte	0xbd
 3613 0c66 1B       		.uleb128 0x1b
 3614 0c67 68000000 		.4byte	0x68
 3615 0c6b 13       		.uleb128 0x13
 3616 0c6c 7D0A0000 		.4byte	.LASF159
 3617 0c70 01       		.byte	0x1
 3618 0c71 C8       		.byte	0xc8
 3619 0c72 68000000 		.4byte	0x68
 3620 0c76 00000000 		.4byte	.LFB69
 3621 0c7a 98000000 		.4byte	.LFE69-.LFB69
 3622 0c7e 01       		.uleb128 0x1
 3623 0c7f 9C       		.byte	0x9c
 3624 0c80 EC0C0000 		.4byte	0xcec
 3625 0c84 17       		.uleb128 0x17
 3626 0c85 FC060000 		.4byte	.LASF157
 3627 0c89 01       		.byte	0x1
 3628 0c8a C8       		.byte	0xc8
 3629 0c8b 610C0000 		.4byte	0xc61
 3630 0c8f 02       		.uleb128 0x2
 3631 0c90 91       		.byte	0x91
 3632 0c91 6C       		.sleb128 -20
 3633 0c92 17       		.uleb128 0x17
 3634 0c93 69030000 		.4byte	.LASF158
 3635 0c97 01       		.byte	0x1
 3636 0c98 C8       		.byte	0xc8
 3637 0c99 610C0000 		.4byte	0xc61
 3638 0c9d 02       		.uleb128 0x2
 3639 0c9e 91       		.byte	0x91
 3640 0c9f 68       		.sleb128 -24
 3641 0ca0 14       		.uleb128 0x14
 3642 0ca1 4E3100   		.ascii	"N1\000"
 3643 0ca4 01       		.byte	0x1
 3644 0ca5 C8       		.byte	0xc8
 3645 0ca6 660C0000 		.4byte	0xc66
 3646 0caa 02       		.uleb128 0x2
 3647 0cab 91       		.byte	0x91
 3648 0cac 64       		.sleb128 -28
 3649 0cad 14       		.uleb128 0x14
 3650 0cae 4E3200   		.ascii	"N2\000"
 3651 0cb1 01       		.byte	0x1
ARM GAS  C:\Users\mgnocco\AppData\Local\Temp\ccOXEsk0.s 			page 74


 3652 0cb2 C8       		.byte	0xc8
 3653 0cb3 660C0000 		.4byte	0xc66
 3654 0cb7 02       		.uleb128 0x2
 3655 0cb8 91       		.byte	0x91
 3656 0cb9 60       		.sleb128 -32
 3657 0cba 14       		.uleb128 0x14
 3658 0cbb 493100   		.ascii	"I1\000"
 3659 0cbe 01       		.byte	0x1
 3660 0cbf C8       		.byte	0xc8
 3661 0cc0 660C0000 		.4byte	0xc66
 3662 0cc4 02       		.uleb128 0x2
 3663 0cc5 91       		.byte	0x91
 3664 0cc6 00       		.sleb128 0
 3665 0cc7 1C       		.uleb128 0x1c
 3666 0cc8 2C000000 		.4byte	.LBB2
 3667 0ccc 60000000 		.4byte	.LBE2-.LBB2
 3668 0cd0 18       		.uleb128 0x18
 3669 0cd1 7800     		.ascii	"x\000"
 3670 0cd3 01       		.byte	0x1
 3671 0cd4 CF       		.byte	0xcf
 3672 0cd5 BD000000 		.4byte	0xbd
 3673 0cd9 02       		.uleb128 0x2
 3674 0cda 91       		.byte	0x91
 3675 0cdb 74       		.sleb128 -12
 3676 0cdc 18       		.uleb128 0x18
 3677 0cdd 61757800 		.ascii	"aux\000"
 3678 0ce1 01       		.byte	0x1
 3679 0ce2 D1       		.byte	0xd1
 3680 0ce3 BD000000 		.4byte	0xbd
 3681 0ce7 02       		.uleb128 0x2
 3682 0ce8 91       		.byte	0x91
 3683 0ce9 70       		.sleb128 -16
 3684 0cea 00       		.byte	0
 3685 0ceb 00       		.byte	0
 3686 0cec 1D       		.uleb128 0x1d
 3687 0ced BF090000 		.4byte	.LASF161
 3688 0cf1 01       		.byte	0x1
 3689 0cf2 DA       		.byte	0xda
 3690 0cf3 00000000 		.4byte	.LFB70
 3691 0cf7 7C030000 		.4byte	.LFE70-.LFB70
 3692 0cfb 01       		.uleb128 0x1
 3693 0cfc 9C       		.byte	0x9c
 3694 0cfd 930D0000 		.4byte	0xd93
 3695 0d01 15       		.uleb128 0x15
 3696 0d02 15000000 		.4byte	.LASF162
 3697 0d06 01       		.byte	0x1
 3698 0d07 DC       		.byte	0xdc
 3699 0d08 99000000 		.4byte	0x99
 3700 0d0c 05       		.uleb128 0x5
 3701 0d0d 03       		.byte	0x3
 3702 0d0e 14000000 		.4byte	count.9587
 3703 0d12 15       		.uleb128 0x15
 3704 0d13 EB060000 		.4byte	.LASF163
 3705 0d17 01       		.byte	0x1
 3706 0d18 DD       		.byte	0xdd
 3707 0d19 81000000 		.4byte	0x81
 3708 0d1d 05       		.uleb128 0x5
ARM GAS  C:\Users\mgnocco\AppData\Local\Temp\ccOXEsk0.s 			page 75


 3709 0d1e 03       		.byte	0x3
 3710 0d1f 01000000 		.4byte	flag_count.9588
 3711 0d23 15       		.uleb128 0x15
 3712 0d24 AD070000 		.4byte	.LASF164
 3713 0d28 01       		.byte	0x1
 3714 0d29 DE       		.byte	0xde
 3715 0d2a 81000000 		.4byte	0x81
 3716 0d2e 05       		.uleb128 0x5
 3717 0d2f 03       		.byte	0x3
 3718 0d30 00000000 		.4byte	first_time.9589
 3719 0d34 18       		.uleb128 0x18
 3720 0d35 6D00     		.ascii	"m\000"
 3721 0d37 01       		.byte	0x1
 3722 0d38 DF       		.byte	0xdf
 3723 0d39 D5000000 		.4byte	0xd5
 3724 0d3d 05       		.uleb128 0x5
 3725 0d3e 03       		.byte	0x3
 3726 0d3f 18000000 		.4byte	m.9590
 3727 0d43 15       		.uleb128 0x15
 3728 0d44 D1030000 		.4byte	.LASF165
 3729 0d48 01       		.byte	0x1
 3730 0d49 E0       		.byte	0xe0
 3731 0d4a BD000000 		.4byte	0xbd
 3732 0d4e 05       		.uleb128 0x5
 3733 0d4f 03       		.byte	0x3
 3734 0d50 1C000000 		.4byte	abs_err_thr.9591
 3735 0d54 15       		.uleb128 0x15
 3736 0d55 99010000 		.4byte	.LASF166
 3737 0d59 01       		.byte	0x1
 3738 0d5a E1       		.byte	0xe1
 3739 0d5b BD000000 		.4byte	0xbd
 3740 0d5f 05       		.uleb128 0x5
 3741 0d60 03       		.byte	0x3
 3742 0d61 24000000 		.4byte	delta_inc.9592
 3743 0d65 15       		.uleb128 0x15
 3744 0d66 51000000 		.4byte	.LASF167
 3745 0d6a 01       		.byte	0x1
 3746 0d6b E2       		.byte	0xe2
 3747 0d6c BD000000 		.4byte	0xbd
 3748 0d70 02       		.uleb128 0x2
 3749 0d71 91       		.byte	0x91
 3750 0d72 6C       		.sleb128 -20
 3751 0d73 15       		.uleb128 0x15
 3752 0d74 83000000 		.4byte	.LASF168
 3753 0d78 01       		.byte	0x1
 3754 0d79 E3       		.byte	0xe3
 3755 0d7a BD000000 		.4byte	0xbd
 3756 0d7e 05       		.uleb128 0x5
 3757 0d7f 03       		.byte	0x3
 3758 0d80 20000000 		.4byte	rest_error.9594
 3759 0d84 15       		.uleb128 0x15
 3760 0d85 230A0000 		.4byte	.LASF169
 3761 0d89 01       		.byte	0x1
 3762 0d8a E4       		.byte	0xe4
 3763 0d8b D5000000 		.4byte	0xd5
 3764 0d8f 02       		.uleb128 0x2
 3765 0d90 91       		.byte	0x91
ARM GAS  C:\Users\mgnocco\AppData\Local\Temp\ccOXEsk0.s 			page 76


 3766 0d91 68       		.sleb128 -24
 3767 0d92 00       		.byte	0
 3768 0d93 1E       		.uleb128 0x1e
 3769 0d94 61020000 		.4byte	.LASF170
 3770 0d98 01       		.byte	0x1
 3771 0d99 3A01     		.2byte	0x13a
 3772 0d9b 00000000 		.4byte	.LFB71
 3773 0d9f 8E000000 		.4byte	.LFE71-.LFB71
 3774 0da3 01       		.uleb128 0x1
 3775 0da4 9C       		.byte	0x9c
 3776 0da5 B90D0000 		.4byte	0xdb9
 3777 0da9 1F       		.uleb128 0x1f
 3778 0daa 3E080000 		.4byte	.LASF171
 3779 0dae 01       		.byte	0x1
 3780 0daf 3A01     		.2byte	0x13a
 3781 0db1 81000000 		.4byte	0x81
 3782 0db5 02       		.uleb128 0x2
 3783 0db6 91       		.byte	0x91
 3784 0db7 77       		.sleb128 -9
 3785 0db8 00       		.byte	0
 3786 0db9 20       		.uleb128 0x20
 3787 0dba 8E020000 		.4byte	.LASF172
 3788 0dbe 01       		.byte	0x1
 3789 0dbf 6401     		.2byte	0x164
 3790 0dc1 00000000 		.4byte	.LFB72
 3791 0dc5 0C000000 		.4byte	.LFE72-.LFB72
 3792 0dc9 01       		.uleb128 0x1
 3793 0dca 9C       		.byte	0x9c
 3794 0dcb 20       		.uleb128 0x20
 3795 0dcc F1030000 		.4byte	.LASF173
 3796 0dd0 01       		.byte	0x1
 3797 0dd1 6B01     		.2byte	0x16b
 3798 0dd3 00000000 		.4byte	.LFB73
 3799 0dd7 18000000 		.4byte	.LFE73-.LFB73
 3800 0ddb 01       		.uleb128 0x1
 3801 0ddc 9C       		.byte	0x9c
 3802 0ddd 1E       		.uleb128 0x1e
 3803 0dde D2050000 		.4byte	.LASF174
 3804 0de2 01       		.byte	0x1
 3805 0de3 8C01     		.2byte	0x18c
 3806 0de5 00000000 		.4byte	.LFB74
 3807 0de9 20000000 		.4byte	.LFE74-.LFB74
 3808 0ded 01       		.uleb128 0x1
 3809 0dee 9C       		.byte	0x9c
 3810 0def 120E0000 		.4byte	0xe12
 3811 0df3 21       		.uleb128 0x21
 3812 0df4 69647800 		.ascii	"idx\000"
 3813 0df8 01       		.byte	0x1
 3814 0df9 8C01     		.2byte	0x18c
 3815 0dfb 81000000 		.4byte	0x81
 3816 0dff 02       		.uleb128 0x2
 3817 0e00 91       		.byte	0x91
 3818 0e01 77       		.sleb128 -9
 3819 0e02 21       		.uleb128 0x21
 3820 0e03 76616C00 		.ascii	"val\000"
 3821 0e07 01       		.byte	0x1
 3822 0e08 8C01     		.2byte	0x18c
ARM GAS  C:\Users\mgnocco\AppData\Local\Temp\ccOXEsk0.s 			page 77


 3823 0e0a 81000000 		.4byte	0x81
 3824 0e0e 02       		.uleb128 0x2
 3825 0e0f 91       		.byte	0x91
 3826 0e10 76       		.sleb128 -10
 3827 0e11 00       		.byte	0
 3828 0e12 22       		.uleb128 0x22
 3829 0e13 75030000 		.4byte	.LASF56
 3830 0e17 01       		.byte	0x1
 3831 0e18 9701     		.2byte	0x197
 3832 0e1a 00000000 		.4byte	.LFB75
 3833 0e1e 98000000 		.4byte	.LFE75-.LFB75
 3834 0e22 01       		.uleb128 0x1
 3835 0e23 9C       		.byte	0x9c
 3836 0e24 360E0000 		.4byte	0xe36
 3837 0e28 23       		.uleb128 0x23
 3838 0e29 6900     		.ascii	"i\000"
 3839 0e2b 01       		.byte	0x1
 3840 0e2c 9801     		.2byte	0x198
 3841 0e2e 81000000 		.4byte	0x81
 3842 0e32 02       		.uleb128 0x2
 3843 0e33 91       		.byte	0x91
 3844 0e34 77       		.sleb128 -9
 3845 0e35 00       		.byte	0
 3846 0e36 24       		.uleb128 0x24
 3847 0e37 C2030000 		.4byte	.LASF175
 3848 0e3b 01       		.byte	0x1
 3849 0e3c AF01     		.2byte	0x1af
 3850 0e3e D5000000 		.4byte	0xd5
 3851 0e42 00000000 		.4byte	.LFB76
 3852 0e46 78000000 		.4byte	.LFE76-.LFB76
 3853 0e4a 01       		.uleb128 0x1
 3854 0e4b 9C       		.byte	0x9c
 3855 0e4c 870E0000 		.4byte	0xe87
 3856 0e50 21       		.uleb128 0x21
 3857 0e51 7800     		.ascii	"x\000"
 3858 0e53 01       		.byte	0x1
 3859 0e54 AF01     		.2byte	0x1af
 3860 0e56 D5000000 		.4byte	0xd5
 3861 0e5a 02       		.uleb128 0x2
 3862 0e5b 91       		.byte	0x91
 3863 0e5c 64       		.sleb128 -28
 3864 0e5d 25       		.uleb128 0x25
 3865 0e5e E9020000 		.4byte	.LASF176
 3866 0e62 01       		.byte	0x1
 3867 0e63 B001     		.2byte	0x1b0
 3868 0e65 D5000000 		.4byte	0xd5
 3869 0e69 02       		.uleb128 0x2
 3870 0e6a 91       		.byte	0x91
 3871 0e6b 74       		.sleb128 -12
 3872 0e6c 23       		.uleb128 0x23
 3873 0e6d 7900     		.ascii	"y\000"
 3874 0e6f 01       		.byte	0x1
 3875 0e70 B101     		.2byte	0x1b1
 3876 0e72 D5000000 		.4byte	0xd5
 3877 0e76 02       		.uleb128 0x2
 3878 0e77 91       		.byte	0x91
 3879 0e78 70       		.sleb128 -16
ARM GAS  C:\Users\mgnocco\AppData\Local\Temp\ccOXEsk0.s 			page 78


 3880 0e79 23       		.uleb128 0x23
 3881 0e7a 6900     		.ascii	"i\000"
 3882 0e7c 01       		.byte	0x1
 3883 0e7d B201     		.2byte	0x1b2
 3884 0e7f 4C000000 		.4byte	0x4c
 3885 0e83 02       		.uleb128 0x2
 3886 0e84 91       		.byte	0x91
 3887 0e85 6C       		.sleb128 -20
 3888 0e86 00       		.byte	0
 3889 0e87 1E       		.uleb128 0x1e
 3890 0e88 EC090000 		.4byte	.LASF177
 3891 0e8c 01       		.byte	0x1
 3892 0e8d BC01     		.2byte	0x1bc
 3893 0e8f 00000000 		.4byte	.LFB77
 3894 0e93 B0000000 		.4byte	.LFE77-.LFB77
 3895 0e97 01       		.uleb128 0x1
 3896 0e98 9C       		.byte	0x9c
 3897 0e99 BC0E0000 		.4byte	0xebc
 3898 0e9d 1F       		.uleb128 0x1f
 3899 0e9e F6010000 		.4byte	.LASF178
 3900 0ea2 01       		.byte	0x1
 3901 0ea3 BC01     		.2byte	0x1bc
 3902 0ea5 BC0E0000 		.4byte	0xebc
 3903 0ea9 02       		.uleb128 0x2
 3904 0eaa 91       		.byte	0x91
 3905 0eab 64       		.sleb128 -28
 3906 0eac 25       		.uleb128 0x25
 3907 0ead E6010000 		.4byte	.LASF179
 3908 0eb1 01       		.byte	0x1
 3909 0eb2 BE01     		.2byte	0x1be
 3910 0eb4 D5000000 		.4byte	0xd5
 3911 0eb8 02       		.uleb128 0x2
 3912 0eb9 91       		.byte	0x91
 3913 0eba 6C       		.sleb128 -20
 3914 0ebb 00       		.byte	0
 3915 0ebc 19       		.uleb128 0x19
 3916 0ebd 04       		.byte	0x4
 3917 0ebe D5000000 		.4byte	0xd5
 3918 0ec2 1E       		.uleb128 0x1e
 3919 0ec3 75080000 		.4byte	.LASF180
 3920 0ec7 01       		.byte	0x1
 3921 0ec8 C801     		.2byte	0x1c8
 3922 0eca 00000000 		.4byte	.LFB78
 3923 0ece EA000000 		.4byte	.LFE78-.LFB78
 3924 0ed2 01       		.uleb128 0x1
 3925 0ed3 9C       		.byte	0x9c
 3926 0ed4 F70E0000 		.4byte	0xef7
 3927 0ed8 1F       		.uleb128 0x1f
 3928 0ed9 88020000 		.4byte	.LASF181
 3929 0edd 01       		.byte	0x1
 3930 0ede C801     		.2byte	0x1c8
 3931 0ee0 BC0E0000 		.4byte	0xebc
 3932 0ee4 02       		.uleb128 0x2
 3933 0ee5 91       		.byte	0x91
 3934 0ee6 64       		.sleb128 -28
 3935 0ee7 25       		.uleb128 0x25
 3936 0ee8 E6010000 		.4byte	.LASF179
ARM GAS  C:\Users\mgnocco\AppData\Local\Temp\ccOXEsk0.s 			page 79


 3937 0eec 01       		.byte	0x1
 3938 0eed CA01     		.2byte	0x1ca
 3939 0eef D5000000 		.4byte	0xd5
 3940 0ef3 02       		.uleb128 0x2
 3941 0ef4 91       		.byte	0x91
 3942 0ef5 6C       		.sleb128 -20
 3943 0ef6 00       		.byte	0
 3944 0ef7 26       		.uleb128 0x26
 3945 0ef8 7B060000 		.4byte	.LASF182
 3946 0efc 01       		.byte	0x1
 3947 0efd D501     		.2byte	0x1d5
 3948 0eff 00000000 		.4byte	.LFB79
 3949 0f03 90000000 		.4byte	.LFE79-.LFB79
 3950 0f07 01       		.uleb128 0x1
 3951 0f08 9C       		.byte	0x9c
 3952 0f09 550F0000 		.4byte	0xf55
 3953 0f0d 25       		.uleb128 0x25
 3954 0f0e 2A090000 		.4byte	.LASF183
 3955 0f12 01       		.byte	0x1
 3956 0f13 D701     		.2byte	0x1d7
 3957 0f15 BD000000 		.4byte	0xbd
 3958 0f19 05       		.uleb128 0x5
 3959 0f1a 03       		.byte	0x3
 3960 0f1b 04000000 		.4byte	last_counter_value.9640
 3961 0f1f 25       		.uleb128 0x25
 3962 0f20 6A040000 		.4byte	.LASF184
 3963 0f24 01       		.byte	0x1
 3964 0f25 D901     		.2byte	0x1d9
 3965 0f27 99000000 		.4byte	0x99
 3966 0f2b 02       		.uleb128 0x2
 3967 0f2c 91       		.byte	0x91
 3968 0f2d 70       		.sleb128 -16
 3969 0f2e 25       		.uleb128 0x25
 3970 0f2f BA0A0000 		.4byte	.LASF185
 3971 0f33 01       		.byte	0x1
 3972 0f34 DA01     		.2byte	0x1da
 3973 0f36 BD000000 		.4byte	0xbd
 3974 0f3a 02       		.uleb128 0x2
 3975 0f3b 91       		.byte	0x91
 3976 0f3c 6C       		.sleb128 -20
 3977 0f3d 1C       		.uleb128 0x1c
 3978 0f3e 28000000 		.4byte	.LBB3
 3979 0f42 2E000000 		.4byte	.LBE3-.LBB3
 3980 0f46 23       		.uleb128 0x23
 3981 0f47 6900     		.ascii	"i\000"
 3982 0f49 01       		.byte	0x1
 3983 0f4a E001     		.2byte	0x1e0
 3984 0f4c 68000000 		.4byte	0x68
 3985 0f50 02       		.uleb128 0x2
 3986 0f51 91       		.byte	0x91
 3987 0f52 74       		.sleb128 -12
 3988 0f53 00       		.byte	0
 3989 0f54 00       		.byte	0
 3990 0f55 27       		.uleb128 0x27
 3991 0f56 8C010000 		.4byte	.LASF186
 3992 0f5a 06       		.byte	0x6
 3993 0f5b 1207     		.2byte	0x712
ARM GAS  C:\Users\mgnocco\AppData\Local\Temp\ccOXEsk0.s 			page 80


 3994 0f5d 610F0000 		.4byte	0xf61
 3995 0f61 28       		.uleb128 0x28
 3996 0f62 76000000 		.4byte	0x76
 3997 0f66 06       		.uleb128 0x6
 3998 0f67 49010000 		.4byte	0x149
 3999 0f6b 760F0000 		.4byte	0xf76
 4000 0f6f 07       		.uleb128 0x7
 4001 0f70 F1000000 		.4byte	0xf1
 4002 0f74 01       		.byte	0x1
 4003 0f75 00       		.byte	0
 4004 0f76 27       		.uleb128 0x27
 4005 0f77 5C040000 		.4byte	.LASF187
 4006 0f7b 05       		.byte	0x5
 4007 0f7c 2202     		.2byte	0x222
 4008 0f7e 660F0000 		.4byte	0xf66
 4009 0f82 06       		.uleb128 0x6
 4010 0f83 86010000 		.4byte	0x186
 4011 0f87 920F0000 		.4byte	0xf92
 4012 0f8b 07       		.uleb128 0x7
 4013 0f8c F1000000 		.4byte	0xf1
 4014 0f90 01       		.byte	0x1
 4015 0f91 00       		.byte	0
 4016 0f92 27       		.uleb128 0x27
 4017 0f93 37080000 		.4byte	.LASF188
 4018 0f97 05       		.byte	0x5
 4019 0f98 2302     		.2byte	0x223
 4020 0f9a 820F0000 		.4byte	0xf82
 4021 0f9e 27       		.uleb128 0x27
 4022 0f9f 560A0000 		.4byte	.LASF189
 4023 0fa3 05       		.byte	0x5
 4024 0fa4 2402     		.2byte	0x224
 4025 0fa6 07020000 		.4byte	0x207
 4026 0faa 27       		.uleb128 0x27
 4027 0fab 28060000 		.4byte	.LASF190
 4028 0faf 05       		.byte	0x5
 4029 0fb0 2702     		.2byte	0x227
 4030 0fb2 13090000 		.4byte	0x913
 4031 0fb6 27       		.uleb128 0x27
 4032 0fb7 40000000 		.4byte	.LASF191
 4033 0fbb 05       		.byte	0x5
 4034 0fbc 2702     		.2byte	0x227
 4035 0fbe 13090000 		.4byte	0x913
 4036 0fc2 27       		.uleb128 0x27
 4037 0fc3 8E000000 		.4byte	.LASF192
 4038 0fc7 05       		.byte	0x5
 4039 0fc8 2802     		.2byte	0x228
 4040 0fca 700A0000 		.4byte	0xa70
 4041 0fce 27       		.uleb128 0x27
 4042 0fcf 13060000 		.4byte	.LASF193
 4043 0fd3 05       		.byte	0x5
 4044 0fd4 4602     		.2byte	0x246
 4045 0fd6 81000000 		.4byte	0x81
 4046 0fda 27       		.uleb128 0x27
 4047 0fdb FC010000 		.4byte	.LASF194
 4048 0fdf 05       		.byte	0x5
 4049 0fe0 4702     		.2byte	0x247
 4050 0fe2 81000000 		.4byte	0x81
ARM GAS  C:\Users\mgnocco\AppData\Local\Temp\ccOXEsk0.s 			page 81


 4051 0fe6 27       		.uleb128 0x27
 4052 0fe7 2E060000 		.4byte	.LASF195
 4053 0feb 05       		.byte	0x5
 4054 0fec 4E02     		.2byte	0x24e
 4055 0fee 81000000 		.4byte	0x81
 4056 0ff2 27       		.uleb128 0x27
 4057 0ff3 1E050000 		.4byte	.LASF196
 4058 0ff7 05       		.byte	0x5
 4059 0ff8 5B02     		.2byte	0x25b
 4060 0ffa BD000000 		.4byte	0xbd
 4061 0ffe 06       		.uleb128 0x6
 4062 0fff 8D000000 		.4byte	0x8d
 4063 1003 15100000 		.4byte	0x1015
 4064 1007 29       		.uleb128 0x29
 4065 1008 F1000000 		.4byte	0xf1
 4066 100c 5702     		.2byte	0x257
 4067 100e 07       		.uleb128 0x7
 4068 100f F1000000 		.4byte	0xf1
 4069 1013 01       		.byte	0x1
 4070 1014 00       		.byte	0
 4071 1015 27       		.uleb128 0x27
 4072 1016 B0080000 		.4byte	.LASF197
 4073 101a 05       		.byte	0x5
 4074 101b 7602     		.2byte	0x276
 4075 101d FE0F0000 		.4byte	0xffe
 4076 1021 27       		.uleb128 0x27
 4077 1022 3D090000 		.4byte	.LASF198
 4078 1026 05       		.byte	0x5
 4079 1027 7702     		.2byte	0x277
 4080 1029 99000000 		.4byte	0x99
 4081 102d 00       		.byte	0
 4082              		.section	.debug_abbrev,"",%progbits
 4083              	.Ldebug_abbrev0:
 4084 0000 01       		.uleb128 0x1
 4085 0001 11       		.uleb128 0x11
 4086 0002 01       		.byte	0x1
 4087 0003 25       		.uleb128 0x25
 4088 0004 0E       		.uleb128 0xe
 4089 0005 13       		.uleb128 0x13
 4090 0006 0B       		.uleb128 0xb
 4091 0007 03       		.uleb128 0x3
 4092 0008 0E       		.uleb128 0xe
 4093 0009 1B       		.uleb128 0x1b
 4094 000a 0E       		.uleb128 0xe
 4095 000b 55       		.uleb128 0x55
 4096 000c 17       		.uleb128 0x17
 4097 000d 11       		.uleb128 0x11
 4098 000e 01       		.uleb128 0x1
 4099 000f 10       		.uleb128 0x10
 4100 0010 17       		.uleb128 0x17
 4101 0011 00       		.byte	0
 4102 0012 00       		.byte	0
 4103 0013 02       		.uleb128 0x2
 4104 0014 24       		.uleb128 0x24
 4105 0015 00       		.byte	0
 4106 0016 0B       		.uleb128 0xb
 4107 0017 0B       		.uleb128 0xb
ARM GAS  C:\Users\mgnocco\AppData\Local\Temp\ccOXEsk0.s 			page 82


 4108 0018 3E       		.uleb128 0x3e
 4109 0019 0B       		.uleb128 0xb
 4110 001a 03       		.uleb128 0x3
 4111 001b 0E       		.uleb128 0xe
 4112 001c 00       		.byte	0
 4113 001d 00       		.byte	0
 4114 001e 03       		.uleb128 0x3
 4115 001f 16       		.uleb128 0x16
 4116 0020 00       		.byte	0
 4117 0021 03       		.uleb128 0x3
 4118 0022 0E       		.uleb128 0xe
 4119 0023 3A       		.uleb128 0x3a
 4120 0024 0B       		.uleb128 0xb
 4121 0025 3B       		.uleb128 0x3b
 4122 0026 0B       		.uleb128 0xb
 4123 0027 49       		.uleb128 0x49
 4124 0028 13       		.uleb128 0x13
 4125 0029 00       		.byte	0
 4126 002a 00       		.byte	0
 4127 002b 04       		.uleb128 0x4
 4128 002c 24       		.uleb128 0x24
 4129 002d 00       		.byte	0
 4130 002e 0B       		.uleb128 0xb
 4131 002f 0B       		.uleb128 0xb
 4132 0030 3E       		.uleb128 0x3e
 4133 0031 0B       		.uleb128 0xb
 4134 0032 03       		.uleb128 0x3
 4135 0033 08       		.uleb128 0x8
 4136 0034 00       		.byte	0
 4137 0035 00       		.byte	0
 4138 0036 05       		.uleb128 0x5
 4139 0037 16       		.uleb128 0x16
 4140 0038 00       		.byte	0
 4141 0039 03       		.uleb128 0x3
 4142 003a 0E       		.uleb128 0xe
 4143 003b 3A       		.uleb128 0x3a
 4144 003c 0B       		.uleb128 0xb
 4145 003d 3B       		.uleb128 0x3b
 4146 003e 05       		.uleb128 0x5
 4147 003f 49       		.uleb128 0x49
 4148 0040 13       		.uleb128 0x13
 4149 0041 00       		.byte	0
 4150 0042 00       		.byte	0
 4151 0043 06       		.uleb128 0x6
 4152 0044 01       		.uleb128 0x1
 4153 0045 01       		.byte	0x1
 4154 0046 49       		.uleb128 0x49
 4155 0047 13       		.uleb128 0x13
 4156 0048 01       		.uleb128 0x1
 4157 0049 13       		.uleb128 0x13
 4158 004a 00       		.byte	0
 4159 004b 00       		.byte	0
 4160 004c 07       		.uleb128 0x7
 4161 004d 21       		.uleb128 0x21
 4162 004e 00       		.byte	0
 4163 004f 49       		.uleb128 0x49
 4164 0050 13       		.uleb128 0x13
ARM GAS  C:\Users\mgnocco\AppData\Local\Temp\ccOXEsk0.s 			page 83


 4165 0051 2F       		.uleb128 0x2f
 4166 0052 0B       		.uleb128 0xb
 4167 0053 00       		.byte	0
 4168 0054 00       		.byte	0
 4169 0055 08       		.uleb128 0x8
 4170 0056 04       		.uleb128 0x4
 4171 0057 01       		.byte	0x1
 4172 0058 03       		.uleb128 0x3
 4173 0059 0E       		.uleb128 0xe
 4174 005a 0B       		.uleb128 0xb
 4175 005b 0B       		.uleb128 0xb
 4176 005c 49       		.uleb128 0x49
 4177 005d 13       		.uleb128 0x13
 4178 005e 3A       		.uleb128 0x3a
 4179 005f 0B       		.uleb128 0xb
 4180 0060 3B       		.uleb128 0x3b
 4181 0061 0B       		.uleb128 0xb
 4182 0062 01       		.uleb128 0x1
 4183 0063 13       		.uleb128 0x13
 4184 0064 00       		.byte	0
 4185 0065 00       		.byte	0
 4186 0066 09       		.uleb128 0x9
 4187 0067 28       		.uleb128 0x28
 4188 0068 00       		.byte	0
 4189 0069 03       		.uleb128 0x3
 4190 006a 0E       		.uleb128 0xe
 4191 006b 1C       		.uleb128 0x1c
 4192 006c 0B       		.uleb128 0xb
 4193 006d 00       		.byte	0
 4194 006e 00       		.byte	0
 4195 006f 0A       		.uleb128 0xa
 4196 0070 13       		.uleb128 0x13
 4197 0071 01       		.byte	0x1
 4198 0072 03       		.uleb128 0x3
 4199 0073 0E       		.uleb128 0xe
 4200 0074 0B       		.uleb128 0xb
 4201 0075 0B       		.uleb128 0xb
 4202 0076 3A       		.uleb128 0x3a
 4203 0077 0B       		.uleb128 0xb
 4204 0078 3B       		.uleb128 0x3b
 4205 0079 0B       		.uleb128 0xb
 4206 007a 01       		.uleb128 0x1
 4207 007b 13       		.uleb128 0x13
 4208 007c 00       		.byte	0
 4209 007d 00       		.byte	0
 4210 007e 0B       		.uleb128 0xb
 4211 007f 0D       		.uleb128 0xd
 4212 0080 00       		.byte	0
 4213 0081 03       		.uleb128 0x3
 4214 0082 08       		.uleb128 0x8
 4215 0083 3A       		.uleb128 0x3a
 4216 0084 0B       		.uleb128 0xb
 4217 0085 3B       		.uleb128 0x3b
 4218 0086 0B       		.uleb128 0xb
 4219 0087 49       		.uleb128 0x49
 4220 0088 13       		.uleb128 0x13
 4221 0089 38       		.uleb128 0x38
ARM GAS  C:\Users\mgnocco\AppData\Local\Temp\ccOXEsk0.s 			page 84


 4222 008a 0B       		.uleb128 0xb
 4223 008b 00       		.byte	0
 4224 008c 00       		.byte	0
 4225 008d 0C       		.uleb128 0xc
 4226 008e 0D       		.uleb128 0xd
 4227 008f 00       		.byte	0
 4228 0090 03       		.uleb128 0x3
 4229 0091 0E       		.uleb128 0xe
 4230 0092 3A       		.uleb128 0x3a
 4231 0093 0B       		.uleb128 0xb
 4232 0094 3B       		.uleb128 0x3b
 4233 0095 0B       		.uleb128 0xb
 4234 0096 49       		.uleb128 0x49
 4235 0097 13       		.uleb128 0x13
 4236 0098 38       		.uleb128 0x38
 4237 0099 0B       		.uleb128 0xb
 4238 009a 00       		.byte	0
 4239 009b 00       		.byte	0
 4240 009c 0D       		.uleb128 0xd
 4241 009d 13       		.uleb128 0x13
 4242 009e 01       		.byte	0x1
 4243 009f 03       		.uleb128 0x3
 4244 00a0 0E       		.uleb128 0xe
 4245 00a1 0B       		.uleb128 0xb
 4246 00a2 0B       		.uleb128 0xb
 4247 00a3 3A       		.uleb128 0x3a
 4248 00a4 0B       		.uleb128 0xb
 4249 00a5 3B       		.uleb128 0x3b
 4250 00a6 05       		.uleb128 0x5
 4251 00a7 01       		.uleb128 0x1
 4252 00a8 13       		.uleb128 0x13
 4253 00a9 00       		.byte	0
 4254 00aa 00       		.byte	0
 4255 00ab 0E       		.uleb128 0xe
 4256 00ac 0D       		.uleb128 0xd
 4257 00ad 00       		.byte	0
 4258 00ae 03       		.uleb128 0x3
 4259 00af 0E       		.uleb128 0xe
 4260 00b0 3A       		.uleb128 0x3a
 4261 00b1 0B       		.uleb128 0xb
 4262 00b2 3B       		.uleb128 0x3b
 4263 00b3 05       		.uleb128 0x5
 4264 00b4 49       		.uleb128 0x49
 4265 00b5 13       		.uleb128 0x13
 4266 00b6 38       		.uleb128 0x38
 4267 00b7 0B       		.uleb128 0xb
 4268 00b8 00       		.byte	0
 4269 00b9 00       		.byte	0
 4270 00ba 0F       		.uleb128 0xf
 4271 00bb 0D       		.uleb128 0xd
 4272 00bc 00       		.byte	0
 4273 00bd 03       		.uleb128 0x3
 4274 00be 08       		.uleb128 0x8
 4275 00bf 3A       		.uleb128 0x3a
 4276 00c0 0B       		.uleb128 0xb
 4277 00c1 3B       		.uleb128 0x3b
 4278 00c2 05       		.uleb128 0x5
ARM GAS  C:\Users\mgnocco\AppData\Local\Temp\ccOXEsk0.s 			page 85


 4279 00c3 49       		.uleb128 0x49
 4280 00c4 13       		.uleb128 0x13
 4281 00c5 38       		.uleb128 0x38
 4282 00c6 0B       		.uleb128 0xb
 4283 00c7 00       		.byte	0
 4284 00c8 00       		.byte	0
 4285 00c9 10       		.uleb128 0x10
 4286 00ca 13       		.uleb128 0x13
 4287 00cb 01       		.byte	0x1
 4288 00cc 03       		.uleb128 0x3
 4289 00cd 0E       		.uleb128 0xe
 4290 00ce 0B       		.uleb128 0xb
 4291 00cf 05       		.uleb128 0x5
 4292 00d0 3A       		.uleb128 0x3a
 4293 00d1 0B       		.uleb128 0xb
 4294 00d2 3B       		.uleb128 0x3b
 4295 00d3 05       		.uleb128 0x5
 4296 00d4 01       		.uleb128 0x1
 4297 00d5 13       		.uleb128 0x13
 4298 00d6 00       		.byte	0
 4299 00d7 00       		.byte	0
 4300 00d8 11       		.uleb128 0x11
 4301 00d9 0D       		.uleb128 0xd
 4302 00da 00       		.byte	0
 4303 00db 03       		.uleb128 0x3
 4304 00dc 08       		.uleb128 0x8
 4305 00dd 3A       		.uleb128 0x3a
 4306 00de 0B       		.uleb128 0xb
 4307 00df 3B       		.uleb128 0x3b
 4308 00e0 05       		.uleb128 0x5
 4309 00e1 49       		.uleb128 0x49
 4310 00e2 13       		.uleb128 0x13
 4311 00e3 38       		.uleb128 0x38
 4312 00e4 05       		.uleb128 0x5
 4313 00e5 00       		.byte	0
 4314 00e6 00       		.byte	0
 4315 00e7 12       		.uleb128 0x12
 4316 00e8 0D       		.uleb128 0xd
 4317 00e9 00       		.byte	0
 4318 00ea 03       		.uleb128 0x3
 4319 00eb 0E       		.uleb128 0xe
 4320 00ec 3A       		.uleb128 0x3a
 4321 00ed 0B       		.uleb128 0xb
 4322 00ee 3B       		.uleb128 0x3b
 4323 00ef 05       		.uleb128 0x5
 4324 00f0 49       		.uleb128 0x49
 4325 00f1 13       		.uleb128 0x13
 4326 00f2 38       		.uleb128 0x38
 4327 00f3 05       		.uleb128 0x5
 4328 00f4 00       		.byte	0
 4329 00f5 00       		.byte	0
 4330 00f6 13       		.uleb128 0x13
 4331 00f7 2E       		.uleb128 0x2e
 4332 00f8 01       		.byte	0x1
 4333 00f9 3F       		.uleb128 0x3f
 4334 00fa 19       		.uleb128 0x19
 4335 00fb 03       		.uleb128 0x3
ARM GAS  C:\Users\mgnocco\AppData\Local\Temp\ccOXEsk0.s 			page 86


 4336 00fc 0E       		.uleb128 0xe
 4337 00fd 3A       		.uleb128 0x3a
 4338 00fe 0B       		.uleb128 0xb
 4339 00ff 3B       		.uleb128 0x3b
 4340 0100 0B       		.uleb128 0xb
 4341 0101 27       		.uleb128 0x27
 4342 0102 19       		.uleb128 0x19
 4343 0103 49       		.uleb128 0x49
 4344 0104 13       		.uleb128 0x13
 4345 0105 11       		.uleb128 0x11
 4346 0106 01       		.uleb128 0x1
 4347 0107 12       		.uleb128 0x12
 4348 0108 06       		.uleb128 0x6
 4349 0109 40       		.uleb128 0x40
 4350 010a 18       		.uleb128 0x18
 4351 010b 9642     		.uleb128 0x2116
 4352 010d 19       		.uleb128 0x19
 4353 010e 01       		.uleb128 0x1
 4354 010f 13       		.uleb128 0x13
 4355 0110 00       		.byte	0
 4356 0111 00       		.byte	0
 4357 0112 14       		.uleb128 0x14
 4358 0113 05       		.uleb128 0x5
 4359 0114 00       		.byte	0
 4360 0115 03       		.uleb128 0x3
 4361 0116 08       		.uleb128 0x8
 4362 0117 3A       		.uleb128 0x3a
 4363 0118 0B       		.uleb128 0xb
 4364 0119 3B       		.uleb128 0x3b
 4365 011a 0B       		.uleb128 0xb
 4366 011b 49       		.uleb128 0x49
 4367 011c 13       		.uleb128 0x13
 4368 011d 02       		.uleb128 0x2
 4369 011e 18       		.uleb128 0x18
 4370 011f 00       		.byte	0
 4371 0120 00       		.byte	0
 4372 0121 15       		.uleb128 0x15
 4373 0122 34       		.uleb128 0x34
 4374 0123 00       		.byte	0
 4375 0124 03       		.uleb128 0x3
 4376 0125 0E       		.uleb128 0xe
 4377 0126 3A       		.uleb128 0x3a
 4378 0127 0B       		.uleb128 0xb
 4379 0128 3B       		.uleb128 0x3b
 4380 0129 0B       		.uleb128 0xb
 4381 012a 49       		.uleb128 0x49
 4382 012b 13       		.uleb128 0x13
 4383 012c 02       		.uleb128 0x2
 4384 012d 18       		.uleb128 0x18
 4385 012e 00       		.byte	0
 4386 012f 00       		.byte	0
 4387 0130 16       		.uleb128 0x16
 4388 0131 2E       		.uleb128 0x2e
 4389 0132 01       		.byte	0x1
 4390 0133 3F       		.uleb128 0x3f
 4391 0134 19       		.uleb128 0x19
 4392 0135 03       		.uleb128 0x3
ARM GAS  C:\Users\mgnocco\AppData\Local\Temp\ccOXEsk0.s 			page 87


 4393 0136 0E       		.uleb128 0xe
 4394 0137 3A       		.uleb128 0x3a
 4395 0138 0B       		.uleb128 0xb
 4396 0139 3B       		.uleb128 0x3b
 4397 013a 0B       		.uleb128 0xb
 4398 013b 27       		.uleb128 0x27
 4399 013c 19       		.uleb128 0x19
 4400 013d 49       		.uleb128 0x49
 4401 013e 13       		.uleb128 0x13
 4402 013f 11       		.uleb128 0x11
 4403 0140 01       		.uleb128 0x1
 4404 0141 12       		.uleb128 0x12
 4405 0142 06       		.uleb128 0x6
 4406 0143 40       		.uleb128 0x40
 4407 0144 18       		.uleb128 0x18
 4408 0145 9742     		.uleb128 0x2117
 4409 0147 19       		.uleb128 0x19
 4410 0148 01       		.uleb128 0x1
 4411 0149 13       		.uleb128 0x13
 4412 014a 00       		.byte	0
 4413 014b 00       		.byte	0
 4414 014c 17       		.uleb128 0x17
 4415 014d 05       		.uleb128 0x5
 4416 014e 00       		.byte	0
 4417 014f 03       		.uleb128 0x3
 4418 0150 0E       		.uleb128 0xe
 4419 0151 3A       		.uleb128 0x3a
 4420 0152 0B       		.uleb128 0xb
 4421 0153 3B       		.uleb128 0x3b
 4422 0154 0B       		.uleb128 0xb
 4423 0155 49       		.uleb128 0x49
 4424 0156 13       		.uleb128 0x13
 4425 0157 02       		.uleb128 0x2
 4426 0158 18       		.uleb128 0x18
 4427 0159 00       		.byte	0
 4428 015a 00       		.byte	0
 4429 015b 18       		.uleb128 0x18
 4430 015c 34       		.uleb128 0x34
 4431 015d 00       		.byte	0
 4432 015e 03       		.uleb128 0x3
 4433 015f 08       		.uleb128 0x8
 4434 0160 3A       		.uleb128 0x3a
 4435 0161 0B       		.uleb128 0xb
 4436 0162 3B       		.uleb128 0x3b
 4437 0163 0B       		.uleb128 0xb
 4438 0164 49       		.uleb128 0x49
 4439 0165 13       		.uleb128 0x13
 4440 0166 02       		.uleb128 0x2
 4441 0167 18       		.uleb128 0x18
 4442 0168 00       		.byte	0
 4443 0169 00       		.byte	0
 4444 016a 19       		.uleb128 0x19
 4445 016b 0F       		.uleb128 0xf
 4446 016c 00       		.byte	0
 4447 016d 0B       		.uleb128 0xb
 4448 016e 0B       		.uleb128 0xb
 4449 016f 49       		.uleb128 0x49
ARM GAS  C:\Users\mgnocco\AppData\Local\Temp\ccOXEsk0.s 			page 88


 4450 0170 13       		.uleb128 0x13
 4451 0171 00       		.byte	0
 4452 0172 00       		.byte	0
 4453 0173 1A       		.uleb128 0x1a
 4454 0174 2E       		.uleb128 0x2e
 4455 0175 01       		.byte	0x1
 4456 0176 3F       		.uleb128 0x3f
 4457 0177 19       		.uleb128 0x19
 4458 0178 03       		.uleb128 0x3
 4459 0179 0E       		.uleb128 0xe
 4460 017a 3A       		.uleb128 0x3a
 4461 017b 0B       		.uleb128 0xb
 4462 017c 3B       		.uleb128 0x3b
 4463 017d 0B       		.uleb128 0xb
 4464 017e 27       		.uleb128 0x27
 4465 017f 19       		.uleb128 0x19
 4466 0180 11       		.uleb128 0x11
 4467 0181 01       		.uleb128 0x1
 4468 0182 12       		.uleb128 0x12
 4469 0183 06       		.uleb128 0x6
 4470 0184 40       		.uleb128 0x40
 4471 0185 18       		.uleb128 0x18
 4472 0186 9742     		.uleb128 0x2117
 4473 0188 19       		.uleb128 0x19
 4474 0189 01       		.uleb128 0x1
 4475 018a 13       		.uleb128 0x13
 4476 018b 00       		.byte	0
 4477 018c 00       		.byte	0
 4478 018d 1B       		.uleb128 0x1b
 4479 018e 26       		.uleb128 0x26
 4480 018f 00       		.byte	0
 4481 0190 49       		.uleb128 0x49
 4482 0191 13       		.uleb128 0x13
 4483 0192 00       		.byte	0
 4484 0193 00       		.byte	0
 4485 0194 1C       		.uleb128 0x1c
 4486 0195 0B       		.uleb128 0xb
 4487 0196 01       		.byte	0x1
 4488 0197 11       		.uleb128 0x11
 4489 0198 01       		.uleb128 0x1
 4490 0199 12       		.uleb128 0x12
 4491 019a 06       		.uleb128 0x6
 4492 019b 00       		.byte	0
 4493 019c 00       		.byte	0
 4494 019d 1D       		.uleb128 0x1d
 4495 019e 2E       		.uleb128 0x2e
 4496 019f 01       		.byte	0x1
 4497 01a0 3F       		.uleb128 0x3f
 4498 01a1 19       		.uleb128 0x19
 4499 01a2 03       		.uleb128 0x3
 4500 01a3 0E       		.uleb128 0xe
 4501 01a4 3A       		.uleb128 0x3a
 4502 01a5 0B       		.uleb128 0xb
 4503 01a6 3B       		.uleb128 0x3b
 4504 01a7 0B       		.uleb128 0xb
 4505 01a8 27       		.uleb128 0x27
 4506 01a9 19       		.uleb128 0x19
ARM GAS  C:\Users\mgnocco\AppData\Local\Temp\ccOXEsk0.s 			page 89


 4507 01aa 11       		.uleb128 0x11
 4508 01ab 01       		.uleb128 0x1
 4509 01ac 12       		.uleb128 0x12
 4510 01ad 06       		.uleb128 0x6
 4511 01ae 40       		.uleb128 0x40
 4512 01af 18       		.uleb128 0x18
 4513 01b0 9642     		.uleb128 0x2116
 4514 01b2 19       		.uleb128 0x19
 4515 01b3 01       		.uleb128 0x1
 4516 01b4 13       		.uleb128 0x13
 4517 01b5 00       		.byte	0
 4518 01b6 00       		.byte	0
 4519 01b7 1E       		.uleb128 0x1e
 4520 01b8 2E       		.uleb128 0x2e
 4521 01b9 01       		.byte	0x1
 4522 01ba 3F       		.uleb128 0x3f
 4523 01bb 19       		.uleb128 0x19
 4524 01bc 03       		.uleb128 0x3
 4525 01bd 0E       		.uleb128 0xe
 4526 01be 3A       		.uleb128 0x3a
 4527 01bf 0B       		.uleb128 0xb
 4528 01c0 3B       		.uleb128 0x3b
 4529 01c1 05       		.uleb128 0x5
 4530 01c2 27       		.uleb128 0x27
 4531 01c3 19       		.uleb128 0x19
 4532 01c4 11       		.uleb128 0x11
 4533 01c5 01       		.uleb128 0x1
 4534 01c6 12       		.uleb128 0x12
 4535 01c7 06       		.uleb128 0x6
 4536 01c8 40       		.uleb128 0x40
 4537 01c9 18       		.uleb128 0x18
 4538 01ca 9642     		.uleb128 0x2116
 4539 01cc 19       		.uleb128 0x19
 4540 01cd 01       		.uleb128 0x1
 4541 01ce 13       		.uleb128 0x13
 4542 01cf 00       		.byte	0
 4543 01d0 00       		.byte	0
 4544 01d1 1F       		.uleb128 0x1f
 4545 01d2 05       		.uleb128 0x5
 4546 01d3 00       		.byte	0
 4547 01d4 03       		.uleb128 0x3
 4548 01d5 0E       		.uleb128 0xe
 4549 01d6 3A       		.uleb128 0x3a
 4550 01d7 0B       		.uleb128 0xb
 4551 01d8 3B       		.uleb128 0x3b
 4552 01d9 05       		.uleb128 0x5
 4553 01da 49       		.uleb128 0x49
 4554 01db 13       		.uleb128 0x13
 4555 01dc 02       		.uleb128 0x2
 4556 01dd 18       		.uleb128 0x18
 4557 01de 00       		.byte	0
 4558 01df 00       		.byte	0
 4559 01e0 20       		.uleb128 0x20
 4560 01e1 2E       		.uleb128 0x2e
 4561 01e2 00       		.byte	0
 4562 01e3 3F       		.uleb128 0x3f
 4563 01e4 19       		.uleb128 0x19
ARM GAS  C:\Users\mgnocco\AppData\Local\Temp\ccOXEsk0.s 			page 90


 4564 01e5 03       		.uleb128 0x3
 4565 01e6 0E       		.uleb128 0xe
 4566 01e7 3A       		.uleb128 0x3a
 4567 01e8 0B       		.uleb128 0xb
 4568 01e9 3B       		.uleb128 0x3b
 4569 01ea 05       		.uleb128 0x5
 4570 01eb 11       		.uleb128 0x11
 4571 01ec 01       		.uleb128 0x1
 4572 01ed 12       		.uleb128 0x12
 4573 01ee 06       		.uleb128 0x6
 4574 01ef 40       		.uleb128 0x40
 4575 01f0 18       		.uleb128 0x18
 4576 01f1 9742     		.uleb128 0x2117
 4577 01f3 19       		.uleb128 0x19
 4578 01f4 00       		.byte	0
 4579 01f5 00       		.byte	0
 4580 01f6 21       		.uleb128 0x21
 4581 01f7 05       		.uleb128 0x5
 4582 01f8 00       		.byte	0
 4583 01f9 03       		.uleb128 0x3
 4584 01fa 08       		.uleb128 0x8
 4585 01fb 3A       		.uleb128 0x3a
 4586 01fc 0B       		.uleb128 0xb
 4587 01fd 3B       		.uleb128 0x3b
 4588 01fe 05       		.uleb128 0x5
 4589 01ff 49       		.uleb128 0x49
 4590 0200 13       		.uleb128 0x13
 4591 0201 02       		.uleb128 0x2
 4592 0202 18       		.uleb128 0x18
 4593 0203 00       		.byte	0
 4594 0204 00       		.byte	0
 4595 0205 22       		.uleb128 0x22
 4596 0206 2E       		.uleb128 0x2e
 4597 0207 01       		.byte	0x1
 4598 0208 3F       		.uleb128 0x3f
 4599 0209 19       		.uleb128 0x19
 4600 020a 03       		.uleb128 0x3
 4601 020b 0E       		.uleb128 0xe
 4602 020c 3A       		.uleb128 0x3a
 4603 020d 0B       		.uleb128 0xb
 4604 020e 3B       		.uleb128 0x3b
 4605 020f 05       		.uleb128 0x5
 4606 0210 11       		.uleb128 0x11
 4607 0211 01       		.uleb128 0x1
 4608 0212 12       		.uleb128 0x12
 4609 0213 06       		.uleb128 0x6
 4610 0214 40       		.uleb128 0x40
 4611 0215 18       		.uleb128 0x18
 4612 0216 9742     		.uleb128 0x2117
 4613 0218 19       		.uleb128 0x19
 4614 0219 01       		.uleb128 0x1
 4615 021a 13       		.uleb128 0x13
 4616 021b 00       		.byte	0
 4617 021c 00       		.byte	0
 4618 021d 23       		.uleb128 0x23
 4619 021e 34       		.uleb128 0x34
 4620 021f 00       		.byte	0
ARM GAS  C:\Users\mgnocco\AppData\Local\Temp\ccOXEsk0.s 			page 91


 4621 0220 03       		.uleb128 0x3
 4622 0221 08       		.uleb128 0x8
 4623 0222 3A       		.uleb128 0x3a
 4624 0223 0B       		.uleb128 0xb
 4625 0224 3B       		.uleb128 0x3b
 4626 0225 05       		.uleb128 0x5
 4627 0226 49       		.uleb128 0x49
 4628 0227 13       		.uleb128 0x13
 4629 0228 02       		.uleb128 0x2
 4630 0229 18       		.uleb128 0x18
 4631 022a 00       		.byte	0
 4632 022b 00       		.byte	0
 4633 022c 24       		.uleb128 0x24
 4634 022d 2E       		.uleb128 0x2e
 4635 022e 01       		.byte	0x1
 4636 022f 3F       		.uleb128 0x3f
 4637 0230 19       		.uleb128 0x19
 4638 0231 03       		.uleb128 0x3
 4639 0232 0E       		.uleb128 0xe
 4640 0233 3A       		.uleb128 0x3a
 4641 0234 0B       		.uleb128 0xb
 4642 0235 3B       		.uleb128 0x3b
 4643 0236 05       		.uleb128 0x5
 4644 0237 27       		.uleb128 0x27
 4645 0238 19       		.uleb128 0x19
 4646 0239 49       		.uleb128 0x49
 4647 023a 13       		.uleb128 0x13
 4648 023b 11       		.uleb128 0x11
 4649 023c 01       		.uleb128 0x1
 4650 023d 12       		.uleb128 0x12
 4651 023e 06       		.uleb128 0x6
 4652 023f 40       		.uleb128 0x40
 4653 0240 18       		.uleb128 0x18
 4654 0241 9642     		.uleb128 0x2116
 4655 0243 19       		.uleb128 0x19
 4656 0244 01       		.uleb128 0x1
 4657 0245 13       		.uleb128 0x13
 4658 0246 00       		.byte	0
 4659 0247 00       		.byte	0
 4660 0248 25       		.uleb128 0x25
 4661 0249 34       		.uleb128 0x34
 4662 024a 00       		.byte	0
 4663 024b 03       		.uleb128 0x3
 4664 024c 0E       		.uleb128 0xe
 4665 024d 3A       		.uleb128 0x3a
 4666 024e 0B       		.uleb128 0xb
 4667 024f 3B       		.uleb128 0x3b
 4668 0250 05       		.uleb128 0x5
 4669 0251 49       		.uleb128 0x49
 4670 0252 13       		.uleb128 0x13
 4671 0253 02       		.uleb128 0x2
 4672 0254 18       		.uleb128 0x18
 4673 0255 00       		.byte	0
 4674 0256 00       		.byte	0
 4675 0257 26       		.uleb128 0x26
 4676 0258 2E       		.uleb128 0x2e
 4677 0259 01       		.byte	0x1
ARM GAS  C:\Users\mgnocco\AppData\Local\Temp\ccOXEsk0.s 			page 92


 4678 025a 3F       		.uleb128 0x3f
 4679 025b 19       		.uleb128 0x19
 4680 025c 03       		.uleb128 0x3
 4681 025d 0E       		.uleb128 0xe
 4682 025e 3A       		.uleb128 0x3a
 4683 025f 0B       		.uleb128 0xb
 4684 0260 3B       		.uleb128 0x3b
 4685 0261 05       		.uleb128 0x5
 4686 0262 11       		.uleb128 0x11
 4687 0263 01       		.uleb128 0x1
 4688 0264 12       		.uleb128 0x12
 4689 0265 06       		.uleb128 0x6
 4690 0266 40       		.uleb128 0x40
 4691 0267 18       		.uleb128 0x18
 4692 0268 9642     		.uleb128 0x2116
 4693 026a 19       		.uleb128 0x19
 4694 026b 01       		.uleb128 0x1
 4695 026c 13       		.uleb128 0x13
 4696 026d 00       		.byte	0
 4697 026e 00       		.byte	0
 4698 026f 27       		.uleb128 0x27
 4699 0270 34       		.uleb128 0x34
 4700 0271 00       		.byte	0
 4701 0272 03       		.uleb128 0x3
 4702 0273 0E       		.uleb128 0xe
 4703 0274 3A       		.uleb128 0x3a
 4704 0275 0B       		.uleb128 0xb
 4705 0276 3B       		.uleb128 0x3b
 4706 0277 05       		.uleb128 0x5
 4707 0278 49       		.uleb128 0x49
 4708 0279 13       		.uleb128 0x13
 4709 027a 3F       		.uleb128 0x3f
 4710 027b 19       		.uleb128 0x19
 4711 027c 3C       		.uleb128 0x3c
 4712 027d 19       		.uleb128 0x19
 4713 027e 00       		.byte	0
 4714 027f 00       		.byte	0
 4715 0280 28       		.uleb128 0x28
 4716 0281 35       		.uleb128 0x35
 4717 0282 00       		.byte	0
 4718 0283 49       		.uleb128 0x49
 4719 0284 13       		.uleb128 0x13
 4720 0285 00       		.byte	0
 4721 0286 00       		.byte	0
 4722 0287 29       		.uleb128 0x29
 4723 0288 21       		.uleb128 0x21
 4724 0289 00       		.byte	0
 4725 028a 49       		.uleb128 0x49
 4726 028b 13       		.uleb128 0x13
 4727 028c 2F       		.uleb128 0x2f
 4728 028d 05       		.uleb128 0x5
 4729 028e 00       		.byte	0
 4730 028f 00       		.byte	0
 4731 0290 00       		.byte	0
 4732              		.section	.debug_aranges,"",%progbits
 4733 0000 94000000 		.4byte	0x94
 4734 0004 0200     		.2byte	0x2
ARM GAS  C:\Users\mgnocco\AppData\Local\Temp\ccOXEsk0.s 			page 93


 4735 0006 00000000 		.4byte	.Ldebug_info0
 4736 000a 04       		.byte	0x4
 4737 000b 00       		.byte	0
 4738 000c 0000     		.2byte	0
 4739 000e 0000     		.2byte	0
 4740 0010 00000000 		.4byte	.LFB64
 4741 0014 70020000 		.4byte	.LFE64-.LFB64
 4742 0018 00000000 		.4byte	.LFB65
 4743 001c 4E000000 		.4byte	.LFE65-.LFB65
 4744 0020 00000000 		.4byte	.LFB66
 4745 0024 50000000 		.4byte	.LFE66-.LFB66
 4746 0028 00000000 		.4byte	.LFB67
 4747 002c D4000000 		.4byte	.LFE67-.LFB67
 4748 0030 00000000 		.4byte	.LFB68
 4749 0034 C4000000 		.4byte	.LFE68-.LFB68
 4750 0038 00000000 		.4byte	.LFB69
 4751 003c 98000000 		.4byte	.LFE69-.LFB69
 4752 0040 00000000 		.4byte	.LFB70
 4753 0044 7C030000 		.4byte	.LFE70-.LFB70
 4754 0048 00000000 		.4byte	.LFB71
 4755 004c 8E000000 		.4byte	.LFE71-.LFB71
 4756 0050 00000000 		.4byte	.LFB72
 4757 0054 0C000000 		.4byte	.LFE72-.LFB72
 4758 0058 00000000 		.4byte	.LFB73
 4759 005c 18000000 		.4byte	.LFE73-.LFB73
 4760 0060 00000000 		.4byte	.LFB74
 4761 0064 20000000 		.4byte	.LFE74-.LFB74
 4762 0068 00000000 		.4byte	.LFB75
 4763 006c 98000000 		.4byte	.LFE75-.LFB75
 4764 0070 00000000 		.4byte	.LFB76
 4765 0074 78000000 		.4byte	.LFE76-.LFB76
 4766 0078 00000000 		.4byte	.LFB77
 4767 007c B0000000 		.4byte	.LFE77-.LFB77
 4768 0080 00000000 		.4byte	.LFB78
 4769 0084 EA000000 		.4byte	.LFE78-.LFB78
 4770 0088 00000000 		.4byte	.LFB79
 4771 008c 90000000 		.4byte	.LFE79-.LFB79
 4772 0090 00000000 		.4byte	0
 4773 0094 00000000 		.4byte	0
 4774              		.section	.debug_ranges,"",%progbits
 4775              	.Ldebug_ranges0:
 4776 0000 00000000 		.4byte	.LFB64
 4777 0004 70020000 		.4byte	.LFE64
 4778 0008 00000000 		.4byte	.LFB65
 4779 000c 4E000000 		.4byte	.LFE65
 4780 0010 00000000 		.4byte	.LFB66
 4781 0014 50000000 		.4byte	.LFE66
 4782 0018 00000000 		.4byte	.LFB67
 4783 001c D4000000 		.4byte	.LFE67
 4784 0020 00000000 		.4byte	.LFB68
 4785 0024 C4000000 		.4byte	.LFE68
 4786 0028 00000000 		.4byte	.LFB69
 4787 002c 98000000 		.4byte	.LFE69
 4788 0030 00000000 		.4byte	.LFB70
 4789 0034 7C030000 		.4byte	.LFE70
 4790 0038 00000000 		.4byte	.LFB71
 4791 003c 8E000000 		.4byte	.LFE71
ARM GAS  C:\Users\mgnocco\AppData\Local\Temp\ccOXEsk0.s 			page 94


 4792 0040 00000000 		.4byte	.LFB72
 4793 0044 0C000000 		.4byte	.LFE72
 4794 0048 00000000 		.4byte	.LFB73
 4795 004c 18000000 		.4byte	.LFE73
 4796 0050 00000000 		.4byte	.LFB74
 4797 0054 20000000 		.4byte	.LFE74
 4798 0058 00000000 		.4byte	.LFB75
 4799 005c 98000000 		.4byte	.LFE75
 4800 0060 00000000 		.4byte	.LFB76
 4801 0064 78000000 		.4byte	.LFE76
 4802 0068 00000000 		.4byte	.LFB77
 4803 006c B0000000 		.4byte	.LFE77
 4804 0070 00000000 		.4byte	.LFB78
 4805 0074 EA000000 		.4byte	.LFE78
 4806 0078 00000000 		.4byte	.LFB79
 4807 007c 90000000 		.4byte	.LFE79
 4808 0080 00000000 		.4byte	0
 4809 0084 00000000 		.4byte	0
 4810              		.section	.debug_line,"",%progbits
 4811              	.Ldebug_line0:
 4812 0000 B8030000 		.section	.debug_str,"MS",%progbits,1
 4812      02006F01 
 4812      00000201 
 4812      FB0E0D00 
 4812      01010101 
 4813              	.LASF126:
 4814 0000 6D61785F 		.ascii	"max_residual_current\000"
 4814      72657369 
 4814      6475616C 
 4814      5F637572 
 4814      72656E74 
 4815              	.LASF162:
 4816 0015 636F756E 		.ascii	"count\000"
 4816      7400
 4817              	.LASF2:
 4818 001b 73686F72 		.ascii	"short int\000"
 4818      7420696E 
 4818      7400
 4819              	.LASF57:
 4820 0025 7573655F 		.ascii	"use_2nd_motor_flag\000"
 4820      326E645F 
 4820      6D6F746F 
 4820      725F666C 
 4820      616700
 4821              	.LASF34:
 4822 0038 73745F6D 		.ascii	"st_meas\000"
 4822      65617300 
 4823              	.LASF191:
 4824 0040 635F6D65 		.ascii	"c_mem\000"
 4824      6D00
 4825              	.LASF125:
 4826 0046 73745F46 		.ascii	"st_FB_spec\000"
 4826      425F7370 
 4826      656300
 4827              	.LASF167:
 4828 0051 6163745F 		.ascii	"act_pos\000"
 4828      706F7300 
ARM GAS  C:\Users\mgnocco\AppData\Local\Temp\ccOXEsk0.s 			page 95


 4829              	.LASF120:
 4830 0059 6A6F7973 		.ascii	"joystick_threshold\000"
 4830      7469636B 
 4830      5F746872 
 4830      6573686F 
 4830      6C6400
 4831              	.LASF100:
 4832 006c 73745F69 		.ascii	"st_imu\000"
 4832      6D7500
 4833              	.LASF155:
 4834 0073 636C6F73 		.ascii	"closure_counter\000"
 4834      7572655F 
 4834      636F756E 
 4834      74657200 
 4835              	.LASF168:
 4836 0083 72657374 		.ascii	"rest_error\000"
 4836      5F657272 
 4836      6F7200
 4837              	.LASF192:
 4838 008e 63616C69 		.ascii	"calib\000"
 4838      6200
 4839              	.LASF88:
 4840 0094 6D5F6F66 		.ascii	"m_off\000"
 4840      6600
 4841              	.LASF83:
 4842 009a 656E636F 		.ascii	"encoder_line\000"
 4842      6465725F 
 4842      6C696E65 
 4842      00
 4843              	.LASF144:
 4844 00a7 64697265 		.ascii	"direction\000"
 4844      6374696F 
 4844      6E00
 4845              	.LASF132:
 4846 00b1 77726973 		.ascii	"wrist_direction_association\000"
 4846      745F6469 
 4846      72656374 
 4846      696F6E5F 
 4846      6173736F 
 4847              	.LASF199:
 4848 00cd 474E5520 		.ascii	"GNU C11 5.4.1 20160609 (release) [ARM/embedded-5-br"
 4848      43313120 
 4848      352E342E 
 4848      31203230 
 4848      31363036 
 4849 0100 616E6368 		.ascii	"anch revision 237715] -mcpu=cortex-m3 -mthumb -g -O"
 4849      20726576 
 4849      6973696F 
 4849      6E203233 
 4849      37373135 
 4850 0133 30202D66 		.ascii	"0 -ffunction-sections -ffat-lto-objects\000"
 4850      66756E63 
 4850      74696F6E 
 4850      2D736563 
 4850      74696F6E 
 4851              	.LASF7:
 4852 015b 6C6F6E67 		.ascii	"long long unsigned int\000"
ARM GAS  C:\Users\mgnocco\AppData\Local\Temp\ccOXEsk0.s 			page 96


 4852      206C6F6E 
 4852      6720756E 
 4852      7369676E 
 4852      65642069 
 4853              	.LASF58:
 4854 0172 62617564 		.ascii	"baud_rate\000"
 4854      5F726174 
 4854      6500
 4855              	.LASF130:
 4856 017c 61637469 		.ascii	"activation_mode\000"
 4856      76617469 
 4856      6F6E5F6D 
 4856      6F646500 
 4857              	.LASF186:
 4858 018c 49544D5F 		.ascii	"ITM_RxBuffer\000"
 4858      52784275 
 4858      66666572 
 4858      00
 4859              	.LASF166:
 4860 0199 64656C74 		.ascii	"delta_inc\000"
 4860      615F696E 
 4860      6300
 4861              	.LASF153:
 4862 01a3 6D795F6D 		.ascii	"my_mod\000"
 4862      6F6400
 4863              	.LASF116:
 4864 01aa 72657374 		.ascii	"rest_vel\000"
 4864      5F76656C 
 4864      00
 4865              	.LASF95:
 4866 01b3 656D675F 		.ascii	"emg_threshold\000"
 4866      74687265 
 4866      73686F6C 
 4866      6400
 4867              	.LASF6:
 4868 01c1 6C6F6E67 		.ascii	"long long int\000"
 4868      206C6F6E 
 4868      6720696E 
 4868      7400
 4869              	.LASF0:
 4870 01cf 7369676E 		.ascii	"signed char\000"
 4870      65642063 
 4870      68617200 
 4871              	.LASF150:
 4872 01db 63757272 		.ascii	"curr_estim\000"
 4872      5F657374 
 4872      696D00
 4873              	.LASF179:
 4874 01e6 6E6F726D 		.ascii	"norm\000"
 4874      00
 4875              	.LASF35:
 4876 01eb 65737469 		.ascii	"estim_curr\000"
 4876      6D5F6375 
 4876      727200
 4877              	.LASF178:
 4878 01f6 76335F69 		.ascii	"v3_in\000"
 4878      6E00
ARM GAS  C:\Users\mgnocco\AppData\Local\Temp\ccOXEsk0.s 			page 97


 4879              	.LASF194:
 4880 01fc 666F7263 		.ascii	"forced_open\000"
 4880      65645F6F 
 4880      70656E00 
 4881              	.LASF16:
 4882 0208 696E7433 		.ascii	"int32\000"
 4882      3200
 4883              	.LASF148:
 4884 020e 6572725F 		.ascii	"err_pos_dt\000"
 4884      706F735F 
 4884      647400
 4885              	.LASF4:
 4886 0219 6C6F6E67 		.ascii	"long int\000"
 4886      20696E74 
 4886      00
 4887              	.LASF36:
 4888 0222 686F6C64 		.ascii	"hold_curr\000"
 4888      5F637572 
 4888      7200
 4889              	.LASF140:
 4890 022c 6F6C645F 		.ascii	"old_value\000"
 4890      76616C75 
 4890      6500
 4891              	.LASF85:
 4892 0236 6E6F745F 		.ascii	"not_revers_motor_flag\000"
 4892      72657665 
 4892      72735F6D 
 4892      6F746F72 
 4892      5F666C61 
 4893              	.LASF55:
 4894 024c 72696768 		.ascii	"right_left\000"
 4894      745F6C65 
 4894      667400
 4895              	.LASF45:
 4896 0257 77697265 		.ascii	"wire_disp\000"
 4896      5F646973 
 4896      7000
 4897              	.LASF170:
 4898 0261 4C45445F 		.ascii	"LED_control\000"
 4898      636F6E74 
 4898      726F6C00 
 4899              	.LASF82:
 4900 026d 636F6E74 		.ascii	"control_mode\000"
 4900      726F6C5F 
 4900      6D6F6465 
 4900      00
 4901              	.LASF135:
 4902 027a 756E7573 		.ascii	"unused_bytes1\000"
 4902      65645F62 
 4902      79746573 
 4902      3100
 4903              	.LASF181:
 4904 0288 76345F69 		.ascii	"v4_in\000"
 4904      6E00
 4905              	.LASF172:
 4906 028e 62617474 		.ascii	"battery_management\000"
 4906      6572795F 
ARM GAS  C:\Users\mgnocco\AppData\Local\Temp\ccOXEsk0.s 			page 98


 4906      6D616E61 
 4906      67656D65 
 4906      6E7400
 4907              	.LASF98:
 4908 02a1 656D675F 		.ascii	"emg_calibration_flag\000"
 4908      63616C69 
 4908      62726174 
 4908      696F6E5F 
 4908      666C6167 
 4909              	.LASF102:
 4910 02b6 5350495F 		.ascii	"SPI_read_delay\000"
 4910      72656164 
 4910      5F64656C 
 4910      617900
 4911              	.LASF131:
 4912 02c5 66617374 		.ascii	"fast_act_threshold\000"
 4912      5F616374 
 4912      5F746872 
 4912      6573686F 
 4912      6C6400
 4913              	.LASF13:
 4914 02d8 75696E74 		.ascii	"uint32\000"
 4914      333200
 4915              	.LASF133:
 4916 02df 73745F65 		.ascii	"st_eeprom\000"
 4916      6570726F 
 4916      6D00
 4917              	.LASF176:
 4918 02e9 68616C66 		.ascii	"halfx\000"
 4918      7800
 4919              	.LASF152:
 4920 02ef 6E65775F 		.ascii	"new_value\000"
 4920      76616C75 
 4920      6500
 4921              	.LASF25:
 4922 02f9 494E5055 		.ascii	"INPUT_MODE_EMG_PROPORTIONAL\000"
 4922      545F4D4F 
 4922      44455F45 
 4922      4D475F50 
 4922      524F504F 
 4923              	.LASF68:
 4924 0315 6B5F705F 		.ascii	"k_p_c_dl\000"
 4924      635F646C 
 4924      00
 4925              	.LASF46:
 4926 031e 746F7461 		.ascii	"total_runtime\000"
 4926      6C5F7275 
 4926      6E74696D 
 4926      6500
 4927              	.LASF146:
 4928 032c 72657065 		.ascii	"repetitions\000"
 4928      74697469 
 4928      6F6E7300 
 4929              	.LASF12:
 4930 0338 75696E74 		.ascii	"uint16\000"
 4930      313600
 4931              	.LASF99:
ARM GAS  C:\Users\mgnocco\AppData\Local\Temp\ccOXEsk0.s 			page 99


 4932 033f 73776974 		.ascii	"switch_emg\000"
 4932      63685F65 
 4932      6D6700
 4933              	.LASF29:
 4934 034a 494E5055 		.ascii	"INPUT_MODE_JOYSTICK\000"
 4934      545F4D4F 
 4934      44455F4A 
 4934      4F595354 
 4934      49434B00 
 4935              	.LASF81:
 4936 035e 696E7075 		.ascii	"input_mode\000"
 4936      745F6D6F 
 4936      646500
 4937              	.LASF158:
 4938 0369 706F7332 		.ascii	"pos2\000"
 4938      00
 4939              	.LASF67:
 4940 036e 6B5F645F 		.ascii	"k_d_dl\000"
 4940      646C00
 4941              	.LASF56:
 4942 0375 72657365 		.ascii	"reset_counters\000"
 4942      745F636F 
 4942      756E7465 
 4942      727300
 4943              	.LASF119:
 4944 0384 6A6F7973 		.ascii	"joystick_closure_speed\000"
 4944      7469636B 
 4944      5F636C6F 
 4944      73757265 
 4944      5F737065 
 4945              	.LASF8:
 4946 039b 756E7369 		.ascii	"unsigned int\000"
 4946      676E6564 
 4946      20696E74 
 4946      00
 4947              	.LASF33:
 4948 03a8 73745F72 		.ascii	"st_ref\000"
 4948      656600
 4949              	.LASF92:
 4950 03af 6D6F746F 		.ascii	"motor_handle_ratio\000"
 4950      725F6861 
 4950      6E646C65 
 4950      5F726174 
 4950      696F00
 4951              	.LASF175:
 4952 03c2 696E7653 		.ascii	"invSqrt\000"
 4952      71727400 
 4953              	.LASF66:
 4954 03ca 6B5F695F 		.ascii	"k_i_dl\000"
 4954      646C00
 4955              	.LASF165:
 4956 03d1 6162735F 		.ascii	"abs_err_thr\000"
 4956      6572725F 
 4956      74687200 
 4957              	.LASF27:
 4958 03dd 494E5055 		.ascii	"INPUT_MODE_EMG_FCFS\000"
 4958      545F4D4F 
ARM GAS  C:\Users\mgnocco\AppData\Local\Temp\ccOXEsk0.s 			page 100


 4958      44455F45 
 4958      4D475F46 
 4958      43465300 
 4959              	.LASF173:
 4960 03f1 4144435F 		.ascii	"ADC_Set_N_Channels\000"
 4960      5365745F 
 4960      4E5F4368 
 4960      616E6E65 
 4960      6C7300
 4961              	.LASF77:
 4962 0404 6D61785F 		.ascii	"max_step_neg\000"
 4962      73746570 
 4962      5F6E6567 
 4962      00
 4963              	.LASF107:
 4964 0411 72656164 		.ascii	"read_ADC_sensors_port_flag\000"
 4964      5F414443 
 4964      5F73656E 
 4964      736F7273 
 4964      5F706F72 
 4965              	.LASF110:
 4966 042c 73745F75 		.ascii	"st_user\000"
 4966      73657200 
 4967              	.LASF112:
 4968 0434 75736572 		.ascii	"user_emg\000"
 4968      5F656D67 
 4968      00
 4969              	.LASF3:
 4970 043d 73686F72 		.ascii	"short unsigned int\000"
 4970      7420756E 
 4970      7369676E 
 4970      65642069 
 4970      6E7400
 4971              	.LASF118:
 4972 0450 73745F4A 		.ascii	"st_JOY_spec\000"
 4972      4F595F73 
 4972      70656300 
 4973              	.LASF187:
 4974 045c 675F7265 		.ascii	"g_refNew\000"
 4974      664E6577 
 4974      00
 4975              	.LASF14:
 4976 0465 696E7438 		.ascii	"int8\000"
 4976      00
 4977              	.LASF184:
 4978 046a 63757272 		.ascii	"current_counter_value\000"
 4978      656E745F 
 4978      636F756E 
 4978      7465725F 
 4978      76616C75 
 4979              	.LASF202:
 4980 0480 53485F69 		.ascii	"SH_input_mode\000"
 4980      6E707574 
 4980      5F6D6F64 
 4980      6500
 4981              	.LASF147:
 4982 048e 76697274 		.ascii	"virtual_pos_friction\000"
ARM GAS  C:\Users\mgnocco\AppData\Local\Temp\ccOXEsk0.s 			page 101


 4982      75616C5F 
 4982      706F735F 
 4982      66726963 
 4982      74696F6E 
 4983              	.LASF73:
 4984 04a3 6D6F746F 		.ascii	"motor_driver_type\000"
 4984      725F6472 
 4984      69766572 
 4984      5F747970 
 4984      6500
 4985              	.LASF75:
 4986 04b5 706F735F 		.ascii	"pos_lim_inf\000"
 4986      6C696D5F 
 4986      696E6600 
 4987              	.LASF51:
 4988 04c1 756E7573 		.ascii	"unused_bytes\000"
 4988      65645F62 
 4988      79746573 
 4988      00
 4989              	.LASF123:
 4990 04ce 736C6176 		.ascii	"slave_comm_active\000"
 4990      655F636F 
 4990      6D6D5F61 
 4990      63746976 
 4990      6500
 4991              	.LASF156:
 4992 04e0 63616C63 		.ascii	"calc_turns_fcn_SH\000"
 4992      5F747572 
 4992      6E735F66 
 4992      636E5F53 
 4992      4800
 4993              	.LASF24:
 4994 04f2 494E5055 		.ascii	"INPUT_MODE_ENCODER3\000"
 4994      545F4D4F 
 4994      44455F45 
 4994      4E434F44 
 4994      45523300 
 4995              	.LASF42:
 4996 0506 706F7369 		.ascii	"position_hist\000"
 4996      74696F6E 
 4996      5F686973 
 4996      7400
 4997              	.LASF9:
 4998 0514 5F5F696E 		.ascii	"__int32_t\000"
 4998      7433325F 
 4998      7400
 4999              	.LASF196:
 5000 051e 72657374 		.ascii	"rest_pos_curr_ref\000"
 5000      5F706F73 
 5000      5F637572 
 5000      725F7265 
 5000      6600
 5001              	.LASF53:
 5002 0530 68775F6D 		.ascii	"hw_maint_date\000"
 5002      61696E74 
 5002      5F646174 
 5002      6500
ARM GAS  C:\Users\mgnocco\AppData\Local\Temp\ccOXEsk0.s 			page 102


 5003              	.LASF48:
 5004 053e 706F7765 		.ascii	"power_cycles\000"
 5004      725F6379 
 5004      636C6573 
 5004      00
 5005              	.LASF201:
 5006 054b 433A5C55 		.ascii	"C:\\Users\\mgnocco\\OneDrive - Fondazione Istituto "
 5006      73657273 
 5006      5C6D676E 
 5006      6F63636F 
 5006      5C4F6E65 
 5007 057b 4974616C 		.ascii	"Italiano Tecnologia\\Firmware\\Psoc5\\Toast\\Toast."
 5007      69616E6F 
 5007      20546563 
 5007      6E6F6C6F 
 5007      6769615C 
 5008 05aa 63796473 		.ascii	"cydsn\000"
 5008      6E00
 5009              	.LASF103:
 5010 05b0 494D555F 		.ascii	"IMU_conf\000"
 5010      636F6E66 
 5010      00
 5011              	.LASF111:
 5012 05b9 75736572 		.ascii	"user_code_string\000"
 5012      5F636F64 
 5012      655F7374 
 5012      72696E67 
 5012      00
 5013              	.LASF17:
 5014 05ca 666C6F61 		.ascii	"float32\000"
 5014      74333200 
 5015              	.LASF174:
 5016 05d2 656E6162 		.ascii	"enable_motor\000"
 5016      6C655F6D 
 5016      6F746F72 
 5016      00
 5017              	.LASF22:
 5018 05df 73697A65 		.ascii	"sizetype\000"
 5018      74797065 
 5018      00
 5019              	.LASF127:
 5020 05e8 6D617869 		.ascii	"maximum_pressure_kPa\000"
 5020      6D756D5F 
 5020      70726573 
 5020      73757265 
 5020      5F6B5061 
 5021              	.LASF21:
 5022 05fd 6C6F6E67 		.ascii	"long double\000"
 5022      20646F75 
 5022      626C6500 
 5023              	.LASF52:
 5024 0609 73745F64 		.ascii	"st_device\000"
 5024      65766963 
 5024      6500
 5025              	.LASF193:
 5026 0613 72657374 		.ascii	"rest_enabled\000"
 5026      5F656E61 
ARM GAS  C:\Users\mgnocco\AppData\Local\Temp\ccOXEsk0.s 			page 103


 5026      626C6564 
 5026      00
 5027              	.LASF154:
 5028 0620 64697669 		.ascii	"divisor\000"
 5028      736F7200 
 5029              	.LASF190:
 5030 0628 675F6D65 		.ascii	"g_mem\000"
 5030      6D00
 5031              	.LASF195:
 5032 062e 4E554D5F 		.ascii	"NUM_OF_ANALOG_INPUTS\000"
 5032      4F465F41 
 5032      4E414C4F 
 5032      475F494E 
 5032      50555453 
 5033              	.LASF160:
 5034 0643 63616C69 		.ascii	"calibration\000"
 5034      62726174 
 5034      696F6E00 
 5035              	.LASF62:
 5036 064f 6B5F705F 		.ascii	"k_p_c\000"
 5036      6300
 5037              	.LASF11:
 5038 0655 75696E74 		.ascii	"uint8\000"
 5038      3800
 5039              	.LASF129:
 5040 065b 73745F57 		.ascii	"st_WR_spec\000"
 5040      525F7370 
 5040      656300
 5041              	.LASF114:
 5042 0666 72657374 		.ascii	"rest_pos\000"
 5042      5F706F73 
 5042      00
 5043              	.LASF76:
 5044 066f 706F735F 		.ascii	"pos_lim_sup\000"
 5044      6C696D5F 
 5044      73757000 
 5045              	.LASF182:
 5046 067b 75706461 		.ascii	"update_EMG_history\000"
 5046      74655F45 
 5046      4D475F68 
 5046      6973746F 
 5046      727900
 5047              	.LASF28:
 5048 068e 494E5055 		.ascii	"INPUT_MODE_EMG_FCFS_ADV\000"
 5048      545F4D4F 
 5048      44455F45 
 5048      4D475F46 
 5048      4346535F 
 5049              	.LASF43:
 5050 06a6 63757272 		.ascii	"current_hist\000"
 5050      656E745F 
 5050      68697374 
 5050      00
 5051              	.LASF105:
 5052 06b3 63757272 		.ascii	"curr_time\000"
 5052      5F74696D 
 5052      6500
ARM GAS  C:\Users\mgnocco\AppData\Local\Temp\ccOXEsk0.s 			page 104


 5053              	.LASF49:
 5054 06bd 65786365 		.ascii	"excessive_signal_activity\000"
 5054      73736976 
 5054      655F7369 
 5054      676E616C 
 5054      5F616374 
 5055              	.LASF71:
 5056 06d7 61637469 		.ascii	"activ\000"
 5056      7600
 5057              	.LASF96:
 5058 06dd 656D675F 		.ascii	"emg_max_value\000"
 5058      6D61785F 
 5058      76616C75 
 5058      6500
 5059              	.LASF163:
 5060 06eb 666C6167 		.ascii	"flag_count\000"
 5060      5F636F75 
 5060      6E7400
 5061              	.LASF136:
 5062 06f6 6D6F746F 		.ascii	"motor\000"
 5062      7200
 5063              	.LASF157:
 5064 06fc 706F7331 		.ascii	"pos1\000"
 5064      00
 5065              	.LASF91:
 5066 0701 456E635F 		.ascii	"Enc_idx_use_for_control\000"
 5066      6964785F 
 5066      7573655F 
 5066      666F725F 
 5066      636F6E74 
 5067              	.LASF137:
 5068 0719 75736572 		.ascii	"user\000"
 5068      00
 5069              	.LASF141:
 5070 071e 6761696E 		.ascii	"gain\000"
 5070      00
 5071              	.LASF10:
 5072 0723 696E7433 		.ascii	"int32_t\000"
 5072      325F7400 
 5073              	.LASF149:
 5074 072b 63757272 		.ascii	"curr_estimate\000"
 5074      5F657374 
 5074      696D6174 
 5074      6500
 5075              	.LASF31:
 5076 0739 63757272 		.ascii	"curr\000"
 5076      00
 5077              	.LASF89:
 5078 073e 6D5F6D75 		.ascii	"m_mult\000"
 5078      6C7400
 5079              	.LASF32:
 5080 0745 6F6E6F66 		.ascii	"onoff\000"
 5080      6600
 5081              	.LASF108:
 5082 074b 4144435F 		.ascii	"ADC_conf\000"
 5082      636F6E66 
 5082      00
ARM GAS  C:\Users\mgnocco\AppData\Local\Temp\ccOXEsk0.s 			page 105


 5083              	.LASF93:
 5084 0754 67656172 		.ascii	"gears_params\000"
 5084      735F7061 
 5084      72616D73 
 5084      00
 5085              	.LASF139:
 5086 0761 73745F66 		.ascii	"st_filter\000"
 5086      696C7465 
 5086      7200
 5087              	.LASF86:
 5088 076b 73745F65 		.ascii	"st_encoder\000"
 5088      6E636F64 
 5088      657200
 5089              	.LASF134:
 5090 0776 666C6167 		.ascii	"flag\000"
 5090      00
 5091              	.LASF124:
 5092 077b 736C6176 		.ascii	"slave_ID\000"
 5092      655F4944 
 5092      00
 5093              	.LASF80:
 5094 0784 63757272 		.ascii	"current_limit\000"
 5094      656E745F 
 5094      6C696D69 
 5094      7400
 5095              	.LASF40:
 5096 0792 73745F63 		.ascii	"st_counters\000"
 5096      6F756E74 
 5096      65727300 
 5097              	.LASF122:
 5098 079e 73745F4D 		.ascii	"st_MASTER_spec\000"
 5098      41535445 
 5098      525F7370 
 5098      656300
 5099              	.LASF164:
 5100 07ad 66697273 		.ascii	"first_time\000"
 5100      745F7469 
 5100      6D6500
 5101              	.LASF142:
 5102 07b8 73745F63 		.ascii	"st_calib\000"
 5102      616C6962 
 5102      00
 5103              	.LASF15:
 5104 07c1 696E7431 		.ascii	"int16\000"
 5104      3600
 5105              	.LASF74:
 5106 07c7 706F735F 		.ascii	"pos_lim_flag\000"
 5106      6C696D5F 
 5106      666C6167 
 5106      00
 5107              	.LASF94:
 5108 07d4 73745F65 		.ascii	"st_emg\000"
 5108      6D6700
 5109              	.LASF37:
 5110 07db 73745F61 		.ascii	"st_adc_meas\000"
 5110      64635F6D 
 5110      65617300 
ARM GAS  C:\Users\mgnocco\AppData\Local\Temp\ccOXEsk0.s 			page 106


 5111              	.LASF78:
 5112 07e7 6D61785F 		.ascii	"max_step_pos\000"
 5112      73746570 
 5112      5F706F73 
 5112      00
 5113              	.LASF143:
 5114 07f4 656E6162 		.ascii	"enabled\000"
 5114      6C656400 
 5115              	.LASF44:
 5116 07fc 72657374 		.ascii	"rest_counter\000"
 5116      5F636F75 
 5116      6E746572 
 5116      00
 5117              	.LASF5:
 5118 0809 6C6F6E67 		.ascii	"long unsigned int\000"
 5118      20756E73 
 5118      69676E65 
 5118      6420696E 
 5118      7400
 5119              	.LASF72:
 5120 081b 61637469 		.ascii	"activate_pwm_rescaling\000"
 5120      76617465 
 5120      5F70776D 
 5120      5F726573 
 5120      63616C69 
 5121              	.LASF20:
 5122 0832 63686172 		.ascii	"char\000"
 5122      00
 5123              	.LASF188:
 5124 0837 675F6D65 		.ascii	"g_meas\000"
 5124      617300
 5125              	.LASF171:
 5126 083e 6D6F6465 		.ascii	"mode\000"
 5126      00
 5127              	.LASF50:
 5128 0843 6D6F7469 		.ascii	"motion_counter\000"
 5128      6F6E5F63 
 5128      6F756E74 
 5128      657200
 5129              	.LASF23:
 5130 0852 494E5055 		.ascii	"INPUT_MODE_EXTERNAL\000"
 5130      545F4D4F 
 5130      44455F45 
 5130      58544552 
 5130      4E414C00 
 5131              	.LASF200:
 5132 0866 2E2E5C73 		.ascii	"..\\src\\utils.c\000"
 5132      72635C75 
 5132      74696C73 
 5132      2E6300
 5133              	.LASF180:
 5134 0875 76345F6E 		.ascii	"v4_normalize\000"
 5134      6F726D61 
 5134      6C697A65 
 5134      00
 5135              	.LASF104:
 5136 0882 73745F65 		.ascii	"st_expansion\000"
ARM GAS  C:\Users\mgnocco\AppData\Local\Temp\ccOXEsk0.s 			page 107


 5136      7870616E 
 5136      73696F6E 
 5136      00
 5137              	.LASF38:
 5138 088f 6164645F 		.ascii	"add_emg\000"
 5138      656D6700 
 5139              	.LASF109:
 5140 0897 7265636F 		.ascii	"record_EMG_history_on_SD\000"
 5140      72645F45 
 5140      4D475F68 
 5140      6973746F 
 5140      72795F6F 
 5141              	.LASF197:
 5142 08b0 656D675F 		.ascii	"emg_history\000"
 5142      68697374 
 5142      6F727900 
 5143              	.LASF60:
 5144 08bc 6465765F 		.ascii	"dev_type\000"
 5144      74797065 
 5144      00
 5145              	.LASF69:
 5146 08c5 6B5F695F 		.ascii	"k_i_c_dl\000"
 5146      635F646C 
 5146      00
 5147              	.LASF117:
 5148 08ce 72657374 		.ascii	"rest_position_flag\000"
 5148      5F706F73 
 5148      6974696F 
 5148      6E5F666C 
 5148      616700
 5149              	.LASF59:
 5150 08e1 75736572 		.ascii	"user_id\000"
 5150      5F696400 
 5151              	.LASF1:
 5152 08e9 756E7369 		.ascii	"unsigned char\000"
 5152      676E6564 
 5152      20636861 
 5152      7200
 5153              	.LASF87:
 5154 08f7 456E635F 		.ascii	"Enc_raw_read_conf\000"
 5154      7261775F 
 5154      72656164 
 5154      5F636F6E 
 5154      6600
 5155              	.LASF61:
 5156 0909 73745F6D 		.ascii	"st_motor\000"
 5156      6F746F72 
 5156      00
 5157              	.LASF115:
 5158 0912 72657374 		.ascii	"rest_delay\000"
 5158      5F64656C 
 5158      617900
 5159              	.LASF151:
 5160 091d 66696C74 		.ascii	"filter\000"
 5160      657200
 5161              	.LASF64:
 5162 0924 6B5F645F 		.ascii	"k_d_c\000"
ARM GAS  C:\Users\mgnocco\AppData\Local\Temp\ccOXEsk0.s 			page 108


 5162      6300
 5163              	.LASF183:
 5164 092a 6C617374 		.ascii	"last_counter_value\000"
 5164      5F636F75 
 5164      6E746572 
 5164      5F76616C 
 5164      756500
 5165              	.LASF198:
 5166 093d 656D675F 		.ascii	"emg_history_next_idx\000"
 5166      68697374 
 5166      6F72795F 
 5166      6E657874 
 5166      5F696478 
 5167              	.LASF79:
 5168 0952 63757272 		.ascii	"curr_lookup\000"
 5168      5F6C6F6F 
 5168      6B757000 
 5169              	.LASF101:
 5170 095e 72656164 		.ascii	"read_imu_flag\000"
 5170      5F696D75 
 5170      5F666C61 
 5170      6700
 5171              	.LASF138:
 5172 096c 4A4F595F 		.ascii	"JOY_spec\000"
 5172      73706563 
 5172      00
 5173              	.LASF30:
 5174 0975 494E5055 		.ascii	"INPUT_MODE_EMG_PROPORTIONAL_NC\000"
 5174      545F4D4F 
 5174      44455F45 
 5174      4D475F50 
 5174      524F504F 
 5175              	.LASF39:
 5176 0994 6A6F7973 		.ascii	"joystick\000"
 5176      7469636B 
 5176      00
 5177              	.LASF26:
 5178 099d 494E5055 		.ascii	"INPUT_MODE_EMG_INTEGRAL\000"
 5178      545F4D4F 
 5178      44455F45 
 5178      4D475F49 
 5178      4E544547 
 5179              	.LASF97:
 5180 09b5 656D675F 		.ascii	"emg_speed\000"
 5180      73706565 
 5180      6400
 5181              	.LASF161:
 5182 09bf 63686563 		.ascii	"check_rest_position\000"
 5182      6B5F7265 
 5182      73745F70 
 5182      6F736974 
 5182      696F6E00 
 5183              	.LASF70:
 5184 09d3 6B5F645F 		.ascii	"k_d_c_dl\000"
 5184      635F646C 
 5184      00
 5185              	.LASF41:
ARM GAS  C:\Users\mgnocco\AppData\Local\Temp\ccOXEsk0.s 			page 109


 5186 09dc 656D675F 		.ascii	"emg_act_counter\000"
 5186      6163745F 
 5186      636F756E 
 5186      74657200 
 5187              	.LASF177:
 5188 09ec 76335F6E 		.ascii	"v3_normalize\000"
 5188      6F726D61 
 5188      6C697A65 
 5188      00
 5189              	.LASF18:
 5190 09f9 666C6F61 		.ascii	"float\000"
 5190      7400
 5191              	.LASF106:
 5192 09ff 72656164 		.ascii	"read_exp_port_flag\000"
 5192      5F657870 
 5192      5F706F72 
 5192      745F666C 
 5192      616700
 5193              	.LASF113:
 5194 0a12 73745F53 		.ascii	"st_SH_spec\000"
 5194      485F7370 
 5194      656300
 5195              	.LASF145:
 5196 0a1d 73706565 		.ascii	"speed\000"
 5196      6400
 5197              	.LASF169:
 5198 0a23 72657374 		.ascii	"rest_vel_ticks_ms\000"
 5198      5F76656C 
 5198      5F746963 
 5198      6B735F6D 
 5198      7300
 5199              	.LASF128:
 5200 0a35 70726F70 		.ascii	"prop_err_fb_gain\000"
 5200      5F657272 
 5200      5F66625F 
 5200      6761696E 
 5200      00
 5201              	.LASF47:
 5202 0a46 746F7461 		.ascii	"total_time_rest\000"
 5202      6C5F7469 
 5202      6D655F72 
 5202      65737400 
 5203              	.LASF189:
 5204 0a56 675F6164 		.ascii	"g_adc_meas\000"
 5204      635F6D65 
 5204      617300
 5205              	.LASF90:
 5206 0a61 646F7562 		.ascii	"double_encoder_on_off\000"
 5206      6C655F65 
 5206      6E636F64 
 5206      65725F6F 
 5206      6E5F6F66 
 5207              	.LASF63:
 5208 0a77 6B5F695F 		.ascii	"k_i_c\000"
 5208      6300
 5209              	.LASF159:
 5210 0a7d 63616C63 		.ascii	"calc_turns_fcn\000"
ARM GAS  C:\Users\mgnocco\AppData\Local\Temp\ccOXEsk0.s 			page 110


 5210      5F747572 
 5210      6E735F66 
 5210      636E00
 5211              	.LASF121:
 5212 0a8c 6A6F7973 		.ascii	"joystick_gains\000"
 5212      7469636B 
 5212      5F676169 
 5212      6E7300
 5213              	.LASF54:
 5214 0a9b 73746174 		.ascii	"stats_period_begin_date\000"
 5214      735F7065 
 5214      72696F64 
 5214      5F626567 
 5214      696E5F64 
 5215              	.LASF19:
 5216 0ab3 646F7562 		.ascii	"double\000"
 5216      6C6500
 5217              	.LASF185:
 5218 0aba 636F756E 		.ascii	"counter_diff\000"
 5218      7465725F 
 5218      64696666 
 5218      00
 5219              	.LASF65:
 5220 0ac7 6B5F705F 		.ascii	"k_p_dl\000"
 5220      646C00
 5221              	.LASF84:
 5222 0ace 70776D5F 		.ascii	"pwm_rate_limiter\000"
 5222      72617465 
 5222      5F6C696D 
 5222      69746572 
 5222      00
 5223              		.ident	"GCC: (GNU Tools for ARM Embedded Processors) 5.4.1 20160609 (release) [ARM/embedded-5-bran
