ARM GAS  C:\Users\mgnocco\AppData\Local\Temp\ccOXEsk0.s 			page 1


   1              		.syntax unified
   2              		.cpu cortex-m3
   3              		.fpu softvfp
   4              		.eabi_attribute 20, 1
   5              		.eabi_attribute 21, 1
   6              		.eabi_attribute 23, 3
   7              		.eabi_attribute 24, 1
   8              		.eabi_attribute 25, 1
   9              		.eabi_attribute 26, 1
  10              		.eabi_attribute 30, 6
  11              		.eabi_attribute 34, 1
  12              		.eabi_attribute 18, 4
  13              		.thumb
  14              		.syntax unified
  15              		.file	"utils.c"
  16              		.text
  17              	.Ltext0:
  18              		.cfi_sections	.debug_frame
  19              		.global	__aeabi_i2f
  20              		.global	__aeabi_fmul
  21              		.global	__aeabi_fadd
  22              		.global	__aeabi_fdiv
  23              		.global	__aeabi_f2iz
  24              		.section	.text.curr_estim,"ax",%progbits
  25              		.align	2
  26              		.global	curr_estim
  27              		.thumb
  28              		.thumb_func
  29              		.type	curr_estim, %function
  30              	curr_estim:
  31              	.LFB64:
  32              		.file 1 "..\\src\\utils.c"
   1:..\src/utils.c **** // ----------------------------------------------------------------------------
   2:..\src/utils.c **** // BSD 3-Clause License
   3:..\src/utils.c **** 
   4:..\src/utils.c **** // Copyright (c) 2016, qbrobotics
   5:..\src/utils.c **** // Copyright (c) 2017-2020, Centro "E.Piaggio"
   6:..\src/utils.c **** // All rights reserved.
   7:..\src/utils.c **** 
   8:..\src/utils.c **** // Redistribution and use in source and binary forms, with or without
   9:..\src/utils.c **** // modification, are permitted provided that the following conditions are met:
  10:..\src/utils.c **** 
  11:..\src/utils.c **** // * Redistributions of source code must retain the above copyright notice, this
  12:..\src/utils.c **** //   list of conditions and the following disclaimer.
  13:..\src/utils.c **** 
  14:..\src/utils.c **** // * Redistributions in binary form must reproduce the above copyright notice,
  15:..\src/utils.c **** //   this list of conditions and the following disclaimer in the documentation
  16:..\src/utils.c **** //   and/or other materials provided with the distribution.
  17:..\src/utils.c **** 
  18:..\src/utils.c **** // * Neither the name of the copyright holder nor the names of its
  19:..\src/utils.c **** //   contributors may be used to endorse or promote products derived from
  20:..\src/utils.c **** //   this software without specific prior written permission.
  21:..\src/utils.c **** 
  22:..\src/utils.c **** // THIS SOFTWARE IS PROVIDED BY THE COPYRIGHT HOLDERS AND CONTRIBUTORS "AS IS"
  23:..\src/utils.c **** // AND ANY EXPRESS OR IMPLIED WARRANTIES, INCLUDING, BUT NOT LIMITED TO, THE
  24:..\src/utils.c **** // IMPLIED WARRANTIES OF MERCHANTABILITY AND FITNESS FOR A PARTICULAR PURPOSE ARE
  25:..\src/utils.c **** // DISCLAIMED. IN NO EVENT SHALL THE COPYRIGHT HOLDER OR CONTRIBUTORS BE LIABLE
ARM GAS  C:\Users\mgnocco\AppData\Local\Temp\ccOXEsk0.s 			page 2


  26:..\src/utils.c **** // FOR ANY DIRECT, INDIRECT, INCIDENTAL, SPECIAL, EXEMPLARY, OR CONSEQUENTIAL
  27:..\src/utils.c **** // DAMAGES (INCLUDING, BUT NOT LIMITED TO, PROCUREMENT OF SUBSTITUTE GOODS OR
  28:..\src/utils.c **** // SERVICES; LOSS OF USE, DATA, OR PROFITS; OR BUSINESS INTERRUPTION) HOWEVER
  29:..\src/utils.c **** // CAUSED AND ON ANY THEORY OF LIABILITY, WHETHER IN CONTRACT, STRICT LIABILITY,
  30:..\src/utils.c **** // OR TORT (INCLUDING NEGLIGENCE OR OTHERWISE) ARISING IN ANY WAY OUT OF THE USE
  31:..\src/utils.c **** // OF THIS SOFTWARE, EVEN IF ADVISED OF THE POSSIBILITY OF SUCH DAMAGE.
  32:..\src/utils.c **** // POSSIBILITY OF SUCH DAMAGE.
  33:..\src/utils.c **** // ----------------------------------------------------------------------------
  34:..\src/utils.c **** 
  35:..\src/utils.c **** /**
  36:..\src/utils.c **** * \file         utils.c
  37:..\src/utils.c **** *
  38:..\src/utils.c **** * \brief        Definition of utility functions.
  39:..\src/utils.c **** * \date         March 20th, 2020
  40:..\src/utils.c **** * \author       _Centro "E.Piaggio"_
  41:..\src/utils.c **** * \copyright    (C) 2012-2016 qbrobotics. All rights reserved.
  42:..\src/utils.c **** * \copyright    (C) 2017-2020 Centro "E.Piaggio". All rights reserved.
  43:..\src/utils.c **** */
  44:..\src/utils.c **** 
  45:..\src/utils.c **** #include "utils.h"
  46:..\src/utils.c **** 
  47:..\src/utils.c **** //==============================================================================
  48:..\src/utils.c **** //                                                            Current Estimation
  49:..\src/utils.c **** //==============================================================================
  50:..\src/utils.c **** 
  51:..\src/utils.c **** int32 curr_estim ( uint8 idx, int32 pos, int32 vel, int32 ref ) {
  33              		.loc 1 51 0
  34              		.cfi_startproc
  35              		@ args = 0, pretend = 0, frame = 24
  36              		@ frame_needed = 1, uses_anonymous_args = 0
  37 0000 B0B5     		push	{r4, r5, r7, lr}
  38              		.cfi_def_cfa_offset 16
  39              		.cfi_offset 4, -16
  40              		.cfi_offset 5, -12
  41              		.cfi_offset 7, -8
  42              		.cfi_offset 14, -4
  43 0002 86B0     		sub	sp, sp, #24
  44              		.cfi_def_cfa_offset 40
  45 0004 00AF     		add	r7, sp, #0
  46              		.cfi_def_cfa_register 7
  47 0006 B960     		str	r1, [r7, #8]
  48 0008 7A60     		str	r2, [r7, #4]
  49 000a 3B60     		str	r3, [r7]
  50 000c 0346     		mov	r3, r0
  51 000e FB73     		strb	r3, [r7, #15]
  52:..\src/utils.c **** 
  53:..\src/utils.c ****         static int32 virtual_pos_friction[NUM_OF_MOTORS]; 	// Virtual position used to estimate fri
  54:..\src/utils.c ****         static int32 err_pos_dt[NUM_OF_MOTORS];			    // Temporal evolution of error position.
  55:..\src/utils.c **** 											// Needed to model the current transients due to reference steps.
  56:..\src/utils.c ****         int32 curr_estimate;
  57:..\src/utils.c **** 
  58:..\src/utils.c ****         if (pos < ZERO_TOL) 
  52              		.loc 1 58 0
  53 0010 BB68     		ldr	r3, [r7, #8]
  54 0012 632B     		cmp	r3, #99
  55 0014 05DC     		bgt	.L2
  59:..\src/utils.c **** 			virtual_pos_friction[idx] = pos;
ARM GAS  C:\Users\mgnocco\AppData\Local\Temp\ccOXEsk0.s 			page 3


  56              		.loc 1 59 0
  57 0016 FB7B     		ldrb	r3, [r7, #15]	@ zero_extendqisi2
  58 0018 9049     		ldr	r1, .L9
  59 001a BA68     		ldr	r2, [r7, #8]
  60 001c 41F82320 		str	r2, [r1, r3, lsl #2]
  61 0020 1DE0     		b	.L3
  62              	.L2:
  60:..\src/utils.c ****         else {
  61:..\src/utils.c **** 			if ((pos - virtual_pos_friction[idx]) > ZMAX) 
  63              		.loc 1 61 0
  64 0022 FB7B     		ldrb	r3, [r7, #15]	@ zero_extendqisi2
  65 0024 8D4A     		ldr	r2, .L9
  66 0026 52F82330 		ldr	r3, [r2, r3, lsl #2]
  67 002a BA68     		ldr	r2, [r7, #8]
  68 002c D31A     		subs	r3, r2, r3
  69 002e 052B     		cmp	r3, #5
  70 0030 06DD     		ble	.L4
  62:..\src/utils.c **** 				virtual_pos_friction[idx] =  pos - ZMAX;
  71              		.loc 1 62 0
  72 0032 FB7B     		ldrb	r3, [r7, #15]	@ zero_extendqisi2
  73 0034 BA68     		ldr	r2, [r7, #8]
  74 0036 053A     		subs	r2, r2, #5
  75 0038 8849     		ldr	r1, .L9
  76 003a 41F82320 		str	r2, [r1, r3, lsl #2]
  77 003e 0EE0     		b	.L3
  78              	.L4:
  63:..\src/utils.c ****         	else { 
  64:..\src/utils.c **** 				if ((pos - virtual_pos_friction[idx]) < -ZMAX) 
  79              		.loc 1 64 0
  80 0040 FB7B     		ldrb	r3, [r7, #15]	@ zero_extendqisi2
  81 0042 864A     		ldr	r2, .L9
  82 0044 52F82330 		ldr	r3, [r2, r3, lsl #2]
  83 0048 BA68     		ldr	r2, [r7, #8]
  84 004a D31A     		subs	r3, r2, r3
  85 004c 13F1050F 		cmn	r3, #5
  86 0050 05DA     		bge	.L3
  65:..\src/utils.c **** 					virtual_pos_friction[idx] =  pos + ZMAX;
  87              		.loc 1 65 0
  88 0052 FB7B     		ldrb	r3, [r7, #15]	@ zero_extendqisi2
  89 0054 BA68     		ldr	r2, [r7, #8]
  90 0056 0532     		adds	r2, r2, #5
  91 0058 8049     		ldr	r1, .L9
  92 005a 41F82320 		str	r2, [r1, r3, lsl #2]
  93              	.L3:
  66:..\src/utils.c **** 			}
  67:..\src/utils.c **** 		}        
  68:..\src/utils.c ****        
  69:..\src/utils.c ****         curr_estimate = pos * g_mem.motor[idx].curr_lookup[0] * (1 + pos * g_mem.motor[idx].curr_lo
  94              		.loc 1 69 0
  95 005e B868     		ldr	r0, [r7, #8]
  96 0060 FFF7FEFF 		bl	__aeabi_i2f
  97 0064 FA7B     		ldrb	r2, [r7, #15]	@ zero_extendqisi2
  98 0066 7E49     		ldr	r1, .L9+4
  99 0068 1346     		mov	r3, r2
 100 006a DB00     		lsls	r3, r3, #3
 101 006c 9B1A     		subs	r3, r3, r2
 102 006e 1B01     		lsls	r3, r3, #4
ARM GAS  C:\Users\mgnocco\AppData\Local\Temp\ccOXEsk0.s 			page 4


 103 0070 0B44     		add	r3, r3, r1
 104 0072 F433     		adds	r3, r3, #244
 105 0074 1B68     		ldr	r3, [r3]	@ float
 106 0076 1946     		mov	r1, r3
 107 0078 FFF7FEFF 		bl	__aeabi_fmul
 108 007c 0346     		mov	r3, r0
 109 007e 1C46     		mov	r4, r3
 110 0080 B868     		ldr	r0, [r7, #8]
 111 0082 FFF7FEFF 		bl	__aeabi_i2f
 112 0086 FA7B     		ldrb	r2, [r7, #15]	@ zero_extendqisi2
 113 0088 7549     		ldr	r1, .L9+4
 114 008a 1346     		mov	r3, r2
 115 008c DB00     		lsls	r3, r3, #3
 116 008e 9B1A     		subs	r3, r3, r2
 117 0090 1B01     		lsls	r3, r3, #4
 118 0092 0B44     		add	r3, r3, r1
 119 0094 F833     		adds	r3, r3, #248
 120 0096 1B68     		ldr	r3, [r3]	@ float
 121 0098 1946     		mov	r1, r3
 122 009a FFF7FEFF 		bl	__aeabi_fmul
 123 009e 0346     		mov	r3, r0
 124 00a0 4FF07E51 		mov	r1, #1065353216
 125 00a4 1846     		mov	r0, r3
 126 00a6 FFF7FEFF 		bl	__aeabi_fadd
 127 00aa 0346     		mov	r3, r0
 128 00ac 1946     		mov	r1, r3
 129 00ae 2046     		mov	r0, r4
 130 00b0 FFF7FEFF 		bl	__aeabi_fmul
 131 00b4 0346     		mov	r3, r0
 132 00b6 1C46     		mov	r4, r3
 133 00b8 FB7B     		ldrb	r3, [r7, #15]	@ zero_extendqisi2
 134 00ba 684A     		ldr	r2, .L9
 135 00bc 52F82330 		ldr	r3, [r2, r3, lsl #2]
 136 00c0 BA68     		ldr	r2, [r7, #8]
 137 00c2 D31A     		subs	r3, r2, r3
 138 00c4 1846     		mov	r0, r3
 139 00c6 FFF7FEFF 		bl	__aeabi_i2f
 140 00ca 0546     		mov	r5, r0
 141 00cc FA7B     		ldrb	r2, [r7, #15]	@ zero_extendqisi2
 142 00ce 6449     		ldr	r1, .L9+4
 143 00d0 1346     		mov	r3, r2
 144 00d2 DB00     		lsls	r3, r3, #3
 145 00d4 9B1A     		subs	r3, r3, r2
 146 00d6 1B01     		lsls	r3, r3, #4
 147 00d8 0B44     		add	r3, r3, r1
 148 00da FC33     		adds	r3, r3, #252
 149 00dc 1B68     		ldr	r3, [r3]	@ float
 150 00de 6149     		ldr	r1, .L9+8
 151 00e0 1846     		mov	r0, r3
 152 00e2 FFF7FEFF 		bl	__aeabi_fdiv
 153 00e6 0346     		mov	r3, r0
 154 00e8 1946     		mov	r1, r3
 155 00ea 2846     		mov	r0, r5
 156 00ec FFF7FEFF 		bl	__aeabi_fmul
 157 00f0 0346     		mov	r3, r0
 158 00f2 1946     		mov	r1, r3
 159 00f4 2046     		mov	r0, r4
ARM GAS  C:\Users\mgnocco\AppData\Local\Temp\ccOXEsk0.s 			page 5


 160 00f6 FFF7FEFF 		bl	__aeabi_fadd
 161 00fa 0346     		mov	r3, r0
 162 00fc 1C46     		mov	r4, r3
 163 00fe 7868     		ldr	r0, [r7, #4]
 164 0100 FFF7FEFF 		bl	__aeabi_i2f
 165 0104 FA7B     		ldrb	r2, [r7, #15]	@ zero_extendqisi2
 166 0106 5649     		ldr	r1, .L9+4
 167 0108 1346     		mov	r3, r2
 168 010a DB00     		lsls	r3, r3, #3
 169 010c 9B1A     		subs	r3, r3, r2
 170 010e 1B01     		lsls	r3, r3, #4
 171 0110 0B44     		add	r3, r3, r1
 172 0112 03F58073 		add	r3, r3, #256
 173 0116 1B68     		ldr	r3, [r3]	@ float
 174 0118 1946     		mov	r1, r3
 175 011a FFF7FEFF 		bl	__aeabi_fmul
 176 011e 0346     		mov	r3, r0
 177 0120 1D46     		mov	r5, r3
 178 0122 7B68     		ldr	r3, [r7, #4]
 179 0124 002B     		cmp	r3, #0
 180 0126 B8BF     		it	lt
 181 0128 5B42     		rsblt	r3, r3, #0
 182 012a 1846     		mov	r0, r3
 183 012c FFF7FEFF 		bl	__aeabi_i2f
 184 0130 FA7B     		ldrb	r2, [r7, #15]	@ zero_extendqisi2
 185 0132 4B49     		ldr	r1, .L9+4
 186 0134 1346     		mov	r3, r2
 187 0136 DB00     		lsls	r3, r3, #3
 188 0138 9B1A     		subs	r3, r3, r2
 189 013a 1B01     		lsls	r3, r3, #4
 190 013c 0B44     		add	r3, r3, r1
 191 013e 03F58273 		add	r3, r3, #260
 192 0142 1B68     		ldr	r3, [r3]	@ float
 193 0144 1946     		mov	r1, r3
 194 0146 FFF7FEFF 		bl	__aeabi_fmul
 195 014a 0346     		mov	r3, r0
 196 014c 4FF07E51 		mov	r1, #1065353216
 197 0150 1846     		mov	r0, r3
 198 0152 FFF7FEFF 		bl	__aeabi_fadd
 199 0156 0346     		mov	r3, r0
 200 0158 1946     		mov	r1, r3
 201 015a 2846     		mov	r0, r5
 202 015c FFF7FEFF 		bl	__aeabi_fmul
 203 0160 0346     		mov	r3, r0
 204 0162 1946     		mov	r1, r3
 205 0164 2046     		mov	r0, r4
 206 0166 FFF7FEFF 		bl	__aeabi_fadd
 207 016a 0346     		mov	r3, r0
 208 016c 1C46     		mov	r4, r3
 209 016e FB7B     		ldrb	r3, [r7, #15]	@ zero_extendqisi2
 210 0170 3D4A     		ldr	r2, .L9+12
 211 0172 52F82330 		ldr	r3, [r2, r3, lsl #2]
 212 0176 3A68     		ldr	r2, [r7]
 213 0178 D31A     		subs	r3, r2, r3
 214 017a 1846     		mov	r0, r3
 215 017c FFF7FEFF 		bl	__aeabi_i2f
 216 0180 FA7B     		ldrb	r2, [r7, #15]	@ zero_extendqisi2
ARM GAS  C:\Users\mgnocco\AppData\Local\Temp\ccOXEsk0.s 			page 6


 217 0182 3749     		ldr	r1, .L9+4
 218 0184 1346     		mov	r3, r2
 219 0186 DB00     		lsls	r3, r3, #3
 220 0188 9B1A     		subs	r3, r3, r2
 221 018a 1B01     		lsls	r3, r3, #4
 222 018c 0B44     		add	r3, r3, r1
 223 018e 03F58473 		add	r3, r3, #264
 224 0192 1B68     		ldr	r3, [r3]	@ float
 225 0194 1946     		mov	r1, r3
 226 0196 FFF7FEFF 		bl	__aeabi_fmul
 227 019a 0346     		mov	r3, r0
 228 019c 1946     		mov	r1, r3
 229 019e 2046     		mov	r0, r4
 230 01a0 FFF7FEFF 		bl	__aeabi_fadd
 231 01a4 0346     		mov	r3, r0
 232 01a6 1846     		mov	r0, r3
 233 01a8 FFF7FEFF 		bl	__aeabi_f2iz
 234 01ac 0346     		mov	r3, r0
 235 01ae 7B61     		str	r3, [r7, #20]
  70:..\src/utils.c ****         
  71:..\src/utils.c ****         if (curr_estimate > c_mem.motor[idx].current_limit) 
 236              		.loc 1 71 0
 237 01b0 FA7B     		ldrb	r2, [r7, #15]	@ zero_extendqisi2
 238 01b2 2E49     		ldr	r1, .L9+16
 239 01b4 1346     		mov	r3, r2
 240 01b6 DB00     		lsls	r3, r3, #3
 241 01b8 9B1A     		subs	r3, r3, r2
 242 01ba 1B01     		lsls	r3, r3, #4
 243 01bc 0B44     		add	r3, r3, r1
 244 01be 03F58673 		add	r3, r3, #268
 245 01c2 B3F90030 		ldrsh	r3, [r3]
 246 01c6 1A46     		mov	r2, r3
 247 01c8 7B69     		ldr	r3, [r7, #20]
 248 01ca 9A42     		cmp	r2, r3
 249 01cc 0CDA     		bge	.L5
  72:..\src/utils.c ****             curr_estimate = c_mem.motor[idx].current_limit;
 250              		.loc 1 72 0
 251 01ce FA7B     		ldrb	r2, [r7, #15]	@ zero_extendqisi2
 252 01d0 2649     		ldr	r1, .L9+16
 253 01d2 1346     		mov	r3, r2
 254 01d4 DB00     		lsls	r3, r3, #3
 255 01d6 9B1A     		subs	r3, r3, r2
 256 01d8 1B01     		lsls	r3, r3, #4
 257 01da 0B44     		add	r3, r3, r1
 258 01dc 03F58673 		add	r3, r3, #268
 259 01e0 B3F90030 		ldrsh	r3, [r3]
 260 01e4 7B61     		str	r3, [r7, #20]
 261 01e6 1BE0     		b	.L6
 262              	.L5:
  73:..\src/utils.c ****         else {
  74:..\src/utils.c **** 			if (curr_estimate < -c_mem.motor[idx].current_limit)
 263              		.loc 1 74 0
 264 01e8 FA7B     		ldrb	r2, [r7, #15]	@ zero_extendqisi2
 265 01ea 2049     		ldr	r1, .L9+16
 266 01ec 1346     		mov	r3, r2
 267 01ee DB00     		lsls	r3, r3, #3
 268 01f0 9B1A     		subs	r3, r3, r2
ARM GAS  C:\Users\mgnocco\AppData\Local\Temp\ccOXEsk0.s 			page 7


 269 01f2 1B01     		lsls	r3, r3, #4
 270 01f4 0B44     		add	r3, r3, r1
 271 01f6 03F58673 		add	r3, r3, #268
 272 01fa B3F90030 		ldrsh	r3, [r3]
 273 01fe 5A42     		negs	r2, r3
 274 0200 7B69     		ldr	r3, [r7, #20]
 275 0202 9A42     		cmp	r2, r3
 276 0204 0CDD     		ble	.L6
  75:..\src/utils.c ****             	curr_estimate = -c_mem.motor[idx].current_limit;
 277              		.loc 1 75 0
 278 0206 FA7B     		ldrb	r2, [r7, #15]	@ zero_extendqisi2
 279 0208 1849     		ldr	r1, .L9+16
 280 020a 1346     		mov	r3, r2
 281 020c DB00     		lsls	r3, r3, #3
 282 020e 9B1A     		subs	r3, r3, r2
 283 0210 1B01     		lsls	r3, r3, #4
 284 0212 0B44     		add	r3, r3, r1
 285 0214 03F58673 		add	r3, r3, #268
 286 0218 B3F90030 		ldrsh	r3, [r3]
 287 021c 5B42     		negs	r3, r3
 288 021e 7B61     		str	r3, [r7, #20]
 289              	.L6:
  76:..\src/utils.c **** 		}
  77:..\src/utils.c **** 
  78:..\src/utils.c ****         err_pos_dt[idx] = (REFSPEED * ref + (1024 - REFSPEED) * err_pos_dt[idx]) / 1024;         
 290              		.loc 1 78 0
 291 0220 F97B     		ldrb	r1, [r7, #15]	@ zero_extendqisi2
 292 0222 3A68     		ldr	r2, [r7]
 293 0224 1346     		mov	r3, r2
 294 0226 9B00     		lsls	r3, r3, #2
 295 0228 1344     		add	r3, r3, r2
 296 022a 9B00     		lsls	r3, r3, #2
 297 022c 1846     		mov	r0, r3
 298 022e FB7B     		ldrb	r3, [r7, #15]	@ zero_extendqisi2
 299 0230 0D4A     		ldr	r2, .L9+12
 300 0232 52F82330 		ldr	r3, [r2, r3, lsl #2]
 301 0236 4FF47B72 		mov	r2, #1004
 302 023a 02FB03F3 		mul	r3, r2, r3
 303 023e 0344     		add	r3, r3, r0
 304 0240 002B     		cmp	r3, #0
 305 0242 01DA     		bge	.L7
 306 0244 03F2FF33 		addw	r3, r3, #1023
 307              	.L7:
 308 0248 9B12     		asrs	r3, r3, #10
 309 024a 1A46     		mov	r2, r3
 310 024c 064B     		ldr	r3, .L9+12
 311 024e 43F82120 		str	r2, [r3, r1, lsl #2]
  79:..\src/utils.c ****         
  80:..\src/utils.c ****         return curr_estimate; 
 312              		.loc 1 80 0
 313 0252 7B69     		ldr	r3, [r7, #20]
  81:..\src/utils.c ****     
  82:..\src/utils.c **** }
 314              		.loc 1 82 0
 315 0254 1846     		mov	r0, r3
 316 0256 1837     		adds	r7, r7, #24
 317              		.cfi_def_cfa_offset 16
ARM GAS  C:\Users\mgnocco\AppData\Local\Temp\ccOXEsk0.s 			page 8


 318 0258 BD46     		mov	sp, r7
 319              		.cfi_def_cfa_register 13
 320              		@ sp needed
 321 025a B0BD     		pop	{r4, r5, r7, pc}
 322              	.L10:
 323              		.align	2
 324              	.L9:
 325 025c 00000000 		.word	virtual_pos_friction.9546
 326 0260 00000000 		.word	g_mem
 327 0264 0000A040 		.word	1084227584
 328 0268 08000000 		.word	err_pos_dt.9547
 329 026c 00000000 		.word	c_mem
 330              		.cfi_endproc
 331              	.LFE64:
 332              		.size	curr_estim, .-curr_estim
 333              		.section	.text.filter,"ax",%progbits
 334              		.align	2
 335              		.global	filter
 336              		.thumb
 337              		.thumb_func
 338              		.type	filter, %function
 339              	filter:
 340              	.LFB65:
  83:..\src/utils.c **** 
  84:..\src/utils.c **** //==============================================================================
  85:..\src/utils.c **** //                                                                General filter
  86:..\src/utils.c **** //==============================================================================
  87:..\src/utils.c **** int32 filter(int32 new_value, struct st_filter *f) {
 341              		.loc 1 87 0
 342              		.cfi_startproc
 343              		@ args = 0, pretend = 0, frame = 16
 344              		@ frame_needed = 1, uses_anonymous_args = 0
 345              		@ link register save eliminated.
 346 0000 80B4     		push	{r7}
 347              		.cfi_def_cfa_offset 4
 348              		.cfi_offset 7, -4
 349 0002 85B0     		sub	sp, sp, #20
 350              		.cfi_def_cfa_offset 24
 351 0004 00AF     		add	r7, sp, #0
 352              		.cfi_def_cfa_register 7
 353 0006 7860     		str	r0, [r7, #4]
 354 0008 3960     		str	r1, [r7]
  88:..\src/utils.c **** 
  89:..\src/utils.c ****     int32 aux;
  90:..\src/utils.c **** 
  91:..\src/utils.c ****     aux = (f->old_value * (1024 - f->gain) + (new_value << 6) * (f->gain)) /1024;
 355              		.loc 1 91 0
 356 000a 3B68     		ldr	r3, [r7]
 357 000c 1B68     		ldr	r3, [r3]
 358 000e 3A68     		ldr	r2, [r7]
 359 0010 5268     		ldr	r2, [r2, #4]
 360 0012 C2F58062 		rsb	r2, r2, #1024
 361 0016 02FB03F2 		mul	r2, r2, r3
 362 001a 7B68     		ldr	r3, [r7, #4]
 363 001c 9B01     		lsls	r3, r3, #6
 364 001e 3968     		ldr	r1, [r7]
 365 0020 4968     		ldr	r1, [r1, #4]
ARM GAS  C:\Users\mgnocco\AppData\Local\Temp\ccOXEsk0.s 			page 9


 366 0022 01FB03F3 		mul	r3, r1, r3
 367 0026 1344     		add	r3, r3, r2
 368 0028 002B     		cmp	r3, #0
 369 002a 01DA     		bge	.L12
 370 002c 03F2FF33 		addw	r3, r3, #1023
 371              	.L12:
 372 0030 9B12     		asrs	r3, r3, #10
 373 0032 FB60     		str	r3, [r7, #12]
  92:..\src/utils.c **** 
  93:..\src/utils.c ****     f->old_value = aux;
 374              		.loc 1 93 0
 375 0034 3B68     		ldr	r3, [r7]
 376 0036 FA68     		ldr	r2, [r7, #12]
 377 0038 1A60     		str	r2, [r3]
  94:..\src/utils.c **** 
  95:..\src/utils.c ****     return (aux / 64);
 378              		.loc 1 95 0
 379 003a FB68     		ldr	r3, [r7, #12]
 380 003c 002B     		cmp	r3, #0
 381 003e 00DA     		bge	.L13
 382 0040 3F33     		adds	r3, r3, #63
 383              	.L13:
 384 0042 9B11     		asrs	r3, r3, #6
  96:..\src/utils.c **** }
 385              		.loc 1 96 0
 386 0044 1846     		mov	r0, r3
 387 0046 1437     		adds	r7, r7, #20
 388              		.cfi_def_cfa_offset 4
 389 0048 BD46     		mov	sp, r7
 390              		.cfi_def_cfa_register 13
 391              		@ sp needed
 392 004a 80BC     		pop	{r7}
 393              		.cfi_restore 7
 394              		.cfi_def_cfa_offset 0
 395 004c 7047     		bx	lr
 396              		.cfi_endproc
 397              	.LFE65:
 398              		.size	filter, .-filter
 399 004e 00BF     		.section	.text.my_mod,"ax",%progbits
 400              		.align	2
 401              		.global	my_mod
 402              		.thumb
 403              		.thumb_func
 404              		.type	my_mod, %function
 405              	my_mod:
 406              	.LFB66:
  97:..\src/utils.c **** 
  98:..\src/utils.c **** //==============================================================================
  99:..\src/utils.c **** //                                                                        MODULE
 100:..\src/utils.c **** //==============================================================================
 101:..\src/utils.c **** 
 102:..\src/utils.c **** uint32 my_mod(int32 val, int32 divisor) {
 407              		.loc 1 102 0
 408              		.cfi_startproc
 409              		@ args = 0, pretend = 0, frame = 8
 410              		@ frame_needed = 1, uses_anonymous_args = 0
 411              		@ link register save eliminated.
ARM GAS  C:\Users\mgnocco\AppData\Local\Temp\ccOXEsk0.s 			page 10


 412 0000 80B4     		push	{r7}
 413              		.cfi_def_cfa_offset 4
 414              		.cfi_offset 7, -4
 415 0002 83B0     		sub	sp, sp, #12
 416              		.cfi_def_cfa_offset 16
 417 0004 00AF     		add	r7, sp, #0
 418              		.cfi_def_cfa_register 7
 419 0006 7860     		str	r0, [r7, #4]
 420 0008 3960     		str	r1, [r7]
 103:..\src/utils.c **** 
 104:..\src/utils.c ****     if (val >= 0) {
 421              		.loc 1 104 0
 422 000a 7B68     		ldr	r3, [r7, #4]
 423 000c 002B     		cmp	r3, #0
 424 000e 08DB     		blt	.L16
 105:..\src/utils.c ****         return (int32)(val % divisor);
 425              		.loc 1 105 0
 426 0010 7B68     		ldr	r3, [r7, #4]
 427 0012 3A68     		ldr	r2, [r7]
 428 0014 93FBF2F2 		sdiv	r2, r3, r2
 429 0018 3968     		ldr	r1, [r7]
 430 001a 01FB02F2 		mul	r2, r1, r2
 431 001e 9B1A     		subs	r3, r3, r2
 432 0020 11E0     		b	.L17
 433              	.L16:
 106:..\src/utils.c ****     } else {
 107:..\src/utils.c ****         return (int32)((divisor - (-val % divisor)) % divisor);
 434              		.loc 1 107 0
 435 0022 7B68     		ldr	r3, [r7, #4]
 436 0024 5B42     		negs	r3, r3
 437 0026 3A68     		ldr	r2, [r7]
 438 0028 93FBF2F2 		sdiv	r2, r3, r2
 439 002c 3968     		ldr	r1, [r7]
 440 002e 01FB02F2 		mul	r2, r1, r2
 441 0032 9B1A     		subs	r3, r3, r2
 442 0034 3A68     		ldr	r2, [r7]
 443 0036 D31A     		subs	r3, r2, r3
 444 0038 3A68     		ldr	r2, [r7]
 445 003a 93FBF2F2 		sdiv	r2, r3, r2
 446 003e 3968     		ldr	r1, [r7]
 447 0040 01FB02F2 		mul	r2, r1, r2
 448 0044 9B1A     		subs	r3, r3, r2
 449              	.L17:
 108:..\src/utils.c ****     }
 109:..\src/utils.c **** }
 450              		.loc 1 109 0
 451 0046 1846     		mov	r0, r3
 452 0048 0C37     		adds	r7, r7, #12
 453              		.cfi_def_cfa_offset 4
 454 004a BD46     		mov	sp, r7
 455              		.cfi_def_cfa_register 13
 456              		@ sp needed
 457 004c 80BC     		pop	{r7}
 458              		.cfi_restore 7
 459              		.cfi_def_cfa_offset 0
 460 004e 7047     		bx	lr
 461              		.cfi_endproc
ARM GAS  C:\Users\mgnocco\AppData\Local\Temp\ccOXEsk0.s 			page 11


 462              	.LFE66:
 463              		.size	my_mod, .-my_mod
 464              		.section	.text.calibration,"ax",%progbits
 465              		.align	2
 466              		.global	calibration
 467              		.thumb
 468              		.thumb_func
 469              		.type	calibration, %function
 470              	calibration:
 471              	.LFB67:
 110:..\src/utils.c **** 
 111:..\src/utils.c **** 
 112:..\src/utils.c **** //==============================================================================
 113:..\src/utils.c **** //                                                                     CALIBRATE
 114:..\src/utils.c **** //==============================================================================
 115:..\src/utils.c **** 
 116:..\src/utils.c **** void calibration(void) {
 472              		.loc 1 116 0
 473              		.cfi_startproc
 474              		@ args = 0, pretend = 0, frame = 0
 475              		@ frame_needed = 1, uses_anonymous_args = 0
 476              		@ link register save eliminated.
 477 0000 90B4     		push	{r4, r7}
 478              		.cfi_def_cfa_offset 8
 479              		.cfi_offset 4, -8
 480              		.cfi_offset 7, -4
 481 0002 00AF     		add	r7, sp, #0
 482              		.cfi_def_cfa_register 7
 117:..\src/utils.c ****     static uint8 direction;                 //0 closing, 1 opening.
 118:..\src/utils.c ****     static uint16 closure_counter = 0;          //Range [0 - 2^16].
 119:..\src/utils.c ****     //static CYBIT count_one = 1;             //Used to count only one cycle, when inputs are gener
 120:..\src/utils.c ****                                             //and pass the threshold, having the condition verified
 121:..\src/utils.c **** 
 122:..\src/utils.c ****     // closing
 123:..\src/utils.c ****     if (direction == 0) {
 483              		.loc 1 123 0
 484 0004 2E4B     		ldr	r3, .L23
 485 0006 1B78     		ldrb	r3, [r3]	@ zero_extendqisi2
 486 0008 002B     		cmp	r3, #0
 487 000a 22D1     		bne	.L19
 124:..\src/utils.c ****         g_refNew[0].pos += (calib.speed << g_mem.enc[g_mem.motor[0].encoder_line].res[0]);
 488              		.loc 1 124 0
 489 000c 2D4B     		ldr	r3, .L23+4
 490 000e 1A68     		ldr	r2, [r3]
 491 0010 2D4B     		ldr	r3, .L23+8
 492 0012 B3F90230 		ldrsh	r3, [r3, #2]
 493 0016 1C46     		mov	r4, r3
 494 0018 2C4B     		ldr	r3, .L23+12
 495 001a 93F81031 		ldrb	r3, [r3, #272]	@ zero_extendqisi2
 496 001e 1846     		mov	r0, r3
 497 0020 2A49     		ldr	r1, .L23+12
 498 0022 0346     		mov	r3, r0
 499 0024 5B00     		lsls	r3, r3, #1
 500 0026 0344     		add	r3, r3, r0
 501 0028 1B01     		lsls	r3, r3, #4
 502 002a 0B44     		add	r3, r3, r1
 503 002c 03F29513 		addw	r3, r3, #405
ARM GAS  C:\Users\mgnocco\AppData\Local\Temp\ccOXEsk0.s 			page 12


 504 0030 1B78     		ldrb	r3, [r3]	@ zero_extendqisi2
 505 0032 04FA03F3 		lsl	r3, r4, r3
 506 0036 1344     		add	r3, r3, r2
 507 0038 224A     		ldr	r2, .L23+4
 508 003a 1360     		str	r3, [r2]
 125:..\src/utils.c ****         
 126:..\src/utils.c ****         if ((g_refNew[0].pos) > g_mem.motor[0].pos_lim_sup) {
 509              		.loc 1 126 0
 510 003c 214B     		ldr	r3, .L23+4
 511 003e 1A68     		ldr	r2, [r3]
 512 0040 224B     		ldr	r3, .L23+12
 513 0042 D3F8E830 		ldr	r3, [r3, #232]
 514 0046 9A42     		cmp	r2, r3
 515 0048 36DD     		ble	.L22
 127:..\src/utils.c ****             direction = 1;
 516              		.loc 1 127 0
 517 004a 1D4B     		ldr	r3, .L23
 518 004c 0122     		movs	r2, #1
 519 004e 1A70     		strb	r2, [r3]
 128:..\src/utils.c ****         }
 129:..\src/utils.c ****     } else { //opening
 130:..\src/utils.c ****         g_refNew[0].pos -= (calib.speed << g_mem.enc[g_mem.motor[0].encoder_line].res[0]);
 131:..\src/utils.c ****         if (SIGN(g_refNew[0].pos) != 1) {
 132:..\src/utils.c ****             direction = 0;
 133:..\src/utils.c ****             closure_counter++;
 134:..\src/utils.c **** //            count_one = 1;          // Enables back the cycles counter
 135:..\src/utils.c ****             if (closure_counter == calib.repetitions) {
 136:..\src/utils.c ****                 closure_counter = 0;
 137:..\src/utils.c ****                 calib.enabled = FALSE;
 138:..\src/utils.c ****             }
 139:..\src/utils.c ****         }
 140:..\src/utils.c ****     }
 141:..\src/utils.c **** }
 520              		.loc 1 141 0
 521 0050 32E0     		b	.L22
 522              	.L19:
 130:..\src/utils.c ****         if (SIGN(g_refNew[0].pos) != 1) {
 523              		.loc 1 130 0
 524 0052 1C4B     		ldr	r3, .L23+4
 525 0054 1A68     		ldr	r2, [r3]
 526 0056 1C4B     		ldr	r3, .L23+8
 527 0058 B3F90230 		ldrsh	r3, [r3, #2]
 528 005c 1C46     		mov	r4, r3
 529 005e 1B4B     		ldr	r3, .L23+12
 530 0060 93F81031 		ldrb	r3, [r3, #272]	@ zero_extendqisi2
 531 0064 1846     		mov	r0, r3
 532 0066 1949     		ldr	r1, .L23+12
 533 0068 0346     		mov	r3, r0
 534 006a 5B00     		lsls	r3, r3, #1
 535 006c 0344     		add	r3, r3, r0
 536 006e 1B01     		lsls	r3, r3, #4
 537 0070 0B44     		add	r3, r3, r1
 538 0072 03F29513 		addw	r3, r3, #405
 539 0076 1B78     		ldrb	r3, [r3]	@ zero_extendqisi2
 540 0078 04FA03F3 		lsl	r3, r4, r3
 541 007c D31A     		subs	r3, r2, r3
 542 007e 114A     		ldr	r2, .L23+4
ARM GAS  C:\Users\mgnocco\AppData\Local\Temp\ccOXEsk0.s 			page 13


 543 0080 1360     		str	r3, [r2]
 131:..\src/utils.c ****             direction = 0;
 544              		.loc 1 131 0
 545 0082 104B     		ldr	r3, .L23+4
 546 0084 1B68     		ldr	r3, [r3]
 547 0086 002B     		cmp	r3, #0
 548 0088 16DA     		bge	.L22
 132:..\src/utils.c ****             closure_counter++;
 549              		.loc 1 132 0
 550 008a 0D4B     		ldr	r3, .L23
 551 008c 0022     		movs	r2, #0
 552 008e 1A70     		strb	r2, [r3]
 133:..\src/utils.c **** //            count_one = 1;          // Enables back the cycles counter
 553              		.loc 1 133 0
 554 0090 0F4B     		ldr	r3, .L23+16
 555 0092 1B88     		ldrh	r3, [r3]
 556 0094 0133     		adds	r3, r3, #1
 557 0096 9AB2     		uxth	r2, r3
 558 0098 0D4B     		ldr	r3, .L23+16
 559 009a 1A80     		strh	r2, [r3]	@ movhi
 135:..\src/utils.c ****                 closure_counter = 0;
 560              		.loc 1 135 0
 561 009c 0C4B     		ldr	r3, .L23+16
 562 009e 1B88     		ldrh	r3, [r3]
 563 00a0 1A46     		mov	r2, r3
 564 00a2 094B     		ldr	r3, .L23+8
 565 00a4 B3F90430 		ldrsh	r3, [r3, #4]
 566 00a8 9A42     		cmp	r2, r3
 567 00aa 05D1     		bne	.L22
 136:..\src/utils.c ****                 calib.enabled = FALSE;
 568              		.loc 1 136 0
 569 00ac 084B     		ldr	r3, .L23+16
 570 00ae 0022     		movs	r2, #0
 571 00b0 1A80     		strh	r2, [r3]	@ movhi
 137:..\src/utils.c ****             }
 572              		.loc 1 137 0
 573 00b2 054B     		ldr	r3, .L23+8
 574 00b4 0022     		movs	r2, #0
 575 00b6 1A70     		strb	r2, [r3]
 576              	.L22:
 577              		.loc 1 141 0
 578 00b8 00BF     		nop
 579 00ba BD46     		mov	sp, r7
 580              		.cfi_def_cfa_register 13
 581              		@ sp needed
 582 00bc 90BC     		pop	{r4, r7}
 583              		.cfi_restore 7
 584              		.cfi_restore 4
 585              		.cfi_def_cfa_offset 0
 586 00be 7047     		bx	lr
 587              	.L24:
 588              		.align	2
 589              	.L23:
 590 00c0 10000000 		.word	direction.9561
 591 00c4 00000000 		.word	g_refNew
 592 00c8 00000000 		.word	calib
 593 00cc 00000000 		.word	g_mem
ARM GAS  C:\Users\mgnocco\AppData\Local\Temp\ccOXEsk0.s 			page 14


 594 00d0 12000000 		.word	closure_counter.9562
 595              		.cfi_endproc
 596              	.LFE67:
 597              		.size	calibration, .-calibration
 598              		.section	.text.calc_turns_fcn_SH,"ax",%progbits
 599              		.align	2
 600              		.global	calc_turns_fcn_SH
 601              		.thumb
 602              		.thumb_func
 603              		.type	calc_turns_fcn_SH, %function
 604              	calc_turns_fcn_SH:
 605              	.LFB68:
 142:..\src/utils.c **** 
 143:..\src/utils.c **** 
 144:..\src/utils.c **** //==============================================================================
 145:..\src/utils.c **** //                                                      DOUBLE ENCODER CALC TURN
 146:..\src/utils.c **** //==============================================================================
 147:..\src/utils.c **** 
 148:..\src/utils.c **** // Use this matlab function to calculate I1 and I2
 149:..\src/utils.c **** //
 150:..\src/utils.c **** // function [inv_a, inv_b] = mod_mul_inv(a, b)
 151:..\src/utils.c **** //     a = int32(a);
 152:..\src/utils.c **** //     b = int32(b);
 153:..\src/utils.c **** //     if b == 0
 154:..\src/utils.c **** //         inv_a = 1;
 155:..\src/utils.c **** //         inv_b = 0;
 156:..\src/utils.c **** //         return
 157:..\src/utils.c **** //     else
 158:..\src/utils.c **** //         q = idivide(a,b,'floor');
 159:..\src/utils.c **** //         r = mod(a,b);
 160:..\src/utils.c **** //         [s, t] = mod_mul_inv(b, r);
 161:..\src/utils.c **** //     end
 162:..\src/utils.c **** //     inv_a = t;
 163:..\src/utils.c **** //     inv_b = s - q * t;
 164:..\src/utils.c **** // return
 165:..\src/utils.c **** 
 166:..\src/utils.c **** // Number of ticks per turn
 167:..\src/utils.c **** #define M 65536          ///< Number of encoder ticks per turn.
 168:..\src/utils.c **** 
 169:..\src/utils.c **** int calc_turns_fcn_SH(const int32 pos1, const int32 pos2, const int N1, const int N2, const int I1)
 606              		.loc 1 169 0
 607              		.cfi_startproc
 608              		@ args = 4, pretend = 0, frame = 24
 609              		@ frame_needed = 1, uses_anonymous_args = 0
 610 0000 80B5     		push	{r7, lr}
 611              		.cfi_def_cfa_offset 8
 612              		.cfi_offset 7, -8
 613              		.cfi_offset 14, -4
 614 0002 86B0     		sub	sp, sp, #24
 615              		.cfi_def_cfa_offset 32
 616 0004 00AF     		add	r7, sp, #0
 617              		.cfi_def_cfa_register 7
 618 0006 F860     		str	r0, [r7, #12]
 619 0008 B960     		str	r1, [r7, #8]
 620 000a 7A60     		str	r2, [r7, #4]
 621 000c 3B60     		str	r3, [r7]
 170:..\src/utils.c ****     
ARM GAS  C:\Users\mgnocco\AppData\Local\Temp\ccOXEsk0.s 			page 15


 171:..\src/utils.c ****     int32 x;
 172:..\src/utils.c ****     int32 aux;
 173:..\src/utils.c ****     
 174:..\src/utils.c ****     switch (c_mem.dev.right_left){
 622              		.loc 1 174 0
 623 000e 2C4B     		ldr	r3, .L32
 624 0010 93F8A730 		ldrb	r3, [r3, #167]	@ zero_extendqisi2
 625 0014 002B     		cmp	r3, #0
 626 0016 02D0     		beq	.L27
 627 0018 012B     		cmp	r3, #1
 628 001a 2BD0     		beq	.L28
 629 001c 4AE0     		b	.L26
 630              	.L27:
 175:..\src/utils.c ****         case RIGHT_HAND:
 176:..\src/utils.c ****             x = (my_mod( - N2*(pos2) - N1*pos1, M*N2) + M/2) / M;
 631              		.loc 1 176 0
 632 001e 3B68     		ldr	r3, [r7]
 633 0020 5B42     		negs	r3, r3
 634 0022 BA68     		ldr	r2, [r7, #8]
 635 0024 02FB03F2 		mul	r2, r2, r3
 636 0028 7B68     		ldr	r3, [r7, #4]
 637 002a F968     		ldr	r1, [r7, #12]
 638 002c 01FB03F3 		mul	r3, r1, r3
 639 0030 D21A     		subs	r2, r2, r3
 640 0032 3B68     		ldr	r3, [r7]
 641 0034 1B04     		lsls	r3, r3, #16
 642 0036 1946     		mov	r1, r3
 643 0038 1046     		mov	r0, r2
 644 003a FFF7FEFF 		bl	my_mod
 645 003e 0346     		mov	r3, r0
 646 0040 03F50043 		add	r3, r3, #32768
 647 0044 1B0C     		lsrs	r3, r3, #16
 648 0046 3B61     		str	r3, [r7, #16]
 177:..\src/utils.c ****             
 178:..\src/utils.c ****             aux = my_mod(x*I1, N2);       // Module between x*I1 and N2.
 649              		.loc 1 178 0
 650 0048 3B69     		ldr	r3, [r7, #16]
 651 004a 3A6A     		ldr	r2, [r7, #32]
 652 004c 02FB03F3 		mul	r3, r2, r3
 653 0050 3968     		ldr	r1, [r7]
 654 0052 1846     		mov	r0, r3
 655 0054 FFF7FEFF 		bl	my_mod
 656 0058 0346     		mov	r3, r0
 657 005a 7B61     		str	r3, [r7, #20]
 179:..\src/utils.c ****             
 180:..\src/utils.c ****             // Wrap turns
 181:..\src/utils.c ****             aux -= N2;      //N2 (teeth of the second encoder wheel)
 658              		.loc 1 181 0
 659 005c 7A69     		ldr	r2, [r7, #20]
 660 005e 3B68     		ldr	r3, [r7]
 661 0060 D31A     		subs	r3, r2, r3
 662 0062 7B61     		str	r3, [r7, #20]
 182:..\src/utils.c ****             if (aux == -N2){
 663              		.loc 1 182 0
 664 0064 3B68     		ldr	r3, [r7]
 665 0066 5A42     		negs	r2, r3
 666 0068 7B69     		ldr	r3, [r7, #20]
ARM GAS  C:\Users\mgnocco\AppData\Local\Temp\ccOXEsk0.s 			page 16


 667 006a 9A42     		cmp	r2, r3
 668 006c 21D1     		bne	.L31
 183:..\src/utils.c ****                 aux = 0;
 669              		.loc 1 183 0
 670 006e 0023     		movs	r3, #0
 671 0070 7B61     		str	r3, [r7, #20]
 184:..\src/utils.c ****             }
 185:..\src/utils.c ****             
 186:..\src/utils.c ****             break;
 672              		.loc 1 186 0
 673 0072 1EE0     		b	.L31
 674              	.L28:
 187:..\src/utils.c ****         case LEFT_HAND:
 188:..\src/utils.c ****             x = (my_mod( - N2*(-pos2) - N1*pos1, M*N2) + M/2) / M;
 675              		.loc 1 188 0
 676 0074 3B68     		ldr	r3, [r7]
 677 0076 BA68     		ldr	r2, [r7, #8]
 678 0078 02FB03F2 		mul	r2, r2, r3
 679 007c 7B68     		ldr	r3, [r7, #4]
 680 007e F968     		ldr	r1, [r7, #12]
 681 0080 01FB03F3 		mul	r3, r1, r3
 682 0084 D21A     		subs	r2, r2, r3
 683 0086 3B68     		ldr	r3, [r7]
 684 0088 1B04     		lsls	r3, r3, #16
 685 008a 1946     		mov	r1, r3
 686 008c 1046     		mov	r0, r2
 687 008e FFF7FEFF 		bl	my_mod
 688 0092 0346     		mov	r3, r0
 689 0094 03F50043 		add	r3, r3, #32768
 690 0098 1B0C     		lsrs	r3, r3, #16
 691 009a 3B61     		str	r3, [r7, #16]
 189:..\src/utils.c ****             
 190:..\src/utils.c ****             aux = my_mod(x*I1, N2);       // Module between x*I1 and N2.
 692              		.loc 1 190 0
 693 009c 3B69     		ldr	r3, [r7, #16]
 694 009e 3A6A     		ldr	r2, [r7, #32]
 695 00a0 02FB03F3 		mul	r3, r2, r3
 696 00a4 3968     		ldr	r1, [r7]
 697 00a6 1846     		mov	r0, r3
 698 00a8 FFF7FEFF 		bl	my_mod
 699 00ac 0346     		mov	r3, r0
 700 00ae 7B61     		str	r3, [r7, #20]
 191:..\src/utils.c ****             
 192:..\src/utils.c ****             break;
 701              		.loc 1 192 0
 702 00b0 00E0     		b	.L26
 703              	.L31:
 186:..\src/utils.c ****         case LEFT_HAND:
 704              		.loc 1 186 0
 705 00b2 00BF     		nop
 706              	.L26:
 193:..\src/utils.c ****     }
 194:..\src/utils.c ****   
 195:..\src/utils.c ****     // SoftHand Pro firmware turns computation does not have to take into account turns shift like 
 196:..\src/utils.c ****     return aux; 
 707              		.loc 1 196 0
 708 00b4 7B69     		ldr	r3, [r7, #20]
ARM GAS  C:\Users\mgnocco\AppData\Local\Temp\ccOXEsk0.s 			page 17


 197:..\src/utils.c **** 
 198:..\src/utils.c **** }
 709              		.loc 1 198 0
 710 00b6 1846     		mov	r0, r3
 711 00b8 1837     		adds	r7, r7, #24
 712              		.cfi_def_cfa_offset 8
 713 00ba BD46     		mov	sp, r7
 714              		.cfi_def_cfa_register 13
 715              		@ sp needed
 716 00bc 80BD     		pop	{r7, pc}
 717              	.L33:
 718 00be 00BF     		.align	2
 719              	.L32:
 720 00c0 00000000 		.word	c_mem
 721              		.cfi_endproc
 722              	.LFE68:
 723              		.size	calc_turns_fcn_SH, .-calc_turns_fcn_SH
 724              		.section	.text.calc_turns_fcn,"ax",%progbits
 725              		.align	2
 726              		.global	calc_turns_fcn
 727              		.thumb
 728              		.thumb_func
 729              		.type	calc_turns_fcn, %function
 730              	calc_turns_fcn:
 731              	.LFB69:
 199:..\src/utils.c **** 
 200:..\src/utils.c **** int calc_turns_fcn(const int32 pos1, const int32 pos2, const int N1, const int N2, const int I1) { 
 732              		.loc 1 200 0
 733              		.cfi_startproc
 734              		@ args = 4, pretend = 0, frame = 24
 735              		@ frame_needed = 1, uses_anonymous_args = 0
 736 0000 80B5     		push	{r7, lr}
 737              		.cfi_def_cfa_offset 8
 738              		.cfi_offset 7, -8
 739              		.cfi_offset 14, -4
 740 0002 88B0     		sub	sp, sp, #32
 741              		.cfi_def_cfa_offset 40
 742 0004 02AF     		add	r7, sp, #8
 743              		.cfi_def_cfa 7, 32
 744 0006 F860     		str	r0, [r7, #12]
 745 0008 B960     		str	r1, [r7, #8]
 746 000a 7A60     		str	r2, [r7, #4]
 747 000c 3B60     		str	r3, [r7]
 201:..\src/utils.c **** 
 202:..\src/utils.c ****     if (c_mem.dev.dev_type == SOFTHAND_PRO) {
 748              		.loc 1 202 0
 749 000e 214B     		ldr	r3, .L37
 750 0010 93F8AC30 		ldrb	r3, [r3, #172]	@ zero_extendqisi2
 751 0014 002B     		cmp	r3, #0
 752 0016 09D1     		bne	.L35
 203:..\src/utils.c ****         return calc_turns_fcn_SH(pos1, pos2, N1, N2, I1);   
 753              		.loc 1 203 0
 754 0018 3B6A     		ldr	r3, [r7, #32]
 755 001a 0093     		str	r3, [sp]
 756 001c 3B68     		ldr	r3, [r7]
 757 001e 7A68     		ldr	r2, [r7, #4]
 758 0020 B968     		ldr	r1, [r7, #8]
ARM GAS  C:\Users\mgnocco\AppData\Local\Temp\ccOXEsk0.s 			page 18


 759 0022 F868     		ldr	r0, [r7, #12]
 760 0024 FFF7FEFF 		bl	calc_turns_fcn_SH
 761 0028 0346     		mov	r3, r0
 762 002a 2FE0     		b	.L36
 763              	.L35:
 764              	.LBB2:
 204:..\src/utils.c ****     }
 205:..\src/utils.c ****     else {
 206:..\src/utils.c ****         // This is the same computation and formulas used in previous firmwares
 207:..\src/utils.c ****         int32 x = (my_mod( - N2*pos2 - N1*pos1, M*N2) + M/2) / M;
 765              		.loc 1 207 0
 766 002c 3B68     		ldr	r3, [r7]
 767 002e 5B42     		negs	r3, r3
 768 0030 BA68     		ldr	r2, [r7, #8]
 769 0032 02FB03F2 		mul	r2, r2, r3
 770 0036 7B68     		ldr	r3, [r7, #4]
 771 0038 F968     		ldr	r1, [r7, #12]
 772 003a 01FB03F3 		mul	r3, r1, r3
 773 003e D21A     		subs	r2, r2, r3
 774 0040 3B68     		ldr	r3, [r7]
 775 0042 1B04     		lsls	r3, r3, #16
 776 0044 1946     		mov	r1, r3
 777 0046 1046     		mov	r0, r2
 778 0048 FFF7FEFF 		bl	my_mod
 779 004c 0346     		mov	r3, r0
 780 004e 03F50043 		add	r3, r3, #32768
 781 0052 1B0C     		lsrs	r3, r3, #16
 782 0054 7B61     		str	r3, [r7, #20]
 208:..\src/utils.c **** 
 209:..\src/utils.c ****         int32 aux = my_mod(x*I1, N2);
 783              		.loc 1 209 0
 784 0056 7B69     		ldr	r3, [r7, #20]
 785 0058 3A6A     		ldr	r2, [r7, #32]
 786 005a 02FB03F3 		mul	r3, r2, r3
 787 005e 3968     		ldr	r1, [r7]
 788 0060 1846     		mov	r0, r3
 789 0062 FFF7FEFF 		bl	my_mod
 790 0066 0346     		mov	r3, r0
 791 0068 3B61     		str	r3, [r7, #16]
 210:..\src/utils.c **** 
 211:..\src/utils.c ****         return (my_mod(aux + N2/2, N2) - N2/2);
 792              		.loc 1 211 0
 793 006a 3B68     		ldr	r3, [r7]
 794 006c DA0F     		lsrs	r2, r3, #31
 795 006e 1344     		add	r3, r3, r2
 796 0070 5B10     		asrs	r3, r3, #1
 797 0072 1A46     		mov	r2, r3
 798 0074 3B69     		ldr	r3, [r7, #16]
 799 0076 1344     		add	r3, r3, r2
 800 0078 3968     		ldr	r1, [r7]
 801 007a 1846     		mov	r0, r3
 802 007c FFF7FEFF 		bl	my_mod
 803 0080 0146     		mov	r1, r0
 804 0082 3B68     		ldr	r3, [r7]
 805 0084 DA0F     		lsrs	r2, r3, #31
 806 0086 1344     		add	r3, r3, r2
 807 0088 5B10     		asrs	r3, r3, #1
ARM GAS  C:\Users\mgnocco\AppData\Local\Temp\ccOXEsk0.s 			page 19


 808 008a CB1A     		subs	r3, r1, r3
 809              	.L36:
 810              	.LBE2:
 212:..\src/utils.c ****     }
 213:..\src/utils.c **** }
 811              		.loc 1 213 0
 812 008c 1846     		mov	r0, r3
 813 008e 1837     		adds	r7, r7, #24
 814              		.cfi_def_cfa_offset 8
 815 0090 BD46     		mov	sp, r7
 816              		.cfi_def_cfa_register 13
 817              		@ sp needed
 818 0092 80BD     		pop	{r7, pc}
 819              	.L38:
 820              		.align	2
 821              	.L37:
 822 0094 00000000 		.word	c_mem
 823              		.cfi_endproc
 824              	.LFE69:
 825              		.size	calc_turns_fcn, .-calc_turns_fcn
 826              		.section	.text.check_rest_position,"ax",%progbits
 827              		.align	2
 828              		.global	check_rest_position
 829              		.thumb
 830              		.thumb_func
 831              		.type	check_rest_position, %function
 832              	check_rest_position:
 833              	.LFB70:
 214:..\src/utils.c **** 
 215:..\src/utils.c **** //==============================================================================
 216:..\src/utils.c **** //                                                                 REST POSITION
 217:..\src/utils.c **** //==============================================================================
 218:..\src/utils.c **** void check_rest_position(void) {     // 100 Hz frequency.
 834              		.loc 1 218 0
 835              		.cfi_startproc
 836              		@ args = 0, pretend = 0, frame = 8
 837              		@ frame_needed = 1, uses_anonymous_args = 0
 838 0000 90B5     		push	{r4, r7, lr}
 839              		.cfi_def_cfa_offset 12
 840              		.cfi_offset 4, -12
 841              		.cfi_offset 7, -8
 842              		.cfi_offset 14, -4
 843 0002 83B0     		sub	sp, sp, #12
 844              		.cfi_def_cfa_offset 24
 845 0004 00AF     		add	r7, sp, #0
 846              		.cfi_def_cfa_register 7
 219:..\src/utils.c ****     
 220:..\src/utils.c ****     static uint32 count = 0;        // Range [0 - 2^31].
 221:..\src/utils.c ****     static uint8 flag_count = 1;
 222:..\src/utils.c ****     static uint8 first_time = 1;
 223:..\src/utils.c ****     static float m = 0;
 224:..\src/utils.c ****     static int32 abs_err_thr = 0;
 225:..\src/utils.c ****     static int32 delta_inc = 0;
 226:..\src/utils.c ****     int32 act_pos = 0;
 847              		.loc 1 226 0
 848 0006 0023     		movs	r3, #0
 849 0008 7B60     		str	r3, [r7, #4]
ARM GAS  C:\Users\mgnocco\AppData\Local\Temp\ccOXEsk0.s 			page 20


 227:..\src/utils.c ****     static int32 rest_error;
 228:..\src/utils.c ****     float rest_vel_ticks_ms = ((float)g_mem.SH.rest_vel)/1000.0;    //[ticks/s] -> [ticks/ms]
 850              		.loc 1 228 0
 851 000a A14B     		ldr	r3, .L54
 852 000c D3F8A832 		ldr	r3, [r3, #680]
 853 0010 1846     		mov	r0, r3
 854 0012 FFF7FEFF 		bl	__aeabi_i2f
 855 0016 0346     		mov	r3, r0
 856 0018 9E49     		ldr	r1, .L54+4
 857 001a 1846     		mov	r0, r3
 858 001c FFF7FEFF 		bl	__aeabi_fdiv
 859 0020 0346     		mov	r3, r0
 860 0022 3B60     		str	r3, [r7]	@ float
 229:..\src/utils.c ****     
 230:..\src/utils.c ****     if (first_time){
 861              		.loc 1 230 0
 862 0024 9C4B     		ldr	r3, .L54+8
 863 0026 1B78     		ldrb	r3, [r3]	@ zero_extendqisi2
 864 0028 002B     		cmp	r3, #0
 865 002a 05D0     		beq	.L40
 231:..\src/utils.c ****         count = 0;
 866              		.loc 1 231 0
 867 002c 9B4B     		ldr	r3, .L54+12
 868 002e 0022     		movs	r2, #0
 869 0030 1A60     		str	r2, [r3]
 232:..\src/utils.c ****         first_time = 0;
 870              		.loc 1 232 0
 871 0032 994B     		ldr	r3, .L54+8
 872 0034 0022     		movs	r2, #0
 873 0036 1A70     		strb	r2, [r3]
 874              	.L40:
 233:..\src/utils.c ****     }
 234:..\src/utils.c ****     
 235:..\src/utils.c ****     act_pos = (int32)(g_meas[g_mem.motor[0].encoder_line].pos[0] >> g_mem.enc[g_mem.motor[0].encode
 875              		.loc 1 235 0
 876 0038 954B     		ldr	r3, .L54
 877 003a 93F81031 		ldrb	r3, [r3, #272]	@ zero_extendqisi2
 878 003e 1946     		mov	r1, r3
 879 0040 974A     		ldr	r2, .L54+16
 880 0042 3423     		movs	r3, #52
 881 0044 03FB01F3 		mul	r3, r3, r1
 882 0048 1344     		add	r3, r3, r2
 883 004a 1A68     		ldr	r2, [r3]
 884 004c 904B     		ldr	r3, .L54
 885 004e 93F81031 		ldrb	r3, [r3, #272]	@ zero_extendqisi2
 886 0052 1846     		mov	r0, r3
 887 0054 8E49     		ldr	r1, .L54
 888 0056 0346     		mov	r3, r0
 889 0058 5B00     		lsls	r3, r3, #1
 890 005a 0344     		add	r3, r3, r0
 891 005c 1B01     		lsls	r3, r3, #4
 892 005e 0B44     		add	r3, r3, r1
 893 0060 03F29513 		addw	r3, r3, #405
 894 0064 1B78     		ldrb	r3, [r3]	@ zero_extendqisi2
 895 0066 42FA03F3 		asr	r3, r2, r3
 896 006a 7B60     		str	r3, [r7, #4]
 236:..\src/utils.c ****     
ARM GAS  C:\Users\mgnocco\AppData\Local\Temp\ccOXEsk0.s 			page 21


 237:..\src/utils.c ****     if ( ( ((c_mem.motor[0].input_mode == INPUT_MODE_EMG_PROPORTIONAL || c_mem.motor[0].input_mode 
 897              		.loc 1 237 0
 898 006c 8D4B     		ldr	r3, .L54+20
 899 006e 93F80E31 		ldrb	r3, [r3, #270]	@ zero_extendqisi2
 900 0072 022B     		cmp	r3, #2
 901 0074 13D0     		beq	.L41
 902              		.loc 1 237 0 is_stmt 0 discriminator 1
 903 0076 8B4B     		ldr	r3, .L54+20
 904 0078 93F80E31 		ldrb	r3, [r3, #270]	@ zero_extendqisi2
 905 007c 032B     		cmp	r3, #3
 906 007e 0ED0     		beq	.L41
 907              		.loc 1 237 0 discriminator 2
 908 0080 884B     		ldr	r3, .L54+20
 909 0082 93F80E31 		ldrb	r3, [r3, #270]	@ zero_extendqisi2
 910 0086 042B     		cmp	r3, #4
 911 0088 09D0     		beq	.L41
 238:..\src/utils.c ****              c_mem.motor[0].input_mode == INPUT_MODE_EMG_FCFS_ADV || c_mem.motor[0].input_mode == I
 912              		.loc 1 238 0 is_stmt 1 discriminator 3
 913 008a 864B     		ldr	r3, .L54+20
 914 008c 93F80E31 		ldrb	r3, [r3, #270]	@ zero_extendqisi2
 237:..\src/utils.c ****              c_mem.motor[0].input_mode == INPUT_MODE_EMG_FCFS_ADV || c_mem.motor[0].input_mode == I
 915              		.loc 1 237 0 discriminator 3
 916 0090 052B     		cmp	r3, #5
 917 0092 04D0     		beq	.L41
 918              		.loc 1 238 0
 919 0094 834B     		ldr	r3, .L54+20
 920 0096 93F80E31 		ldrb	r3, [r3, #270]	@ zero_extendqisi2
 921 009a 072B     		cmp	r3, #7
 922 009c 16D1     		bne	.L42
 923              	.L41:
 924              		.loc 1 238 0 is_stmt 0 discriminator 1
 925 009e 824B     		ldr	r3, .L54+24
 926 00a0 1B68     		ldr	r3, [r3]
 927 00a2 C72B     		cmp	r3, #199
 928 00a4 12DC     		bgt	.L42
 929              		.loc 1 238 0 discriminator 2
 930 00a6 804B     		ldr	r3, .L54+24
 931 00a8 5B68     		ldr	r3, [r3, #4]
 932 00aa C72B     		cmp	r3, #199
 933 00ac 0EDC     		bgt	.L42
 934              		.loc 1 238 0 discriminator 3
 935 00ae 7B68     		ldr	r3, [r7, #4]
 936 00b0 42F20F72 		movw	r2, #9999
 937 00b4 9342     		cmp	r3, r2
 938 00b6 09DC     		bgt	.L42
 239:..\src/utils.c ****         if (flag_count == 1){
 939              		.loc 1 239 0 is_stmt 1
 940 00b8 7C4B     		ldr	r3, .L54+28
 941 00ba 1B78     		ldrb	r3, [r3]	@ zero_extendqisi2
 942 00bc 012B     		cmp	r3, #1
 943 00be 0ED1     		bne	.L44
 240:..\src/utils.c ****             count = count + 1;
 944              		.loc 1 240 0
 945 00c0 764B     		ldr	r3, .L54+12
 946 00c2 1B68     		ldr	r3, [r3]
 947 00c4 0133     		adds	r3, r3, #1
 948 00c6 754A     		ldr	r2, .L54+12
ARM GAS  C:\Users\mgnocco\AppData\Local\Temp\ccOXEsk0.s 			page 22


 949 00c8 1360     		str	r3, [r2]
 239:..\src/utils.c ****         if (flag_count == 1){
 950              		.loc 1 239 0
 951 00ca 08E0     		b	.L44
 952              	.L42:
 241:..\src/utils.c ****         }
 242:..\src/utils.c ****     }
 243:..\src/utils.c ****     else {
 244:..\src/utils.c ****         count = 0;
 953              		.loc 1 244 0
 954 00cc 734B     		ldr	r3, .L54+12
 955 00ce 0022     		movs	r2, #0
 956 00d0 1A60     		str	r2, [r3]
 245:..\src/utils.c ****         rest_enabled = 0;
 957              		.loc 1 245 0
 958 00d2 774B     		ldr	r3, .L54+32
 959 00d4 0022     		movs	r2, #0
 960 00d6 1A70     		strb	r2, [r3]
 246:..\src/utils.c ****         flag_count = 1;
 961              		.loc 1 246 0
 962 00d8 744B     		ldr	r3, .L54+28
 963 00da 0122     		movs	r2, #1
 964 00dc 1A70     		strb	r2, [r3]
 965              	.L44:
 247:..\src/utils.c ****     }
 248:..\src/utils.c ****   
 249:..\src/utils.c ****     /********** Velocity closure procedure *************
 250:..\src/utils.c ****     * m = error/time
 251:..\src/utils.c ****     * m = (g_mem.rest_pos - init_pos)/time
 252:..\src/utils.c ****     * time = g_mem.rest_pos/rest_vel_ticks_ms (rest_vel_ticks_ms is in [ticks/ms])
 253:..\src/utils.c ****     ***************************************************/
 254:..\src/utils.c **** 
 255:..\src/utils.c ****     if (count == (uint32)(g_mem.SH.rest_delay/CALIBRATION_DIV)){ 
 966              		.loc 1 255 0
 967 00de 6C4B     		ldr	r3, .L54
 968 00e0 D3F8A432 		ldr	r3, [r3, #676]
 969 00e4 734A     		ldr	r2, .L54+36
 970 00e6 82FB0312 		smull	r1, r2, r2, r3
 971 00ea 9210     		asrs	r2, r2, #2
 972 00ec DB17     		asrs	r3, r3, #31
 973 00ee D31A     		subs	r3, r2, r3
 974 00f0 1A46     		mov	r2, r3
 975 00f2 6A4B     		ldr	r3, .L54+12
 976 00f4 1B68     		ldr	r3, [r3]
 977 00f6 9A42     		cmp	r2, r3
 978 00f8 40F09480 		bne	.L45
 256:..\src/utils.c ****         // This routine is executed every 10 firmware cycles -> g_mem.rest_delay must be major than
 257:..\src/utils.c ****         rest_enabled = 1;
 979              		.loc 1 257 0
 980 00fc 6C4B     		ldr	r3, .L54+32
 981 00fe 0122     		movs	r2, #1
 982 0100 1A70     		strb	r2, [r3]
 258:..\src/utils.c ****         rest_pos_curr_ref = g_meas[g_mem.motor[0].encoder_line].pos[0];
 983              		.loc 1 258 0
 984 0102 634B     		ldr	r3, .L54
 985 0104 93F81031 		ldrb	r3, [r3, #272]	@ zero_extendqisi2
 986 0108 1946     		mov	r1, r3
ARM GAS  C:\Users\mgnocco\AppData\Local\Temp\ccOXEsk0.s 			page 23


 987 010a 654A     		ldr	r2, .L54+16
 988 010c 3423     		movs	r3, #52
 989 010e 03FB01F3 		mul	r3, r3, r1
 990 0112 1344     		add	r3, r3, r2
 991 0114 1B68     		ldr	r3, [r3]
 992 0116 684A     		ldr	r2, .L54+40
 993 0118 1360     		str	r3, [r2]
 259:..\src/utils.c ****         
 260:..\src/utils.c ****         // Ramp angular coefficient
 261:..\src/utils.c ****         m = ((float)(g_mem.SH.rest_pos - g_meas[g_mem.motor[0].encoder_line].pos[0])/((float)g_mem.
 994              		.loc 1 261 0
 995 011a 5D4B     		ldr	r3, .L54
 996 011c D3F8A022 		ldr	r2, [r3, #672]
 997 0120 5B4B     		ldr	r3, .L54
 998 0122 93F81031 		ldrb	r3, [r3, #272]	@ zero_extendqisi2
 999 0126 1846     		mov	r0, r3
 1000 0128 5D49     		ldr	r1, .L54+16
 1001 012a 3423     		movs	r3, #52
 1002 012c 03FB00F3 		mul	r3, r3, r0
 1003 0130 0B44     		add	r3, r3, r1
 1004 0132 1B68     		ldr	r3, [r3]
 1005 0134 D31A     		subs	r3, r2, r3
 1006 0136 1846     		mov	r0, r3
 1007 0138 FFF7FEFF 		bl	__aeabi_i2f
 1008 013c 0446     		mov	r4, r0
 1009 013e 544B     		ldr	r3, .L54
 1010 0140 D3F8A032 		ldr	r3, [r3, #672]
 1011 0144 1846     		mov	r0, r3
 1012 0146 FFF7FEFF 		bl	__aeabi_i2f
 1013 014a 0346     		mov	r3, r0
 1014 014c 1946     		mov	r1, r3
 1015 014e 2046     		mov	r0, r4
 1016 0150 FFF7FEFF 		bl	__aeabi_fdiv
 1017 0154 0346     		mov	r3, r0
 1018 0156 3968     		ldr	r1, [r7]	@ float
 1019 0158 1846     		mov	r0, r3
 1020 015a FFF7FEFF 		bl	__aeabi_fmul
 1021 015e 0346     		mov	r3, r0
 1022 0160 1A46     		mov	r2, r3
 1023 0162 564B     		ldr	r3, .L54+44
 1024 0164 1A60     		str	r2, [r3]	@ float
 262:..\src/utils.c ****         
 263:..\src/utils.c ****         // Stop condition threshold is related to m coefficient by REST_RATIO value
 264:..\src/utils.c ****         abs_err_thr = (int32)( (int32)(((float)REST_POS_ERR_THR_GAIN)*m*((float)CALIBRATION_DIV)) <
 1025              		.loc 1 264 0
 1026 0166 554B     		ldr	r3, .L54+44
 1027 0168 1B68     		ldr	r3, [r3]	@ float
 1028 016a 5549     		ldr	r1, .L54+48
 1029 016c 1846     		mov	r0, r3
 1030 016e FFF7FEFF 		bl	__aeabi_fmul
 1031 0172 0346     		mov	r3, r0
 1032 0174 5249     		ldr	r1, .L54+48
 1033 0176 1846     		mov	r0, r3
 1034 0178 FFF7FEFF 		bl	__aeabi_fmul
 1035 017c 0346     		mov	r3, r0
 1036 017e 1846     		mov	r0, r3
 1037 0180 FFF7FEFF 		bl	__aeabi_f2iz
ARM GAS  C:\Users\mgnocco\AppData\Local\Temp\ccOXEsk0.s 			page 24


 1038 0184 424B     		ldr	r3, .L54
 1039 0186 93F81031 		ldrb	r3, [r3, #272]	@ zero_extendqisi2
 1040 018a 1946     		mov	r1, r3
 1041 018c 404A     		ldr	r2, .L54
 1042 018e 0B46     		mov	r3, r1
 1043 0190 5B00     		lsls	r3, r3, #1
 1044 0192 0B44     		add	r3, r3, r1
 1045 0194 1B01     		lsls	r3, r3, #4
 1046 0196 1344     		add	r3, r3, r2
 1047 0198 03F29513 		addw	r3, r3, #405
 1048 019c 1B78     		ldrb	r3, [r3]	@ zero_extendqisi2
 1049 019e 00FA03F3 		lsl	r3, r0, r3
 1050 01a2 484A     		ldr	r2, .L54+52
 1051 01a4 1360     		str	r3, [r2]
 265:..\src/utils.c ****         abs_err_thr = (abs_err_thr>0)?abs_err_thr:(0-abs_err_thr);
 1052              		.loc 1 265 0
 1053 01a6 474B     		ldr	r3, .L54+52
 1054 01a8 1B68     		ldr	r3, [r3]
 1055 01aa 002B     		cmp	r3, #0
 1056 01ac B8BF     		it	lt
 1057 01ae 5B42     		rsblt	r3, r3, #0
 1058 01b0 444A     		ldr	r2, .L54+52
 1059 01b2 1360     		str	r3, [r2]
 266:..\src/utils.c ****         
 267:..\src/utils.c ****         rest_error = g_mem.SH.rest_pos - g_meas[g_mem.motor[0].encoder_line].pos[0];    
 1060              		.loc 1 267 0
 1061 01b4 364B     		ldr	r3, .L54
 1062 01b6 D3F8A022 		ldr	r2, [r3, #672]
 1063 01ba 354B     		ldr	r3, .L54
 1064 01bc 93F81031 		ldrb	r3, [r3, #272]	@ zero_extendqisi2
 1065 01c0 1846     		mov	r0, r3
 1066 01c2 3749     		ldr	r1, .L54+16
 1067 01c4 3423     		movs	r3, #52
 1068 01c6 03FB00F3 		mul	r3, r3, r0
 1069 01ca 0B44     		add	r3, r3, r1
 1070 01cc 1B68     		ldr	r3, [r3]
 1071 01ce D31A     		subs	r3, r2, r3
 1072 01d0 3D4A     		ldr	r2, .L54+56
 1073 01d2 1360     		str	r3, [r2]
 268:..\src/utils.c ****         
 269:..\src/utils.c ****         delta_inc = (int32)( ((int32)(m*(float)CALIBRATION_DIV)) << g_mem.enc[g_mem.motor[0].encode
 1074              		.loc 1 269 0
 1075 01d4 394B     		ldr	r3, .L54+44
 1076 01d6 1B68     		ldr	r3, [r3]	@ float
 1077 01d8 3949     		ldr	r1, .L54+48
 1078 01da 1846     		mov	r0, r3
 1079 01dc FFF7FEFF 		bl	__aeabi_fmul
 1080 01e0 0346     		mov	r3, r0
 1081 01e2 1846     		mov	r0, r3
 1082 01e4 FFF7FEFF 		bl	__aeabi_f2iz
 1083 01e8 294B     		ldr	r3, .L54
 1084 01ea 93F81031 		ldrb	r3, [r3, #272]	@ zero_extendqisi2
 1085 01ee 1946     		mov	r1, r3
 1086 01f0 274A     		ldr	r2, .L54
 1087 01f2 0B46     		mov	r3, r1
 1088 01f4 5B00     		lsls	r3, r3, #1
 1089 01f6 0B44     		add	r3, r3, r1
ARM GAS  C:\Users\mgnocco\AppData\Local\Temp\ccOXEsk0.s 			page 25


 1090 01f8 1B01     		lsls	r3, r3, #4
 1091 01fa 1344     		add	r3, r3, r2
 1092 01fc 03F29513 		addw	r3, r3, #405
 1093 0200 1B78     		ldrb	r3, [r3]	@ zero_extendqisi2
 1094 0202 00FA03F3 		lsl	r3, r0, r3
 1095 0206 314A     		ldr	r2, .L54+60
 1096 0208 1360     		str	r3, [r2]
 270:..\src/utils.c ****         delta_inc = (delta_inc>0)?delta_inc:(0-delta_inc);
 1097              		.loc 1 270 0
 1098 020a 304B     		ldr	r3, .L54+60
 1099 020c 1B68     		ldr	r3, [r3]
 1100 020e 002B     		cmp	r3, #0
 1101 0210 B8BF     		it	lt
 1102 0212 5B42     		rsblt	r3, r3, #0
 1103 0214 2D4A     		ldr	r2, .L54+60
 1104 0216 1360     		str	r3, [r2]
 271:..\src/utils.c ****         
 272:..\src/utils.c ****         count = 0;
 1105              		.loc 1 272 0
 1106 0218 204B     		ldr	r3, .L54+12
 1107 021a 0022     		movs	r2, #0
 1108 021c 1A60     		str	r2, [r3]
 273:..\src/utils.c ****         flag_count = 0;
 1109              		.loc 1 273 0
 1110 021e 234B     		ldr	r3, .L54+28
 1111 0220 0022     		movs	r2, #0
 1112 0222 1A70     		strb	r2, [r3]
 1113              	.L45:
 274:..\src/utils.c ****     }
 275:..\src/utils.c ****     
 276:..\src/utils.c ****     if (rest_enabled){
 1114              		.loc 1 276 0
 1115 0224 224B     		ldr	r3, .L54+32
 1116 0226 1B78     		ldrb	r3, [r3]	@ zero_extendqisi2
 1117 0228 002B     		cmp	r3, #0
 1118 022a 79D0     		beq	.L46
 277:..\src/utils.c **** 
 278:..\src/utils.c ****         if (rest_error < abs_err_thr && rest_error > -abs_err_thr){
 1119              		.loc 1 278 0
 1120 022c 264B     		ldr	r3, .L54+56
 1121 022e 1A68     		ldr	r2, [r3]
 1122 0230 244B     		ldr	r3, .L54+52
 1123 0232 1B68     		ldr	r3, [r3]
 1124 0234 9A42     		cmp	r2, r3
 1125 0236 4DDA     		bge	.L47
 1126              		.loc 1 278 0 is_stmt 0 discriminator 1
 1127 0238 224B     		ldr	r3, .L54+52
 1128 023a 1B68     		ldr	r3, [r3]
 1129 023c 5A42     		negs	r2, r3
 1130 023e 224B     		ldr	r3, .L54+56
 1131 0240 1B68     		ldr	r3, [r3]
 1132 0242 9A42     		cmp	r2, r3
 1133 0244 46DA     		bge	.L47
 279:..\src/utils.c ****             // Stop condition
 280:..\src/utils.c ****             rest_pos_curr_ref = g_mem.SH.rest_pos;
 1134              		.loc 1 280 0 is_stmt 1
 1135 0246 124B     		ldr	r3, .L54
ARM GAS  C:\Users\mgnocco\AppData\Local\Temp\ccOXEsk0.s 			page 26


 1136 0248 D3F8A032 		ldr	r3, [r3, #672]
 1137 024c 1A4A     		ldr	r2, .L54+40
 1138 024e 1360     		str	r3, [r2]
 281:..\src/utils.c ****             
 282:..\src/utils.c ****             if (c_mem.motor[0].input_mode == INPUT_MODE_EMG_PROPORTIONAL || c_mem.motor[0].input_mo
 1139              		.loc 1 282 0
 1140 0250 144B     		ldr	r3, .L54+20
 1141 0252 93F80E31 		ldrb	r3, [r3, #270]	@ zero_extendqisi2
 1142 0256 022B     		cmp	r3, #2
 1143 0258 13D0     		beq	.L48
 1144              		.loc 1 282 0 is_stmt 0 discriminator 1
 1145 025a 124B     		ldr	r3, .L54+20
 1146 025c 93F80E31 		ldrb	r3, [r3, #270]	@ zero_extendqisi2
 1147 0260 032B     		cmp	r3, #3
 1148 0262 0ED0     		beq	.L48
 1149              		.loc 1 282 0 discriminator 2
 1150 0264 0F4B     		ldr	r3, .L54+20
 1151 0266 93F80E31 		ldrb	r3, [r3, #270]	@ zero_extendqisi2
 1152 026a 042B     		cmp	r3, #4
 1153 026c 09D0     		beq	.L48
 283:..\src/utils.c ****                 c_mem.motor[0].input_mode == INPUT_MODE_EMG_FCFS_ADV || c_mem.motor[0].input_mode =
 1154              		.loc 1 283 0 is_stmt 1 discriminator 3
 1155 026e 0D4B     		ldr	r3, .L54+20
 1156 0270 93F80E31 		ldrb	r3, [r3, #270]	@ zero_extendqisi2
 282:..\src/utils.c ****                 c_mem.motor[0].input_mode == INPUT_MODE_EMG_FCFS_ADV || c_mem.motor[0].input_mode =
 1157              		.loc 1 282 0 discriminator 3
 1158 0274 052B     		cmp	r3, #5
 1159 0276 04D0     		beq	.L48
 1160              		.loc 1 283 0
 1161 0278 0A4B     		ldr	r3, .L54+20
 1162 027a 93F80E31 		ldrb	r3, [r3, #270]	@ zero_extendqisi2
 1163 027e 072B     		cmp	r3, #7
 1164 0280 02D1     		bne	.L49
 1165              	.L48:
 284:..\src/utils.c ****                 forced_open = 1; 
 1166              		.loc 1 284 0
 1167 0282 134B     		ldr	r3, .L54+64
 1168 0284 0122     		movs	r2, #1
 1169 0286 1A70     		strb	r2, [r3]
 1170              	.L49:
 285:..\src/utils.c ****             
 286:..\src/utils.c ****             count = 0;
 1171              		.loc 1 286 0
 1172 0288 044B     		ldr	r3, .L54+12
 1173 028a 0022     		movs	r2, #0
 1174 028c 1A60     		str	r2, [r3]
 1175 028e 47E0     		b	.L46
 1176              	.L55:
 1177              		.align	2
 1178              	.L54:
 1179 0290 00000000 		.word	g_mem
 1180 0294 00007A44 		.word	1148846080
 1181 0298 00000000 		.word	first_time.9589
 1182 029c 14000000 		.word	count.9587
 1183 02a0 00000000 		.word	g_meas
 1184 02a4 00000000 		.word	c_mem
 1185 02a8 00000000 		.word	g_adc_meas
ARM GAS  C:\Users\mgnocco\AppData\Local\Temp\ccOXEsk0.s 			page 27


 1186 02ac 01000000 		.word	flag_count.9588
 1187 02b0 00000000 		.word	rest_enabled
 1188 02b4 67666666 		.word	1717986919
 1189 02b8 00000000 		.word	rest_pos_curr_ref
 1190 02bc 18000000 		.word	m.9590
 1191 02c0 00002041 		.word	1092616192
 1192 02c4 1C000000 		.word	abs_err_thr.9591
 1193 02c8 20000000 		.word	rest_error.9594
 1194 02cc 24000000 		.word	delta_inc.9592
 1195 02d0 00000000 		.word	forced_open
 1196              	.L47:
 287:..\src/utils.c ****         }
 288:..\src/utils.c ****         else {
 289:..\src/utils.c ****             rest_error = g_mem.SH.rest_pos - g_meas[g_mem.motor[0].encoder_line].pos[0];        
 1197              		.loc 1 289 0
 1198 02d4 234B     		ldr	r3, .L56
 1199 02d6 D3F8A022 		ldr	r2, [r3, #672]
 1200 02da 224B     		ldr	r3, .L56
 1201 02dc 93F81031 		ldrb	r3, [r3, #272]	@ zero_extendqisi2
 1202 02e0 1846     		mov	r0, r3
 1203 02e2 2149     		ldr	r1, .L56+4
 1204 02e4 3423     		movs	r3, #52
 1205 02e6 03FB00F3 		mul	r3, r3, r0
 1206 02ea 0B44     		add	r3, r3, r1
 1207 02ec 1B68     		ldr	r3, [r3]
 1208 02ee D31A     		subs	r3, r2, r3
 1209 02f0 1E4A     		ldr	r2, .L56+8
 1210 02f2 1360     		str	r3, [r2]
 290:..\src/utils.c **** 
 291:..\src/utils.c ****             if (rest_error > 0){
 1211              		.loc 1 291 0
 1212 02f4 1D4B     		ldr	r3, .L56+8
 1213 02f6 1B68     		ldr	r3, [r3]
 1214 02f8 002B     		cmp	r3, #0
 1215 02fa 06DD     		ble	.L50
 292:..\src/utils.c ****                 rest_pos_curr_ref = rest_pos_curr_ref + delta_inc;
 1216              		.loc 1 292 0
 1217 02fc 1C4B     		ldr	r3, .L56+12
 1218 02fe 1A68     		ldr	r2, [r3]
 1219 0300 1C4B     		ldr	r3, .L56+16
 1220 0302 1B68     		ldr	r3, [r3]
 1221 0304 1344     		add	r3, r3, r2
 1222 0306 1A4A     		ldr	r2, .L56+12
 1223 0308 1360     		str	r3, [r2]
 1224              	.L50:
 293:..\src/utils.c ****             }
 294:..\src/utils.c ****             if (rest_error < 0){
 1225              		.loc 1 294 0
 1226 030a 184B     		ldr	r3, .L56+8
 1227 030c 1B68     		ldr	r3, [r3]
 1228 030e 002B     		cmp	r3, #0
 1229 0310 06DA     		bge	.L46
 295:..\src/utils.c ****                 rest_pos_curr_ref = rest_pos_curr_ref - delta_inc;
 1230              		.loc 1 295 0
 1231 0312 174B     		ldr	r3, .L56+12
 1232 0314 1A68     		ldr	r2, [r3]
 1233 0316 174B     		ldr	r3, .L56+16
ARM GAS  C:\Users\mgnocco\AppData\Local\Temp\ccOXEsk0.s 			page 28


 1234 0318 1B68     		ldr	r3, [r3]
 1235 031a D31A     		subs	r3, r2, r3
 1236 031c 144A     		ldr	r2, .L56+12
 1237 031e 1360     		str	r3, [r2]
 1238              	.L46:
 296:..\src/utils.c ****             }
 297:..\src/utils.c ****         } 
 298:..\src/utils.c ****     }
 299:..\src/utils.c ****     
 300:..\src/utils.c ****     // Position limit saturation
 301:..\src/utils.c ****     if (c_mem.motor[0].pos_lim_flag) {
 1239              		.loc 1 301 0
 1240 0320 154B     		ldr	r3, .L56+20
 1241 0322 93F8E330 		ldrb	r3, [r3, #227]	@ zero_extendqisi2
 1242 0326 002B     		cmp	r3, #0
 1243 0328 17D0     		beq	.L53
 302:..\src/utils.c ****         if (rest_pos_curr_ref < c_mem.motor[0].pos_lim_inf) 
 1244              		.loc 1 302 0
 1245 032a 134B     		ldr	r3, .L56+20
 1246 032c D3F8E420 		ldr	r2, [r3, #228]
 1247 0330 0F4B     		ldr	r3, .L56+12
 1248 0332 1B68     		ldr	r3, [r3]
 1249 0334 9A42     		cmp	r2, r3
 1250 0336 04DD     		ble	.L52
 303:..\src/utils.c ****             rest_pos_curr_ref = c_mem.motor[0].pos_lim_inf;
 1251              		.loc 1 303 0
 1252 0338 0F4B     		ldr	r3, .L56+20
 1253 033a D3F8E430 		ldr	r3, [r3, #228]
 1254 033e 0C4A     		ldr	r2, .L56+12
 1255 0340 1360     		str	r3, [r2]
 1256              	.L52:
 304:..\src/utils.c ****         if (rest_pos_curr_ref > c_mem.motor[0].pos_lim_sup) 
 1257              		.loc 1 304 0
 1258 0342 0D4B     		ldr	r3, .L56+20
 1259 0344 D3F8E820 		ldr	r2, [r3, #232]
 1260 0348 094B     		ldr	r3, .L56+12
 1261 034a 1B68     		ldr	r3, [r3]
 1262 034c 9A42     		cmp	r2, r3
 1263 034e 04DA     		bge	.L53
 305:..\src/utils.c ****             rest_pos_curr_ref = c_mem.motor[0].pos_lim_sup;
 1264              		.loc 1 305 0
 1265 0350 094B     		ldr	r3, .L56+20
 1266 0352 D3F8E830 		ldr	r3, [r3, #232]
 1267 0356 064A     		ldr	r2, .L56+12
 1268 0358 1360     		str	r3, [r2]
 1269              	.L53:
 306:..\src/utils.c ****     }
 307:..\src/utils.c **** 
 308:..\src/utils.c **** }
 1270              		.loc 1 308 0
 1271 035a 00BF     		nop
 1272 035c 0C37     		adds	r7, r7, #12
 1273              		.cfi_def_cfa_offset 12
 1274 035e BD46     		mov	sp, r7
 1275              		.cfi_def_cfa_register 13
 1276              		@ sp needed
 1277 0360 90BD     		pop	{r4, r7, pc}
ARM GAS  C:\Users\mgnocco\AppData\Local\Temp\ccOXEsk0.s 			page 29


 1278              	.L57:
 1279 0362 00BF     		.align	2
 1280              	.L56:
 1281 0364 00000000 		.word	g_mem
 1282 0368 00000000 		.word	g_meas
 1283 036c 20000000 		.word	rest_error.9594
 1284 0370 00000000 		.word	rest_pos_curr_ref
 1285 0374 24000000 		.word	delta_inc.9592
 1286 0378 00000000 		.word	c_mem
 1287              		.cfi_endproc
 1288              	.LFE70:
 1289              		.size	check_rest_position, .-check_rest_position
 1290              		.section	.text.LED_control,"ax",%progbits
 1291              		.align	2
 1292              		.global	LED_control
 1293              		.thumb
 1294              		.thumb_func
 1295              		.type	LED_control, %function
 1296              	LED_control:
 1297              	.LFB71:
 309:..\src/utils.c **** 
 310:..\src/utils.c **** //==============================================================================
 311:..\src/utils.c **** //                                                                   LED CONTROL
 312:..\src/utils.c **** //==============================================================================
 313:..\src/utils.c **** 
 314:..\src/utils.c **** void LED_control(uint8 mode) {
 1298              		.loc 1 314 0
 1299              		.cfi_startproc
 1300              		@ args = 0, pretend = 0, frame = 8
 1301              		@ frame_needed = 1, uses_anonymous_args = 0
 1302 0000 80B5     		push	{r7, lr}
 1303              		.cfi_def_cfa_offset 8
 1304              		.cfi_offset 7, -8
 1305              		.cfi_offset 14, -4
 1306 0002 82B0     		sub	sp, sp, #8
 1307              		.cfi_def_cfa_offset 16
 1308 0004 00AF     		add	r7, sp, #0
 1309              		.cfi_def_cfa_register 7
 1310 0006 0346     		mov	r3, r0
 1311 0008 FB71     		strb	r3, [r7, #7]
 315:..\src/utils.c ****     
 316:..\src/utils.c ****     switch (mode) {
 1312              		.loc 1 316 0
 1313 000a FB79     		ldrb	r3, [r7, #7]	@ zero_extendqisi2
 1314 000c 052B     		cmp	r3, #5
 1315 000e 39D8     		bhi	.L68
 1316 0010 01A2     		adr	r2, .L61
 1317 0012 52F823F0 		ldr	pc, [r2, r3, lsl #2]
 1318 0016 00BF     		.p2align 2
 1319              	.L61:
 1320 0018 31000000 		.word	.L60+1
 1321 001c 3F000000 		.word	.L62+1
 1322 0020 4D000000 		.word	.L63+1
 1323 0024 5B000000 		.word	.L64+1
 1324 0028 69000000 		.word	.L65+1
 1325 002c 77000000 		.word	.L66+1
 1326              		.p2align 1
ARM GAS  C:\Users\mgnocco\AppData\Local\Temp\ccOXEsk0.s 			page 30


 1327              	.L60:
 317:..\src/utils.c ****         
 318:..\src/utils.c ****         case 0:     //All LEDs off
 319:..\src/utils.c ****             LED_CTRL_Write(0);
 1328              		.loc 1 319 0
 1329 0030 0020     		movs	r0, #0
 1330 0032 FFF7FEFF 		bl	LED_CTRL_Write
 320:..\src/utils.c ****             BLINK_CTRL_EN_Write(0);
 1331              		.loc 1 320 0
 1332 0036 0020     		movs	r0, #0
 1333 0038 FFF7FEFF 		bl	BLINK_CTRL_EN_Write
 321:..\src/utils.c ****             break;
 1334              		.loc 1 321 0
 1335 003c 23E0     		b	.L67
 1336              	.L62:
 322:..\src/utils.c ****         case 1:     // Green fixed light
 323:..\src/utils.c ****             LED_CTRL_Write(2);
 1337              		.loc 1 323 0
 1338 003e 0220     		movs	r0, #2
 1339 0040 FFF7FEFF 		bl	LED_CTRL_Write
 324:..\src/utils.c ****             BLINK_CTRL_EN_Write(0);
 1340              		.loc 1 324 0
 1341 0044 0020     		movs	r0, #0
 1342 0046 FFF7FEFF 		bl	BLINK_CTRL_EN_Write
 325:..\src/utils.c ****             break;
 1343              		.loc 1 325 0
 1344 004a 1CE0     		b	.L67
 1345              	.L63:
 326:..\src/utils.c ****             
 327:..\src/utils.c ****         case 2:     // Yellow flashing light @ 0.5 Hz
 328:..\src/utils.c ****             LED_CTRL_Write(0);
 1346              		.loc 1 328 0
 1347 004c 0020     		movs	r0, #0
 1348 004e FFF7FEFF 		bl	LED_CTRL_Write
 329:..\src/utils.c ****             BLINK_CTRL_EN_Write(1);        
 1349              		.loc 1 329 0
 1350 0052 0120     		movs	r0, #1
 1351 0054 FFF7FEFF 		bl	BLINK_CTRL_EN_Write
 330:..\src/utils.c ****             break;
 1352              		.loc 1 330 0
 1353 0058 15E0     		b	.L67
 1354              	.L64:
 331:..\src/utils.c ****             
 332:..\src/utils.c ****         case 3:     // Red flashing light @ 2.5 Hz
 333:..\src/utils.c ****             LED_CTRL_Write(0);
 1355              		.loc 1 333 0
 1356 005a 0020     		movs	r0, #0
 1357 005c FFF7FEFF 		bl	LED_CTRL_Write
 334:..\src/utils.c ****             BLINK_CTRL_EN_Write(2);        
 1358              		.loc 1 334 0
 1359 0060 0220     		movs	r0, #2
 1360 0062 FFF7FEFF 		bl	BLINK_CTRL_EN_Write
 335:..\src/utils.c ****             break;
 1361              		.loc 1 335 0
 1362 0066 0EE0     		b	.L67
 1363              	.L65:
 336:..\src/utils.c ****             
ARM GAS  C:\Users\mgnocco\AppData\Local\Temp\ccOXEsk0.s 			page 31


 337:..\src/utils.c ****         case 4:     // Yellow fixed light - maintenance
 338:..\src/utils.c ****             LED_CTRL_Write(3);
 1364              		.loc 1 338 0
 1365 0068 0320     		movs	r0, #3
 1366 006a FFF7FEFF 		bl	LED_CTRL_Write
 339:..\src/utils.c ****             BLINK_CTRL_EN_Write(0);        
 1367              		.loc 1 339 0
 1368 006e 0020     		movs	r0, #0
 1369 0070 FFF7FEFF 		bl	BLINK_CTRL_EN_Write
 340:..\src/utils.c ****             break;
 1370              		.loc 1 340 0
 1371 0074 07E0     		b	.L67
 1372              	.L66:
 341:..\src/utils.c ****         
 342:..\src/utils.c ****         case 5:     // Red fixed light - uUSB power
 343:..\src/utils.c ****             LED_CTRL_Write(1);
 1373              		.loc 1 343 0
 1374 0076 0120     		movs	r0, #1
 1375 0078 FFF7FEFF 		bl	LED_CTRL_Write
 344:..\src/utils.c ****             BLINK_CTRL_EN_Write(0);        
 1376              		.loc 1 344 0
 1377 007c 0020     		movs	r0, #0
 1378 007e FFF7FEFF 		bl	BLINK_CTRL_EN_Write
 345:..\src/utils.c ****             break; 
 1379              		.loc 1 345 0
 1380 0082 00E0     		b	.L67
 1381              	.L68:
 346:..\src/utils.c ****             
 347:..\src/utils.c ****         default:
 348:..\src/utils.c ****             break;
 1382              		.loc 1 348 0
 1383 0084 00BF     		nop
 1384              	.L67:
 349:..\src/utils.c ****     }   
 350:..\src/utils.c **** }
 1385              		.loc 1 350 0
 1386 0086 00BF     		nop
 1387 0088 0837     		adds	r7, r7, #8
 1388              		.cfi_def_cfa_offset 8
 1389 008a BD46     		mov	sp, r7
 1390              		.cfi_def_cfa_register 13
 1391              		@ sp needed
 1392 008c 80BD     		pop	{r7, pc}
 1393              		.cfi_endproc
 1394              	.LFE71:
 1395              		.size	LED_control, .-LED_control
 1396 008e 00BF     		.section	.text.battery_management,"ax",%progbits
 1397              		.align	2
 1398              		.global	battery_management
 1399              		.thumb
 1400              		.thumb_func
 1401              		.type	battery_management, %function
 1402              	battery_management:
 1403              	.LFB72:
 351:..\src/utils.c **** 
 352:..\src/utils.c **** 
 353:..\src/utils.c **** //==============================================================================
ARM GAS  C:\Users\mgnocco\AppData\Local\Temp\ccOXEsk0.s 			page 32


 354:..\src/utils.c **** //                                                            BATTERY MANAGEMENT
 355:..\src/utils.c **** //==============================================================================
 356:..\src/utils.c **** void battery_management() {
 1404              		.loc 1 356 0
 1405              		.cfi_startproc
 1406              		@ args = 0, pretend = 0, frame = 0
 1407              		@ frame_needed = 1, uses_anonymous_args = 0
 1408              		@ link register save eliminated.
 1409 0000 80B4     		push	{r7}
 1410              		.cfi_def_cfa_offset 4
 1411              		.cfi_offset 7, -4
 1412 0002 00AF     		add	r7, sp, #0
 1413              		.cfi_def_cfa_register 7
 357:..\src/utils.c ****    
 358:..\src/utils.c **** }
 1414              		.loc 1 358 0
 1415 0004 00BF     		nop
 1416 0006 BD46     		mov	sp, r7
 1417              		.cfi_def_cfa_register 13
 1418              		@ sp needed
 1419 0008 80BC     		pop	{r7}
 1420              		.cfi_restore 7
 1421              		.cfi_def_cfa_offset 0
 1422 000a 7047     		bx	lr
 1423              		.cfi_endproc
 1424              	.LFE72:
 1425              		.size	battery_management, .-battery_management
 1426              		.section	.text.ADC_Set_N_Channels,"ax",%progbits
 1427              		.align	2
 1428              		.global	ADC_Set_N_Channels
 1429              		.thumb
 1430              		.thumb_func
 1431              		.type	ADC_Set_N_Channels, %function
 1432              	ADC_Set_N_Channels:
 1433              	.LFB73:
 359:..\src/utils.c **** 
 360:..\src/utils.c **** //==============================================================================
 361:..\src/utils.c **** //                                                         ADC SET CHANNELS USED
 362:..\src/utils.c **** //==============================================================================
 363:..\src/utils.c **** void ADC_Set_N_Channels() {
 1434              		.loc 1 363 0
 1435              		.cfi_startproc
 1436              		@ args = 0, pretend = 0, frame = 0
 1437              		@ frame_needed = 1, uses_anonymous_args = 0
 1438              		@ link register save eliminated.
 1439 0000 80B4     		push	{r7}
 1440              		.cfi_def_cfa_offset 4
 1441              		.cfi_offset 7, -4
 1442 0002 00AF     		add	r7, sp, #0
 1443              		.cfi_def_cfa_register 7
 364:..\src/utils.c ****     // Set right number of ADC channels to sample according to chosen flags
 365:..\src/utils.c ****     
 366:..\src/utils.c ****     NUM_OF_ANALOG_INPUTS = 4;       // Voltage_Sense_1
 1444              		.loc 1 366 0
 1445 0004 034B     		ldr	r3, .L71
 1446 0006 0422     		movs	r2, #4
 1447 0008 1A70     		strb	r2, [r3]
ARM GAS  C:\Users\mgnocco\AppData\Local\Temp\ccOXEsk0.s 			page 33


 367:..\src/utils.c ****                                     // Current_Sense_1
 368:..\src/utils.c ****                                     // EMG_A
 369:..\src/utils.c ****                                     // EMG_B
 370:..\src/utils.c **** 
 371:..\src/utils.c **** #ifdef GENERIC_FW    
 372:..\src/utils.c ****     if (c_mem.dev.use_2nd_motor_flag == TRUE){
 373:..\src/utils.c ****         // add 2nd power
 374:..\src/utils.c ****         NUM_OF_ANALOG_INPUTS = 6;   // Voltage_Sense_2
 375:..\src/utils.c ****                                     // Current_Sense_2
 376:..\src/utils.c ****     }
 377:..\src/utils.c ****     
 378:..\src/utils.c ****     if (c_mem.exp.read_ADC_sensors_port_flag == TRUE){
 379:..\src/utils.c ****         // add all emg channels
 380:..\src/utils.c ****         NUM_OF_ANALOG_INPUTS = 12;  // EMG_1
 381:..\src/utils.c ****                                     // EMG_2
 382:..\src/utils.c ****                                     // EMG_3
 383:..\src/utils.c ****                                     // EMG_4
 384:..\src/utils.c ****                                     // EMG_5
 385:..\src/utils.c ****                                     // EMG_6
 386:..\src/utils.c ****     }
 387:..\src/utils.c **** #endif
 388:..\src/utils.c **** 
 389:..\src/utils.c ****     
 390:..\src/utils.c ****     
 391:..\src/utils.c **** }
 1448              		.loc 1 391 0
 1449 000a 00BF     		nop
 1450 000c BD46     		mov	sp, r7
 1451              		.cfi_def_cfa_register 13
 1452              		@ sp needed
 1453 000e 80BC     		pop	{r7}
 1454              		.cfi_restore 7
 1455              		.cfi_def_cfa_offset 0
 1456 0010 7047     		bx	lr
 1457              	.L72:
 1458 0012 00BF     		.align	2
 1459              	.L71:
 1460 0014 00000000 		.word	NUM_OF_ANALOG_INPUTS
 1461              		.cfi_endproc
 1462              	.LFE73:
 1463              		.size	ADC_Set_N_Channels, .-ADC_Set_N_Channels
 1464              		.section	.text.enable_motor,"ax",%progbits
 1465              		.align	2
 1466              		.global	enable_motor
 1467              		.thumb
 1468              		.thumb_func
 1469              		.type	enable_motor, %function
 1470              	enable_motor:
 1471              	.LFB74:
 392:..\src/utils.c **** 
 393:..\src/utils.c **** //==============================================================================
 394:..\src/utils.c **** //                                                                  ENABLE MOTOR
 395:..\src/utils.c **** //==============================================================================
 396:..\src/utils.c **** void enable_motor(uint8 idx, uint8 val){
 1472              		.loc 1 396 0
 1473              		.cfi_startproc
 1474              		@ args = 0, pretend = 0, frame = 8
ARM GAS  C:\Users\mgnocco\AppData\Local\Temp\ccOXEsk0.s 			page 34


 1475              		@ frame_needed = 1, uses_anonymous_args = 0
 1476 0000 80B5     		push	{r7, lr}
 1477              		.cfi_def_cfa_offset 8
 1478              		.cfi_offset 7, -8
 1479              		.cfi_offset 14, -4
 1480 0002 82B0     		sub	sp, sp, #8
 1481              		.cfi_def_cfa_offset 16
 1482 0004 00AF     		add	r7, sp, #0
 1483              		.cfi_def_cfa_register 7
 1484 0006 0346     		mov	r3, r0
 1485 0008 0A46     		mov	r2, r1
 1486 000a FB71     		strb	r3, [r7, #7]
 1487 000c 1346     		mov	r3, r2
 1488 000e BB71     		strb	r3, [r7, #6]
 397:..\src/utils.c ****     // Enables motor idx, according to val value
 398:..\src/utils.c ****     idx=idx;
 399:..\src/utils.c ****         MOTOR_ON_OFF_1_Write(val);
 1489              		.loc 1 399 0
 1490 0010 BB79     		ldrb	r3, [r7, #6]	@ zero_extendqisi2
 1491 0012 1846     		mov	r0, r3
 1492 0014 FFF7FEFF 		bl	MOTOR_ON_OFF_1_Write
 400:..\src/utils.c ****    }
 1493              		.loc 1 400 0
 1494 0018 00BF     		nop
 1495 001a 0837     		adds	r7, r7, #8
 1496              		.cfi_def_cfa_offset 8
 1497 001c BD46     		mov	sp, r7
 1498              		.cfi_def_cfa_register 13
 1499              		@ sp needed
 1500 001e 80BD     		pop	{r7, pc}
 1501              		.cfi_endproc
 1502              	.LFE74:
 1503              		.size	enable_motor, .-enable_motor
 1504              		.section	.text.reset_counters,"ax",%progbits
 1505              		.align	2
 1506              		.global	reset_counters
 1507              		.thumb
 1508              		.thumb_func
 1509              		.type	reset_counters, %function
 1510              	reset_counters:
 1511              	.LFB75:
 401:..\src/utils.c **** 
 402:..\src/utils.c **** 
 403:..\src/utils.c **** 
 404:..\src/utils.c **** //==============================================================================
 405:..\src/utils.c **** //                                                              RESET COUNTERS
 406:..\src/utils.c **** //==============================================================================
 407:..\src/utils.c **** void reset_counters() {
 1512              		.loc 1 407 0
 1513              		.cfi_startproc
 1514              		@ args = 0, pretend = 0, frame = 8
 1515              		@ frame_needed = 1, uses_anonymous_args = 0
 1516              		@ link register save eliminated.
 1517 0000 80B4     		push	{r7}
 1518              		.cfi_def_cfa_offset 4
 1519              		.cfi_offset 7, -4
 1520 0002 83B0     		sub	sp, sp, #12
ARM GAS  C:\Users\mgnocco\AppData\Local\Temp\ccOXEsk0.s 			page 35


 1521              		.cfi_def_cfa_offset 16
 1522 0004 00AF     		add	r7, sp, #0
 1523              		.cfi_def_cfa_register 7
 408:..\src/utils.c ****     uint8 i;
 409:..\src/utils.c ****     
 410:..\src/utils.c ****     // Initialize counters        
 411:..\src/utils.c ****     g_mem.cnt.emg_act_counter[0] = g_mem.cnt.emg_act_counter[1] = 0;
 1524              		.loc 1 411 0
 1525 0006 234B     		ldr	r3, .L79
 1526 0008 0022     		movs	r2, #0
 1527 000a 5A61     		str	r2, [r3, #20]
 1528 000c 214B     		ldr	r3, .L79
 1529 000e 5B69     		ldr	r3, [r3, #20]
 1530 0010 204A     		ldr	r2, .L79
 1531 0012 1361     		str	r3, [r2, #16]
 412:..\src/utils.c ****     for(i = 0; i< 10; i++){
 1532              		.loc 1 412 0
 1533 0014 0023     		movs	r3, #0
 1534 0016 FB71     		strb	r3, [r7, #7]
 1535 0018 08E0     		b	.L75
 1536              	.L76:
 413:..\src/utils.c ****         g_mem.cnt.position_hist[i] = 0;
 1537              		.loc 1 413 0 discriminator 3
 1538 001a FB79     		ldrb	r3, [r7, #7]	@ zero_extendqisi2
 1539 001c 1D4A     		ldr	r2, .L79
 1540 001e 0633     		adds	r3, r3, #6
 1541 0020 0021     		movs	r1, #0
 1542 0022 42F82310 		str	r1, [r2, r3, lsl #2]
 412:..\src/utils.c ****     for(i = 0; i< 10; i++){
 1543              		.loc 1 412 0 discriminator 3
 1544 0026 FB79     		ldrb	r3, [r7, #7]	@ zero_extendqisi2
 1545 0028 0133     		adds	r3, r3, #1
 1546 002a FB71     		strb	r3, [r7, #7]
 1547              	.L75:
 412:..\src/utils.c ****     for(i = 0; i< 10; i++){
 1548              		.loc 1 412 0 is_stmt 0 discriminator 1
 1549 002c FB79     		ldrb	r3, [r7, #7]	@ zero_extendqisi2
 1550 002e 092B     		cmp	r3, #9
 1551 0030 F3D9     		bls	.L76
 414:..\src/utils.c ****     }
 415:..\src/utils.c ****     for(i = 0; i< 4; i++){
 1552              		.loc 1 415 0 is_stmt 1
 1553 0032 0023     		movs	r3, #0
 1554 0034 FB71     		strb	r3, [r7, #7]
 1555 0036 08E0     		b	.L77
 1556              	.L78:
 416:..\src/utils.c ****         g_mem.cnt.current_hist[i] = 0;
 1557              		.loc 1 416 0 discriminator 3
 1558 0038 FB79     		ldrb	r3, [r7, #7]	@ zero_extendqisi2
 1559 003a 164A     		ldr	r2, .L79
 1560 003c 1033     		adds	r3, r3, #16
 1561 003e 0021     		movs	r1, #0
 1562 0040 42F82310 		str	r1, [r2, r3, lsl #2]
 415:..\src/utils.c ****         g_mem.cnt.current_hist[i] = 0;
 1563              		.loc 1 415 0 discriminator 3
 1564 0044 FB79     		ldrb	r3, [r7, #7]	@ zero_extendqisi2
 1565 0046 0133     		adds	r3, r3, #1
ARM GAS  C:\Users\mgnocco\AppData\Local\Temp\ccOXEsk0.s 			page 36


 1566 0048 FB71     		strb	r3, [r7, #7]
 1567              	.L77:
 415:..\src/utils.c ****         g_mem.cnt.current_hist[i] = 0;
 1568              		.loc 1 415 0 is_stmt 0 discriminator 1
 1569 004a FB79     		ldrb	r3, [r7, #7]	@ zero_extendqisi2
 1570 004c 032B     		cmp	r3, #3
 1571 004e F3D9     		bls	.L78
 417:..\src/utils.c ****     }
 418:..\src/utils.c ****     g_mem.cnt.rest_counter = 0;
 1572              		.loc 1 418 0 is_stmt 1
 1573 0050 104B     		ldr	r3, .L79
 1574 0052 0022     		movs	r2, #0
 1575 0054 1A65     		str	r2, [r3, #80]
 419:..\src/utils.c ****     g_mem.cnt.wire_disp = 0;
 1576              		.loc 1 419 0
 1577 0056 0F4B     		ldr	r3, .L79
 1578 0058 0022     		movs	r2, #0
 1579 005a 5A65     		str	r2, [r3, #84]
 420:..\src/utils.c ****     g_mem.cnt.total_runtime = 0;
 1580              		.loc 1 420 0
 1581 005c 0D4B     		ldr	r3, .L79
 1582 005e 0022     		movs	r2, #0
 1583 0060 9A65     		str	r2, [r3, #88]
 421:..\src/utils.c ****     g_mem.cnt.total_time_rest = 0; 
 1584              		.loc 1 421 0
 1585 0062 0C4B     		ldr	r3, .L79
 1586 0064 0022     		movs	r2, #0
 1587 0066 DA65     		str	r2, [r3, #92]
 422:..\src/utils.c ****     g_mem.cnt.power_cycles = 0;
 1588              		.loc 1 422 0
 1589 0068 0A4B     		ldr	r3, .L79
 1590 006a 0022     		movs	r2, #0
 1591 006c 1A66     		str	r2, [r3, #96]
 423:..\src/utils.c ****     g_mem.cnt.excessive_signal_activity[0] = g_mem.cnt.excessive_signal_activity[1] = 0;
 1592              		.loc 1 423 0
 1593 006e 094B     		ldr	r3, .L79
 1594 0070 0022     		movs	r2, #0
 1595 0072 9A66     		str	r2, [r3, #104]
 1596 0074 074B     		ldr	r3, .L79
 1597 0076 9B6E     		ldr	r3, [r3, #104]
 1598 0078 064A     		ldr	r2, .L79
 1599 007a 5366     		str	r3, [r2, #100]
 424:..\src/utils.c ****     g_mem.cnt.motion_counter[0] = g_mem.cnt.motion_counter[1] = 0;
 1600              		.loc 1 424 0
 1601 007c 054B     		ldr	r3, .L79
 1602 007e 0022     		movs	r2, #0
 1603 0080 1A67     		str	r2, [r3, #112]
 1604 0082 044B     		ldr	r3, .L79
 1605 0084 1B6F     		ldr	r3, [r3, #112]
 1606 0086 034A     		ldr	r2, .L79
 1607 0088 D366     		str	r3, [r2, #108]
 425:..\src/utils.c **** }
 1608              		.loc 1 425 0
 1609 008a 00BF     		nop
 1610 008c 0C37     		adds	r7, r7, #12
 1611              		.cfi_def_cfa_offset 4
 1612 008e BD46     		mov	sp, r7
ARM GAS  C:\Users\mgnocco\AppData\Local\Temp\ccOXEsk0.s 			page 37


 1613              		.cfi_def_cfa_register 13
 1614              		@ sp needed
 1615 0090 80BC     		pop	{r7}
 1616              		.cfi_restore 7
 1617              		.cfi_def_cfa_offset 0
 1618 0092 7047     		bx	lr
 1619              	.L80:
 1620              		.align	2
 1621              	.L79:
 1622 0094 00000000 		.word	g_mem
 1623              		.cfi_endproc
 1624              	.LFE75:
 1625              		.size	reset_counters, .-reset_counters
 1626              		.global	__aeabi_fsub
 1627              		.section	.text.invSqrt,"ax",%progbits
 1628              		.align	2
 1629              		.global	invSqrt
 1630              		.thumb
 1631              		.thumb_func
 1632              		.type	invSqrt, %function
 1633              	invSqrt:
 1634              	.LFB76:
 426:..\src/utils.c **** 
 427:..\src/utils.c **** 
 428:..\src/utils.c **** //==============================================================================
 429:..\src/utils.c **** //                                                                       INVSQRT
 430:..\src/utils.c **** //==============================================================================
 431:..\src/utils.c **** float invSqrt(float x) {
 1635              		.loc 1 431 0
 1636              		.cfi_startproc
 1637              		@ args = 0, pretend = 0, frame = 24
 1638              		@ frame_needed = 1, uses_anonymous_args = 0
 1639 0000 80B5     		push	{r7, lr}
 1640              		.cfi_def_cfa_offset 8
 1641              		.cfi_offset 7, -8
 1642              		.cfi_offset 14, -4
 1643 0002 86B0     		sub	sp, sp, #24
 1644              		.cfi_def_cfa_offset 32
 1645 0004 00AF     		add	r7, sp, #0
 1646              		.cfi_def_cfa_register 7
 1647 0006 7860     		str	r0, [r7, #4]	@ float
 432:..\src/utils.c **** 	float halfx = 0.5f * x;
 1648              		.loc 1 432 0
 1649 0008 4FF07C51 		mov	r1, #1056964608
 1650 000c 7868     		ldr	r0, [r7, #4]	@ float
 1651 000e FFF7FEFF 		bl	__aeabi_fmul
 1652 0012 0346     		mov	r3, r0
 1653 0014 7B61     		str	r3, [r7, #20]	@ float
 433:..\src/utils.c **** 	float y = x;
 1654              		.loc 1 433 0
 1655 0016 7B68     		ldr	r3, [r7, #4]	@ float
 1656 0018 3B61     		str	r3, [r7, #16]	@ float
 434:..\src/utils.c **** 	long i = *(long*)&y;
 1657              		.loc 1 434 0
 1658 001a 07F11003 		add	r3, r7, #16
 1659 001e 1B68     		ldr	r3, [r3]
 1660 0020 FB60     		str	r3, [r7, #12]
ARM GAS  C:\Users\mgnocco\AppData\Local\Temp\ccOXEsk0.s 			page 38


 435:..\src/utils.c **** 	i = 0x5f3759df - (i>>1);
 1661              		.loc 1 435 0
 1662 0022 FB68     		ldr	r3, [r7, #12]
 1663 0024 5A10     		asrs	r2, r3, #1
 1664 0026 134B     		ldr	r3, .L83
 1665 0028 9B1A     		subs	r3, r3, r2
 1666 002a FB60     		str	r3, [r7, #12]
 436:..\src/utils.c **** 	y = *(float*)&i;
 1667              		.loc 1 436 0
 1668 002c 07F10C03 		add	r3, r7, #12
 1669 0030 1B68     		ldr	r3, [r3]	@ float
 1670 0032 3B61     		str	r3, [r7, #16]	@ float
 437:..\src/utils.c **** 	y = y * (1.5f - (halfx * y * y));
 1671              		.loc 1 437 0
 1672 0034 3B69     		ldr	r3, [r7, #16]	@ float
 1673 0036 7969     		ldr	r1, [r7, #20]	@ float
 1674 0038 1846     		mov	r0, r3
 1675 003a FFF7FEFF 		bl	__aeabi_fmul
 1676 003e 0346     		mov	r3, r0
 1677 0040 1A46     		mov	r2, r3
 1678 0042 3B69     		ldr	r3, [r7, #16]	@ float
 1679 0044 1946     		mov	r1, r3
 1680 0046 1046     		mov	r0, r2
 1681 0048 FFF7FEFF 		bl	__aeabi_fmul
 1682 004c 0346     		mov	r3, r0
 1683 004e 1946     		mov	r1, r3
 1684 0050 4FF07F50 		mov	r0, #1069547520
 1685 0054 FFF7FEFF 		bl	__aeabi_fsub
 1686 0058 0346     		mov	r3, r0
 1687 005a 1A46     		mov	r2, r3
 1688 005c 3B69     		ldr	r3, [r7, #16]	@ float
 1689 005e 1946     		mov	r1, r3
 1690 0060 1046     		mov	r0, r2
 1691 0062 FFF7FEFF 		bl	__aeabi_fmul
 1692 0066 0346     		mov	r3, r0
 1693 0068 3B61     		str	r3, [r7, #16]	@ float
 438:..\src/utils.c **** 	return y;
 1694              		.loc 1 438 0
 1695 006a 3B69     		ldr	r3, [r7, #16]	@ float
 439:..\src/utils.c **** }
 1696              		.loc 1 439 0
 1697 006c 1846     		mov	r0, r3
 1698 006e 1837     		adds	r7, r7, #24
 1699              		.cfi_def_cfa_offset 8
 1700 0070 BD46     		mov	sp, r7
 1701              		.cfi_def_cfa_register 13
 1702              		@ sp needed
 1703 0072 80BD     		pop	{r7, pc}
 1704              	.L84:
 1705              		.align	2
 1706              	.L83:
 1707 0074 DF59375F 		.word	1597463007
 1708              		.cfi_endproc
 1709              	.LFE76:
 1710              		.size	invSqrt, .-invSqrt
 1711              		.section	.text.v3_normalize,"ax",%progbits
 1712              		.align	2
ARM GAS  C:\Users\mgnocco\AppData\Local\Temp\ccOXEsk0.s 			page 39


 1713              		.global	v3_normalize
 1714              		.thumb
 1715              		.thumb_func
 1716              		.type	v3_normalize, %function
 1717              	v3_normalize:
 1718              	.LFB77:
 440:..\src/utils.c **** 
 441:..\src/utils.c **** //==============================================================================
 442:..\src/utils.c **** //                                                                  V3_NORMALIZE
 443:..\src/utils.c **** //==============================================================================
 444:..\src/utils.c **** void v3_normalize(float v3_in[3]){
 1719              		.loc 1 444 0
 1720              		.cfi_startproc
 1721              		@ args = 0, pretend = 0, frame = 16
 1722              		@ frame_needed = 1, uses_anonymous_args = 0
 1723 0000 90B5     		push	{r4, r7, lr}
 1724              		.cfi_def_cfa_offset 12
 1725              		.cfi_offset 4, -12
 1726              		.cfi_offset 7, -8
 1727              		.cfi_offset 14, -4
 1728 0002 85B0     		sub	sp, sp, #20
 1729              		.cfi_def_cfa_offset 32
 1730 0004 00AF     		add	r7, sp, #0
 1731              		.cfi_def_cfa_register 7
 1732 0006 7860     		str	r0, [r7, #4]
 445:..\src/utils.c ****     // Vector 3 normalization
 446:..\src/utils.c ****     float norm = invSqrt(v3_in[0] * v3_in[0] + v3_in[1] * v3_in[1] + v3_in[2] * v3_in[2]);
 1733              		.loc 1 446 0
 1734 0008 7B68     		ldr	r3, [r7, #4]
 1735 000a 1A68     		ldr	r2, [r3]	@ float
 1736 000c 7B68     		ldr	r3, [r7, #4]
 1737 000e 1B68     		ldr	r3, [r3]	@ float
 1738 0010 1946     		mov	r1, r3
 1739 0012 1046     		mov	r0, r2
 1740 0014 FFF7FEFF 		bl	__aeabi_fmul
 1741 0018 0346     		mov	r3, r0
 1742 001a 1C46     		mov	r4, r3
 1743 001c 7B68     		ldr	r3, [r7, #4]
 1744 001e 0433     		adds	r3, r3, #4
 1745 0020 1A68     		ldr	r2, [r3]	@ float
 1746 0022 7B68     		ldr	r3, [r7, #4]
 1747 0024 0433     		adds	r3, r3, #4
 1748 0026 1B68     		ldr	r3, [r3]	@ float
 1749 0028 1946     		mov	r1, r3
 1750 002a 1046     		mov	r0, r2
 1751 002c FFF7FEFF 		bl	__aeabi_fmul
 1752 0030 0346     		mov	r3, r0
 1753 0032 1946     		mov	r1, r3
 1754 0034 2046     		mov	r0, r4
 1755 0036 FFF7FEFF 		bl	__aeabi_fadd
 1756 003a 0346     		mov	r3, r0
 1757 003c 1C46     		mov	r4, r3
 1758 003e 7B68     		ldr	r3, [r7, #4]
 1759 0040 0833     		adds	r3, r3, #8
 1760 0042 1A68     		ldr	r2, [r3]	@ float
 1761 0044 7B68     		ldr	r3, [r7, #4]
 1762 0046 0833     		adds	r3, r3, #8
ARM GAS  C:\Users\mgnocco\AppData\Local\Temp\ccOXEsk0.s 			page 40


 1763 0048 1B68     		ldr	r3, [r3]	@ float
 1764 004a 1946     		mov	r1, r3
 1765 004c 1046     		mov	r0, r2
 1766 004e FFF7FEFF 		bl	__aeabi_fmul
 1767 0052 0346     		mov	r3, r0
 1768 0054 1946     		mov	r1, r3
 1769 0056 2046     		mov	r0, r4
 1770 0058 FFF7FEFF 		bl	__aeabi_fadd
 1771 005c 0346     		mov	r3, r0
 1772 005e 1846     		mov	r0, r3
 1773 0060 FFF7FEFF 		bl	invSqrt
 1774 0064 F860     		str	r0, [r7, #12]	@ float
 447:..\src/utils.c ****     
 448:..\src/utils.c ****     v3_in[0] = v3_in[0]*norm;
 1775              		.loc 1 448 0
 1776 0066 7B68     		ldr	r3, [r7, #4]
 1777 0068 1B68     		ldr	r3, [r3]	@ float
 1778 006a F968     		ldr	r1, [r7, #12]	@ float
 1779 006c 1846     		mov	r0, r3
 1780 006e FFF7FEFF 		bl	__aeabi_fmul
 1781 0072 0346     		mov	r3, r0
 1782 0074 1A46     		mov	r2, r3
 1783 0076 7B68     		ldr	r3, [r7, #4]
 1784 0078 1A60     		str	r2, [r3]	@ float
 449:..\src/utils.c ****     v3_in[1] = v3_in[1]*norm;
 1785              		.loc 1 449 0
 1786 007a 7B68     		ldr	r3, [r7, #4]
 1787 007c 1C1D     		adds	r4, r3, #4
 1788 007e 7B68     		ldr	r3, [r7, #4]
 1789 0080 0433     		adds	r3, r3, #4
 1790 0082 1B68     		ldr	r3, [r3]	@ float
 1791 0084 F968     		ldr	r1, [r7, #12]	@ float
 1792 0086 1846     		mov	r0, r3
 1793 0088 FFF7FEFF 		bl	__aeabi_fmul
 1794 008c 0346     		mov	r3, r0
 1795 008e 2360     		str	r3, [r4]	@ float
 450:..\src/utils.c ****     v3_in[2] = v3_in[2]*norm;
 1796              		.loc 1 450 0
 1797 0090 7B68     		ldr	r3, [r7, #4]
 1798 0092 03F10804 		add	r4, r3, #8
 1799 0096 7B68     		ldr	r3, [r7, #4]
 1800 0098 0833     		adds	r3, r3, #8
 1801 009a 1B68     		ldr	r3, [r3]	@ float
 1802 009c F968     		ldr	r1, [r7, #12]	@ float
 1803 009e 1846     		mov	r0, r3
 1804 00a0 FFF7FEFF 		bl	__aeabi_fmul
 1805 00a4 0346     		mov	r3, r0
 1806 00a6 2360     		str	r3, [r4]	@ float
 451:..\src/utils.c **** }
 1807              		.loc 1 451 0
 1808 00a8 00BF     		nop
 1809 00aa 1437     		adds	r7, r7, #20
 1810              		.cfi_def_cfa_offset 12
 1811 00ac BD46     		mov	sp, r7
 1812              		.cfi_def_cfa_register 13
 1813              		@ sp needed
 1814 00ae 90BD     		pop	{r4, r7, pc}
ARM GAS  C:\Users\mgnocco\AppData\Local\Temp\ccOXEsk0.s 			page 41


 1815              		.cfi_endproc
 1816              	.LFE77:
 1817              		.size	v3_normalize, .-v3_normalize
 1818              		.section	.text.v4_normalize,"ax",%progbits
 1819              		.align	2
 1820              		.global	v4_normalize
 1821              		.thumb
 1822              		.thumb_func
 1823              		.type	v4_normalize, %function
 1824              	v4_normalize:
 1825              	.LFB78:
 452:..\src/utils.c ****  
 453:..\src/utils.c **** //==============================================================================
 454:..\src/utils.c **** //                                                                  V4_NORMALIZE
 455:..\src/utils.c **** //==============================================================================
 456:..\src/utils.c **** void v4_normalize(float v4_in[4]){
 1826              		.loc 1 456 0
 1827              		.cfi_startproc
 1828              		@ args = 0, pretend = 0, frame = 16
 1829              		@ frame_needed = 1, uses_anonymous_args = 0
 1830 0000 90B5     		push	{r4, r7, lr}
 1831              		.cfi_def_cfa_offset 12
 1832              		.cfi_offset 4, -12
 1833              		.cfi_offset 7, -8
 1834              		.cfi_offset 14, -4
 1835 0002 85B0     		sub	sp, sp, #20
 1836              		.cfi_def_cfa_offset 32
 1837 0004 00AF     		add	r7, sp, #0
 1838              		.cfi_def_cfa_register 7
 1839 0006 7860     		str	r0, [r7, #4]
 457:..\src/utils.c ****     // Vector 4 normalization
 458:..\src/utils.c ****     float norm = invSqrt(v4_in[0] * v4_in[0] + v4_in[1] * v4_in[1] + v4_in[2] * v4_in[2] + v4_in[3]
 1840              		.loc 1 458 0
 1841 0008 7B68     		ldr	r3, [r7, #4]
 1842 000a 1A68     		ldr	r2, [r3]	@ float
 1843 000c 7B68     		ldr	r3, [r7, #4]
 1844 000e 1B68     		ldr	r3, [r3]	@ float
 1845 0010 1946     		mov	r1, r3
 1846 0012 1046     		mov	r0, r2
 1847 0014 FFF7FEFF 		bl	__aeabi_fmul
 1848 0018 0346     		mov	r3, r0
 1849 001a 1C46     		mov	r4, r3
 1850 001c 7B68     		ldr	r3, [r7, #4]
 1851 001e 0433     		adds	r3, r3, #4
 1852 0020 1A68     		ldr	r2, [r3]	@ float
 1853 0022 7B68     		ldr	r3, [r7, #4]
 1854 0024 0433     		adds	r3, r3, #4
 1855 0026 1B68     		ldr	r3, [r3]	@ float
 1856 0028 1946     		mov	r1, r3
 1857 002a 1046     		mov	r0, r2
 1858 002c FFF7FEFF 		bl	__aeabi_fmul
 1859 0030 0346     		mov	r3, r0
 1860 0032 1946     		mov	r1, r3
 1861 0034 2046     		mov	r0, r4
 1862 0036 FFF7FEFF 		bl	__aeabi_fadd
 1863 003a 0346     		mov	r3, r0
 1864 003c 1C46     		mov	r4, r3
ARM GAS  C:\Users\mgnocco\AppData\Local\Temp\ccOXEsk0.s 			page 42


 1865 003e 7B68     		ldr	r3, [r7, #4]
 1866 0040 0833     		adds	r3, r3, #8
 1867 0042 1A68     		ldr	r2, [r3]	@ float
 1868 0044 7B68     		ldr	r3, [r7, #4]
 1869 0046 0833     		adds	r3, r3, #8
 1870 0048 1B68     		ldr	r3, [r3]	@ float
 1871 004a 1946     		mov	r1, r3
 1872 004c 1046     		mov	r0, r2
 1873 004e FFF7FEFF 		bl	__aeabi_fmul
 1874 0052 0346     		mov	r3, r0
 1875 0054 1946     		mov	r1, r3
 1876 0056 2046     		mov	r0, r4
 1877 0058 FFF7FEFF 		bl	__aeabi_fadd
 1878 005c 0346     		mov	r3, r0
 1879 005e 1C46     		mov	r4, r3
 1880 0060 7B68     		ldr	r3, [r7, #4]
 1881 0062 0C33     		adds	r3, r3, #12
 1882 0064 1A68     		ldr	r2, [r3]	@ float
 1883 0066 7B68     		ldr	r3, [r7, #4]
 1884 0068 0C33     		adds	r3, r3, #12
 1885 006a 1B68     		ldr	r3, [r3]	@ float
 1886 006c 1946     		mov	r1, r3
 1887 006e 1046     		mov	r0, r2
 1888 0070 FFF7FEFF 		bl	__aeabi_fmul
 1889 0074 0346     		mov	r3, r0
 1890 0076 1946     		mov	r1, r3
 1891 0078 2046     		mov	r0, r4
 1892 007a FFF7FEFF 		bl	__aeabi_fadd
 1893 007e 0346     		mov	r3, r0
 1894 0080 1846     		mov	r0, r3
 1895 0082 FFF7FEFF 		bl	invSqrt
 1896 0086 F860     		str	r0, [r7, #12]	@ float
 459:..\src/utils.c ****     
 460:..\src/utils.c ****     v4_in[0] = v4_in[0]*norm;
 1897              		.loc 1 460 0
 1898 0088 7B68     		ldr	r3, [r7, #4]
 1899 008a 1B68     		ldr	r3, [r3]	@ float
 1900 008c F968     		ldr	r1, [r7, #12]	@ float
 1901 008e 1846     		mov	r0, r3
 1902 0090 FFF7FEFF 		bl	__aeabi_fmul
 1903 0094 0346     		mov	r3, r0
 1904 0096 1A46     		mov	r2, r3
 1905 0098 7B68     		ldr	r3, [r7, #4]
 1906 009a 1A60     		str	r2, [r3]	@ float
 461:..\src/utils.c ****     v4_in[1] = v4_in[1]*norm;
 1907              		.loc 1 461 0
 1908 009c 7B68     		ldr	r3, [r7, #4]
 1909 009e 1C1D     		adds	r4, r3, #4
 1910 00a0 7B68     		ldr	r3, [r7, #4]
 1911 00a2 0433     		adds	r3, r3, #4
 1912 00a4 1B68     		ldr	r3, [r3]	@ float
 1913 00a6 F968     		ldr	r1, [r7, #12]	@ float
 1914 00a8 1846     		mov	r0, r3
 1915 00aa FFF7FEFF 		bl	__aeabi_fmul
 1916 00ae 0346     		mov	r3, r0
 1917 00b0 2360     		str	r3, [r4]	@ float
 462:..\src/utils.c ****     v4_in[2] = v4_in[2]*norm;
ARM GAS  C:\Users\mgnocco\AppData\Local\Temp\ccOXEsk0.s 			page 43


 1918              		.loc 1 462 0
 1919 00b2 7B68     		ldr	r3, [r7, #4]
 1920 00b4 03F10804 		add	r4, r3, #8
 1921 00b8 7B68     		ldr	r3, [r7, #4]
 1922 00ba 0833     		adds	r3, r3, #8
 1923 00bc 1B68     		ldr	r3, [r3]	@ float
 1924 00be F968     		ldr	r1, [r7, #12]	@ float
 1925 00c0 1846     		mov	r0, r3
 1926 00c2 FFF7FEFF 		bl	__aeabi_fmul
 1927 00c6 0346     		mov	r3, r0
 1928 00c8 2360     		str	r3, [r4]	@ float
 463:..\src/utils.c ****     v4_in[3] = v4_in[3]*norm;
 1929              		.loc 1 463 0
 1930 00ca 7B68     		ldr	r3, [r7, #4]
 1931 00cc 03F10C04 		add	r4, r3, #12
 1932 00d0 7B68     		ldr	r3, [r7, #4]
 1933 00d2 0C33     		adds	r3, r3, #12
 1934 00d4 1B68     		ldr	r3, [r3]	@ float
 1935 00d6 F968     		ldr	r1, [r7, #12]	@ float
 1936 00d8 1846     		mov	r0, r3
 1937 00da FFF7FEFF 		bl	__aeabi_fmul
 1938 00de 0346     		mov	r3, r0
 1939 00e0 2360     		str	r3, [r4]	@ float
 464:..\src/utils.c **** }
 1940              		.loc 1 464 0
 1941 00e2 00BF     		nop
 1942 00e4 1437     		adds	r7, r7, #20
 1943              		.cfi_def_cfa_offset 12
 1944 00e6 BD46     		mov	sp, r7
 1945              		.cfi_def_cfa_register 13
 1946              		@ sp needed
 1947 00e8 90BD     		pop	{r4, r7, pc}
 1948              		.cfi_endproc
 1949              	.LFE78:
 1950              		.size	v4_normalize, .-v4_normalize
 1951 00ea 00BF     		.section	.text.update_EMG_history,"ax",%progbits
 1952              		.align	2
 1953              		.global	update_EMG_history
 1954              		.thumb
 1955              		.thumb_func
 1956              		.type	update_EMG_history, %function
 1957              	update_EMG_history:
 1958              	.LFB79:
 465:..\src/utils.c **** 
 466:..\src/utils.c **** //==============================================================================
 467:..\src/utils.c **** //                                                            UPDATE_EMG_HISTORY
 468:..\src/utils.c **** //==============================================================================
 469:..\src/utils.c **** void update_EMG_history(){
 1959              		.loc 1 469 0
 1960              		.cfi_startproc
 1961              		@ args = 0, pretend = 0, frame = 16
 1962              		@ frame_needed = 1, uses_anonymous_args = 0
 1963 0000 80B5     		push	{r7, lr}
 1964              		.cfi_def_cfa_offset 8
 1965              		.cfi_offset 7, -8
 1966              		.cfi_offset 14, -4
 1967 0002 84B0     		sub	sp, sp, #16
ARM GAS  C:\Users\mgnocco\AppData\Local\Temp\ccOXEsk0.s 			page 44


 1968              		.cfi_def_cfa_offset 24
 1969 0004 00AF     		add	r7, sp, #0
 1970              		.cfi_def_cfa_register 7
 470:..\src/utils.c ****     
 471:..\src/utils.c ****     static int32 last_counter_value = 6000;
 472:..\src/utils.c ****     
 473:..\src/utils.c ****     uint32 current_counter_value = (uint32)CYCLES_TIMER_ReadCounter();
 1971              		.loc 1 473 0
 1972 0006 FFF7FEFF 		bl	CYCLES_TIMER_ReadCounter
 1973 000a 0346     		mov	r3, r0
 1974 000c BB60     		str	r3, [r7, #8]
 474:..\src/utils.c ****     int32 counter_diff = last_counter_value - current_counter_value;
 1975              		.loc 1 474 0
 1976 000e 1C4B     		ldr	r3, .L93
 1977 0010 1B68     		ldr	r3, [r3]
 1978 0012 1A46     		mov	r2, r3
 1979 0014 BB68     		ldr	r3, [r7, #8]
 1980 0016 D31A     		subs	r3, r2, r3
 1981 0018 7B60     		str	r3, [r7, #4]
 475:..\src/utils.c ****     
 476:..\src/utils.c ****     if ( counter_diff >= 10 || counter_diff <= -10 ){
 1982              		.loc 1 476 0
 1983 001a 7B68     		ldr	r3, [r7, #4]
 1984 001c 092B     		cmp	r3, #9
 1985 001e 03DC     		bgt	.L88
 1986              		.loc 1 476 0 is_stmt 0 discriminator 1
 1987 0020 7B68     		ldr	r3, [r7, #4]
 1988 0022 13F1090F 		cmn	r3, #9
 1989 0026 26DA     		bge	.L92
 1990              	.L88:
 1991              	.LBB3:
 477:..\src/utils.c ****         // Run this part only after 10 CYCLES_TIMER timer steps (50Hz timer -> 5 Hz)
 478:..\src/utils.c ****         
 479:..\src/utils.c ****         
 480:..\src/utils.c ****         for (int i = 0; i < NUM_OF_INPUT_EMGS; i++){
 1992              		.loc 1 480 0 is_stmt 1
 1993 0028 0023     		movs	r3, #0
 1994 002a FB60     		str	r3, [r7, #12]
 1995 002c 10E0     		b	.L90
 1996              	.L91:
 481:..\src/utils.c ****             emg_history[emg_history_next_idx][i] = g_adc_meas.emg[i];
 1997              		.loc 1 481 0 discriminator 3
 1998 002e 154B     		ldr	r3, .L93+4
 1999 0030 1B68     		ldr	r3, [r3]
 2000 0032 1549     		ldr	r1, .L93+8
 2001 0034 FA68     		ldr	r2, [r7, #12]
 2002 0036 51F82220 		ldr	r2, [r1, r2, lsl #2]
 2003 003a 90B2     		uxth	r0, r2
 2004 003c 1349     		ldr	r1, .L93+12
 2005 003e 5A00     		lsls	r2, r3, #1
 2006 0040 FB68     		ldr	r3, [r7, #12]
 2007 0042 1344     		add	r3, r3, r2
 2008 0044 0246     		mov	r2, r0	@ movhi
 2009 0046 21F81320 		strh	r2, [r1, r3, lsl #1]	@ movhi
 480:..\src/utils.c ****             emg_history[emg_history_next_idx][i] = g_adc_meas.emg[i];
 2010              		.loc 1 480 0 discriminator 3
 2011 004a FB68     		ldr	r3, [r7, #12]
ARM GAS  C:\Users\mgnocco\AppData\Local\Temp\ccOXEsk0.s 			page 45


 2012 004c 0133     		adds	r3, r3, #1
 2013 004e FB60     		str	r3, [r7, #12]
 2014              	.L90:
 480:..\src/utils.c ****             emg_history[emg_history_next_idx][i] = g_adc_meas.emg[i];
 2015              		.loc 1 480 0 is_stmt 0 discriminator 1
 2016 0050 FB68     		ldr	r3, [r7, #12]
 2017 0052 012B     		cmp	r3, #1
 2018 0054 EBDD     		ble	.L91
 2019              	.LBE3:
 482:..\src/utils.c ****         }        
 483:..\src/utils.c ****         
 484:..\src/utils.c ****         last_counter_value = current_counter_value;
 2020              		.loc 1 484 0 is_stmt 1
 2021 0056 BB68     		ldr	r3, [r7, #8]
 2022 0058 094A     		ldr	r2, .L93
 2023 005a 1360     		str	r3, [r2]
 485:..\src/utils.c ****         
 486:..\src/utils.c ****         emg_history_next_idx++;
 2024              		.loc 1 486 0
 2025 005c 094B     		ldr	r3, .L93+4
 2026 005e 1B68     		ldr	r3, [r3]
 2027 0060 0133     		adds	r3, r3, #1
 2028 0062 084A     		ldr	r2, .L93+4
 2029 0064 1360     		str	r3, [r2]
 487:..\src/utils.c ****         if (emg_history_next_idx >= SAMPLES_FOR_EMG_HISTORY){
 2030              		.loc 1 487 0
 2031 0066 074B     		ldr	r3, .L93+4
 2032 0068 1B68     		ldr	r3, [r3]
 2033 006a B3F5167F 		cmp	r3, #600
 2034 006e 02D3     		bcc	.L92
 488:..\src/utils.c ****             emg_history_next_idx = 0;
 2035              		.loc 1 488 0
 2036 0070 044B     		ldr	r3, .L93+4
 2037 0072 0022     		movs	r2, #0
 2038 0074 1A60     		str	r2, [r3]
 2039              	.L92:
 489:..\src/utils.c ****         }
 490:..\src/utils.c ****     }
 491:..\src/utils.c **** }
 2040              		.loc 1 491 0
 2041 0076 00BF     		nop
 2042 0078 1037     		adds	r7, r7, #16
 2043              		.cfi_def_cfa_offset 8
 2044 007a BD46     		mov	sp, r7
 2045              		.cfi_def_cfa_register 13
 2046              		@ sp needed
 2047 007c 80BD     		pop	{r7, pc}
 2048              	.L94:
 2049 007e 00BF     		.align	2
 2050              	.L93:
 2051 0080 04000000 		.word	last_counter_value.9640
 2052 0084 00000000 		.word	emg_history_next_idx
 2053 0088 00000000 		.word	g_adc_meas
 2054 008c 00000000 		.word	emg_history
 2055              		.cfi_endproc
 2056              	.LFE79:
 2057              		.size	update_EMG_history, .-update_EMG_history
ARM GAS  C:\Users\mgnocco\AppData\Local\Temp\ccOXEsk0.s 			page 46


 2058              		.bss
 2059              		.align	2
 2060              	virtual_pos_friction.9546:
 2061 0000 00000000 		.space	8
 2061      00000000 
 2062              		.align	2
 2063              	err_pos_dt.9547:
 2064 0008 00000000 		.space	8
 2064      00000000 
 2065              	direction.9561:
 2066 0010 00       		.space	1
 2067 0011 00       		.align	1
 2068              	closure_counter.9562:
 2069 0012 0000     		.space	2
 2070              		.data
 2071              		.type	first_time.9589, %object
 2072              		.size	first_time.9589, 1
 2073              	first_time.9589:
 2074 0000 01       		.byte	1
 2075              		.bss
 2076              		.align	2
 2077              	count.9587:
 2078 0014 00000000 		.space	4
 2079              		.data
 2080              		.type	flag_count.9588, %object
 2081              		.size	flag_count.9588, 1
 2082              	flag_count.9588:
 2083 0001 01       		.byte	1
 2084              		.bss
 2085              		.align	2
 2086              	m.9590:
 2087 0018 00000000 		.space	4
 2088              		.align	2
 2089              	abs_err_thr.9591:
 2090 001c 00000000 		.space	4
 2091              		.align	2
 2092              	rest_error.9594:
 2093 0020 00000000 		.space	4
 2094              		.align	2
 2095              	delta_inc.9592:
 2096 0024 00000000 		.space	4
 2097              		.data
 2098 0002 0000     		.align	2
 2099              		.type	last_counter_value.9640, %object
 2100              		.size	last_counter_value.9640, 4
 2101              	last_counter_value.9640:
 2102 0004 70170000 		.word	6000
 2103              		.text
 2104              	.Letext0:
 2105              		.file 2 "c:\\program files (x86)\\cypress\\psoc creator\\4.4\\psoc creator\\import\\gnu\\arm\\5.4.
 2106              		.file 3 "c:\\program files (x86)\\cypress\\psoc creator\\4.4\\psoc creator\\import\\gnu\\arm\\5.4.
 2107              		.file 4 "Generated_Source\\PSoC5/cytypes.h"
 2108              		.file 5 "..\\src\\globals.h"
 2109              		.file 6 "Generated_Source\\PSoC5/core_cm3.h"
 2110              		.file 7 "..\\src\\commands.h"